   1              		.cpu cortex-m0
   2              		.fpu softvfp
   3              		.eabi_attribute 20, 1
   4              		.eabi_attribute 21, 1
   5              		.eabi_attribute 23, 3
   6              		.eabi_attribute 24, 1
   7              		.eabi_attribute 25, 1
   8              		.eabi_attribute 26, 1
   9              		.eabi_attribute 30, 2
  10              		.eabi_attribute 34, 0
  11              		.eabi_attribute 18, 4
  12              		.code	16
  13              		.file	"mcg.c"
  14              		.text
  15              	.Ltext0:
  16              		.cfi_sections	.debug_frame
  17              		.global	__aeabi_idiv
  18              		.section	.text.pll_init,"ax",%progbits
  19              		.align	2
  20              		.global	pll_init
  21              		.code	16
  22              		.thumb_func
  24              	pll_init:
  25              	.LFB0:
  26              		.file 1 "D:/kuaipan/SEMG/MEMS_SEMG_KL25/KL25 Sample Code_I2c/KL25 Sample Code/kl25_sc_rev10/klxx-s
   1:D:/kuaipan/SEMG/MEMS_SEMG_KL25/KL25 Sample Code_I2c/KL25 Sample Code/kl25_sc_rev10/klxx-sc-baremetal/src/drivers/mcg\mcg.c **** /*
   2:D:/kuaipan/SEMG/MEMS_SEMG_KL25/KL25 Sample Code_I2c/KL25 Sample Code/kl25_sc_rev10/klxx-sc-baremetal/src/drivers/mcg\mcg.c ****  * File:    mcg.c
   3:D:/kuaipan/SEMG/MEMS_SEMG_KL25/KL25 Sample Code_I2c/KL25 Sample Code/kl25_sc_rev10/klxx-sc-baremetal/src/drivers/mcg\mcg.c ****  *
   4:D:/kuaipan/SEMG/MEMS_SEMG_KL25/KL25 Sample Code_I2c/KL25 Sample Code/kl25_sc_rev10/klxx-sc-baremetal/src/drivers/mcg\mcg.c ****  * MCG drivers for Freescale Kinetis L - series devices
   5:D:/kuaipan/SEMG/MEMS_SEMG_KL25/KL25 Sample Code_I2c/KL25 Sample Code/kl25_sc_rev10/klxx-sc-baremetal/src/drivers/mcg\mcg.c ****  * Notes:
   6:D:/kuaipan/SEMG/MEMS_SEMG_KL25/KL25 Sample Code_I2c/KL25 Sample Code/kl25_sc_rev10/klxx-sc-baremetal/src/drivers/mcg\mcg.c ****  * Assumes the MCG mode is in the default FEI mode out of reset
   7:D:/kuaipan/SEMG/MEMS_SEMG_KL25/KL25 Sample Code_I2c/KL25 Sample Code/kl25_sc_rev10/klxx-sc-baremetal/src/drivers/mcg\mcg.c ****  */
   8:D:/kuaipan/SEMG/MEMS_SEMG_KL25/KL25 Sample Code_I2c/KL25 Sample Code/kl25_sc_rev10/klxx-sc-baremetal/src/drivers/mcg\mcg.c **** 
   9:D:/kuaipan/SEMG/MEMS_SEMG_KL25/KL25 Sample Code_I2c/KL25 Sample Code/kl25_sc_rev10/klxx-sc-baremetal/src/drivers/mcg\mcg.c **** #include "common.h"
  10:D:/kuaipan/SEMG/MEMS_SEMG_KL25/KL25 Sample Code_I2c/KL25 Sample Code/kl25_sc_rev10/klxx-sc-baremetal/src/drivers/mcg\mcg.c **** #include "mcg.h"
  11:D:/kuaipan/SEMG/MEMS_SEMG_KL25/KL25 Sample Code_I2c/KL25 Sample Code/kl25_sc_rev10/klxx-sc-baremetal/src/drivers/mcg\mcg.c **** 
  12:D:/kuaipan/SEMG/MEMS_SEMG_KL25/KL25 Sample Code_I2c/KL25 Sample Code/kl25_sc_rev10/klxx-sc-baremetal/src/drivers/mcg\mcg.c **** 
  13:D:/kuaipan/SEMG/MEMS_SEMG_KL25/KL25 Sample Code_I2c/KL25 Sample Code/kl25_sc_rev10/klxx-sc-baremetal/src/drivers/mcg\mcg.c **** // global variables
  14:D:/kuaipan/SEMG/MEMS_SEMG_KL25/KL25 Sample Code_I2c/KL25 Sample Code/kl25_sc_rev10/klxx-sc-baremetal/src/drivers/mcg\mcg.c **** extern int core_clk_khz;
  15:D:/kuaipan/SEMG/MEMS_SEMG_KL25/KL25 Sample Code_I2c/KL25 Sample Code/kl25_sc_rev10/klxx-sc-baremetal/src/drivers/mcg\mcg.c **** 
  16:D:/kuaipan/SEMG/MEMS_SEMG_KL25/KL25 Sample Code_I2c/KL25 Sample Code/kl25_sc_rev10/klxx-sc-baremetal/src/drivers/mcg\mcg.c **** 
  17:D:/kuaipan/SEMG/MEMS_SEMG_KL25/KL25 Sample Code_I2c/KL25 Sample Code/kl25_sc_rev10/klxx-sc-baremetal/src/drivers/mcg\mcg.c **** char drs_val, dmx32_val;
  18:D:/kuaipan/SEMG/MEMS_SEMG_KL25/KL25 Sample Code_I2c/KL25 Sample Code/kl25_sc_rev10/klxx-sc-baremetal/src/drivers/mcg\mcg.c **** 
  19:D:/kuaipan/SEMG/MEMS_SEMG_KL25/KL25 Sample Code_I2c/KL25 Sample Code/kl25_sc_rev10/klxx-sc-baremetal/src/drivers/mcg\mcg.c **** 
  20:D:/kuaipan/SEMG/MEMS_SEMG_KL25/KL25 Sample Code_I2c/KL25 Sample Code/kl25_sc_rev10/klxx-sc-baremetal/src/drivers/mcg\mcg.c **** 
  21:D:/kuaipan/SEMG/MEMS_SEMG_KL25/KL25 Sample Code_I2c/KL25 Sample Code/kl25_sc_rev10/klxx-sc-baremetal/src/drivers/mcg\mcg.c **** 
  22:D:/kuaipan/SEMG/MEMS_SEMG_KL25/KL25 Sample Code_I2c/KL25 Sample Code/kl25_sc_rev10/klxx-sc-baremetal/src/drivers/mcg\mcg.c **** 
  23:D:/kuaipan/SEMG/MEMS_SEMG_KL25/KL25 Sample Code_I2c/KL25 Sample Code/kl25_sc_rev10/klxx-sc-baremetal/src/drivers/mcg\mcg.c **** /*********************************************************************************************/
  24:D:/kuaipan/SEMG/MEMS_SEMG_KL25/KL25 Sample Code_I2c/KL25 Sample Code/kl25_sc_rev10/klxx-sc-baremetal/src/drivers/mcg\mcg.c **** /* Functon name : pll_init
  25:D:/kuaipan/SEMG/MEMS_SEMG_KL25/KL25 Sample Code_I2c/KL25 Sample Code/kl25_sc_rev10/klxx-sc-baremetal/src/drivers/mcg\mcg.c ****  *
  26:D:/kuaipan/SEMG/MEMS_SEMG_KL25/KL25 Sample Code_I2c/KL25 Sample Code/kl25_sc_rev10/klxx-sc-baremetal/src/drivers/mcg\mcg.c ****  * Mode transition: Option to move from FEI to PEE mode or to just initialize the PLL
  27:D:/kuaipan/SEMG/MEMS_SEMG_KL25/KL25 Sample Code_I2c/KL25 Sample Code/kl25_sc_rev10/klxx-sc-baremetal/src/drivers/mcg\mcg.c ****  *
  28:D:/kuaipan/SEMG/MEMS_SEMG_KL25/KL25 Sample Code_I2c/KL25 Sample Code/kl25_sc_rev10/klxx-sc-baremetal/src/drivers/mcg\mcg.c ****  * This function initializess PLL0. Either OSC0 is selected for the
  29:D:/kuaipan/SEMG/MEMS_SEMG_KL25/KL25 Sample Code_I2c/KL25 Sample Code/kl25_sc_rev10/klxx-sc-baremetal/src/drivers/mcg\mcg.c ****  * reference clock source. The oscillators can be configured to use a crystal or take in an
  30:D:/kuaipan/SEMG/MEMS_SEMG_KL25/KL25 Sample Code_I2c/KL25 Sample Code/kl25_sc_rev10/klxx-sc-baremetal/src/drivers/mcg\mcg.c ****  * external square wave clock.
  31:D:/kuaipan/SEMG/MEMS_SEMG_KL25/KL25 Sample Code_I2c/KL25 Sample Code/kl25_sc_rev10/klxx-sc-baremetal/src/drivers/mcg\mcg.c ****  * Using the function parameter names the PLL frequency is calculated as follows:
  32:D:/kuaipan/SEMG/MEMS_SEMG_KL25/KL25 Sample Code_I2c/KL25 Sample Code/kl25_sc_rev10/klxx-sc-baremetal/src/drivers/mcg\mcg.c ****  * PLL freq = ((crystal_val / prdiv_val) * vdiv_val)
  33:D:/kuaipan/SEMG/MEMS_SEMG_KL25/KL25 Sample Code_I2c/KL25 Sample Code/kl25_sc_rev10/klxx-sc-baremetal/src/drivers/mcg\mcg.c ****  * Refer to the readme file in the mcg driver directory for examples of pll_init configurations.
  34:D:/kuaipan/SEMG/MEMS_SEMG_KL25/KL25 Sample Code_I2c/KL25 Sample Code/kl25_sc_rev10/klxx-sc-baremetal/src/drivers/mcg\mcg.c ****  * All parameters must be provided, for example crystal_val must be provided even if the
  35:D:/kuaipan/SEMG/MEMS_SEMG_KL25/KL25 Sample Code_I2c/KL25 Sample Code/kl25_sc_rev10/klxx-sc-baremetal/src/drivers/mcg\mcg.c ****  * oscillator associated with that parameter is already initialized.
  36:D:/kuaipan/SEMG/MEMS_SEMG_KL25/KL25 Sample Code_I2c/KL25 Sample Code/kl25_sc_rev10/klxx-sc-baremetal/src/drivers/mcg\mcg.c ****  * The various passed parameters are checked to ensure they are within the allowed range. If any
  37:D:/kuaipan/SEMG/MEMS_SEMG_KL25/KL25 Sample Code_I2c/KL25 Sample Code/kl25_sc_rev10/klxx-sc-baremetal/src/drivers/mcg\mcg.c ****  * of these checks fail the driver will exit and return a fail/error code. An error code will
  38:D:/kuaipan/SEMG/MEMS_SEMG_KL25/KL25 Sample Code_I2c/KL25 Sample Code/kl25_sc_rev10/klxx-sc-baremetal/src/drivers/mcg\mcg.c ****  * also be returned if any error occurs during the PLL initialization sequence. Refer to the
  39:D:/kuaipan/SEMG/MEMS_SEMG_KL25/KL25 Sample Code_I2c/KL25 Sample Code/kl25_sc_rev10/klxx-sc-baremetal/src/drivers/mcg\mcg.c ****  * readme file in the mcg driver directory for a list of all these codes.
  40:D:/kuaipan/SEMG/MEMS_SEMG_KL25/KL25 Sample Code_I2c/KL25 Sample Code/kl25_sc_rev10/klxx-sc-baremetal/src/drivers/mcg\mcg.c ****  *
  41:D:/kuaipan/SEMG/MEMS_SEMG_KL25/KL25 Sample Code_I2c/KL25 Sample Code/kl25_sc_rev10/klxx-sc-baremetal/src/drivers/mcg\mcg.c ****  * Parameters: crystal_val - external clock frequency in Hz either from a crystal or square
  42:D:/kuaipan/SEMG/MEMS_SEMG_KL25/KL25 Sample Code_I2c/KL25 Sample Code/kl25_sc_rev10/klxx-sc-baremetal/src/drivers/mcg\mcg.c ****  *                           wave clock source
  43:D:/kuaipan/SEMG/MEMS_SEMG_KL25/KL25 Sample Code_I2c/KL25 Sample Code/kl25_sc_rev10/klxx-sc-baremetal/src/drivers/mcg\mcg.c ****  *             hgo_val     - selects whether low power or high gain mode is selected
  44:D:/kuaipan/SEMG/MEMS_SEMG_KL25/KL25 Sample Code_I2c/KL25 Sample Code/kl25_sc_rev10/klxx-sc-baremetal/src/drivers/mcg\mcg.c ****  *                           for the crystal oscillator. This has no meaning if an
  45:D:/kuaipan/SEMG/MEMS_SEMG_KL25/KL25 Sample Code_I2c/KL25 Sample Code/kl25_sc_rev10/klxx-sc-baremetal/src/drivers/mcg\mcg.c ****  *                           external clock is used.
  46:D:/kuaipan/SEMG/MEMS_SEMG_KL25/KL25 Sample Code_I2c/KL25 Sample Code/kl25_sc_rev10/klxx-sc-baremetal/src/drivers/mcg\mcg.c ****  *             erefs_val   - selects external clock (=0) or crystal osc (=1)
  47:D:/kuaipan/SEMG/MEMS_SEMG_KL25/KL25 Sample Code_I2c/KL25 Sample Code/kl25_sc_rev10/klxx-sc-baremetal/src/drivers/mcg\mcg.c ****  *             prdiv_val   - value to divide the external clock source by to create the desired
  48:D:/kuaipan/SEMG/MEMS_SEMG_KL25/KL25 Sample Code_I2c/KL25 Sample Code/kl25_sc_rev10/klxx-sc-baremetal/src/drivers/mcg\mcg.c ****  *                           PLL reference clock frequency
  49:D:/kuaipan/SEMG/MEMS_SEMG_KL25/KL25 Sample Code_I2c/KL25 Sample Code/kl25_sc_rev10/klxx-sc-baremetal/src/drivers/mcg\mcg.c ****  *             vdiv_val    - value to multiply the PLL reference clock frequency by
  50:D:/kuaipan/SEMG/MEMS_SEMG_KL25/KL25 Sample Code_I2c/KL25 Sample Code/kl25_sc_rev10/klxx-sc-baremetal/src/drivers/mcg\mcg.c ****  *             mcgout_select  - 0 if the PLL is just to be enabled, non-zero if the PLL is used
  51:D:/kuaipan/SEMG/MEMS_SEMG_KL25/KL25 Sample Code_I2c/KL25 Sample Code/kl25_sc_rev10/klxx-sc-baremetal/src/drivers/mcg\mcg.c ****  *                              to provide the MCGOUT clock for the system.
  52:D:/kuaipan/SEMG/MEMS_SEMG_KL25/KL25 Sample Code_I2c/KL25 Sample Code/kl25_sc_rev10/klxx-sc-baremetal/src/drivers/mcg\mcg.c ****  *
  53:D:/kuaipan/SEMG/MEMS_SEMG_KL25/KL25 Sample Code_I2c/KL25 Sample Code/kl25_sc_rev10/klxx-sc-baremetal/src/drivers/mcg\mcg.c ****  * Return value : PLL frequency (Hz) or error code
  54:D:/kuaipan/SEMG/MEMS_SEMG_KL25/KL25 Sample Code_I2c/KL25 Sample Code/kl25_sc_rev10/klxx-sc-baremetal/src/drivers/mcg\mcg.c ****  */
  55:D:/kuaipan/SEMG/MEMS_SEMG_KL25/KL25 Sample Code_I2c/KL25 Sample Code/kl25_sc_rev10/klxx-sc-baremetal/src/drivers/mcg\mcg.c **** 
  56:D:/kuaipan/SEMG/MEMS_SEMG_KL25/KL25 Sample Code_I2c/KL25 Sample Code/kl25_sc_rev10/klxx-sc-baremetal/src/drivers/mcg\mcg.c **** int pll_init(int crystal_val, unsigned char hgo_val, unsigned char erefs_val, signed char prdiv_val
  57:D:/kuaipan/SEMG/MEMS_SEMG_KL25/KL25 Sample Code_I2c/KL25 Sample Code/kl25_sc_rev10/klxx-sc-baremetal/src/drivers/mcg\mcg.c **** {
  27              		.loc 1 57 0
  28              		.cfi_startproc
  29              	.LVL0:
  30 0000 F8B5     		push	{r3, r4, r5, r6, r7, lr}
  31              	.LCFI0:
  32              		.cfi_def_cfa_offset 24
  33              		.cfi_offset 3, -24
  34              		.cfi_offset 4, -20
  35              		.cfi_offset 5, -16
  36              		.cfi_offset 6, -12
  37              		.cfi_offset 7, -8
  38              		.cfi_offset 14, -4
  39 0002 5746     		mov	r7, sl
  40 0004 4E46     		mov	r6, r9
  41 0006 C0B4     		push	{r6, r7}
  42              	.LCFI1:
  43              		.cfi_def_cfa_offset 32
  44              		.cfi_offset 9, -32
  45              		.cfi_offset 10, -28
  58:D:/kuaipan/SEMG/MEMS_SEMG_KL25/KL25 Sample Code_I2c/KL25 Sample Code/kl25_sc_rev10/klxx-sc-baremetal/src/drivers/mcg\mcg.c ****   unsigned char frdiv_val;
  59:D:/kuaipan/SEMG/MEMS_SEMG_KL25/KL25 Sample Code_I2c/KL25 Sample Code/kl25_sc_rev10/klxx-sc-baremetal/src/drivers/mcg\mcg.c ****   unsigned char temp_reg;
  60:D:/kuaipan/SEMG/MEMS_SEMG_KL25/KL25 Sample Code_I2c/KL25 Sample Code/kl25_sc_rev10/klxx-sc-baremetal/src/drivers/mcg\mcg.c ****   unsigned char prdiv, vdiv;
  61:D:/kuaipan/SEMG/MEMS_SEMG_KL25/KL25 Sample Code_I2c/KL25 Sample Code/kl25_sc_rev10/klxx-sc-baremetal/src/drivers/mcg\mcg.c ****   short i;
  62:D:/kuaipan/SEMG/MEMS_SEMG_KL25/KL25 Sample Code_I2c/KL25 Sample Code/kl25_sc_rev10/klxx-sc-baremetal/src/drivers/mcg\mcg.c ****   int ref_freq;
  63:D:/kuaipan/SEMG/MEMS_SEMG_KL25/KL25 Sample Code_I2c/KL25 Sample Code/kl25_sc_rev10/klxx-sc-baremetal/src/drivers/mcg\mcg.c ****   int pll_freq;
  64:D:/kuaipan/SEMG/MEMS_SEMG_KL25/KL25 Sample Code_I2c/KL25 Sample Code/kl25_sc_rev10/klxx-sc-baremetal/src/drivers/mcg\mcg.c **** 
  65:D:/kuaipan/SEMG/MEMS_SEMG_KL25/KL25 Sample Code_I2c/KL25 Sample Code/kl25_sc_rev10/klxx-sc-baremetal/src/drivers/mcg\mcg.c ****   // check if in FEI mode
  66:D:/kuaipan/SEMG/MEMS_SEMG_KL25/KL25 Sample Code_I2c/KL25 Sample Code/kl25_sc_rev10/klxx-sc-baremetal/src/drivers/mcg\mcg.c ****   if (!((((MCG_S & MCG_S_CLKST_MASK) >> MCG_S_CLKST_SHIFT) == 0x0) && // check CLKS mux has selcted
  46              		.loc 1 66 0
  47 0008 924C     		ldr	r4, .L90
  57:D:/kuaipan/SEMG/MEMS_SEMG_KL25/KL25 Sample Code_I2c/KL25 Sample Code/kl25_sc_rev10/klxx-sc-baremetal/src/drivers/mcg\mcg.c **** {
  48              		.loc 1 57 0
  49 000a 151C     		mov	r5, r2
  50 000c 08AA     		add	r2, sp, #32
  51              	.LVL1:
  52 000e 071C     		mov	r7, r0
  53              		.loc 1 66 0
  54 0010 A679     		ldrb	r6, [r4, #6]
  57:D:/kuaipan/SEMG/MEMS_SEMG_KL25/KL25 Sample Code_I2c/KL25 Sample Code/kl25_sc_rev10/klxx-sc-baremetal/src/drivers/mcg\mcg.c **** {
  55              		.loc 1 57 0
  56 0012 1078     		ldrb	r0, [r2]
  57              	.LVL2:
  58 0014 8A46     		mov	sl, r1
  59              		.loc 1 66 0
  60 0016 3207     		lsl	r2, r6, #28
  57:D:/kuaipan/SEMG/MEMS_SEMG_KL25/KL25 Sample Code_I2c/KL25 Sample Code/kl25_sc_rev10/klxx-sc-baremetal/src/drivers/mcg\mcg.c **** {
  61              		.loc 1 57 0
  62 0018 41B2     		sxtb	r1, r0
  63              	.LVL3:
  64 001a 8946     		mov	r9, r1
  67:D:/kuaipan/SEMG/MEMS_SEMG_KL25/KL25 Sample Code_I2c/KL25 Sample Code/kl25_sc_rev10/klxx-sc-baremetal/src/drivers/mcg\mcg.c ****       (MCG_S & MCG_S_IREFST_MASK) &&                                  // check FLL ref is internal 
  68:D:/kuaipan/SEMG/MEMS_SEMG_KL25/KL25 Sample Code_I2c/KL25 Sample Code/kl25_sc_rev10/klxx-sc-baremetal/src/drivers/mcg\mcg.c ****       (!(MCG_S & MCG_S_PLLST_MASK))))                                 // check PLLS mux has selecte
  69:D:/kuaipan/SEMG/MEMS_SEMG_KL25/KL25 Sample Code_I2c/KL25 Sample Code/kl25_sc_rev10/klxx-sc-baremetal/src/drivers/mcg\mcg.c ****   {
  70:D:/kuaipan/SEMG/MEMS_SEMG_KL25/KL25 Sample Code_I2c/KL25 Sample Code/kl25_sc_rev10/klxx-sc-baremetal/src/drivers/mcg\mcg.c ****     return 0x1;                                                     // return error code
  65              		.loc 1 70 0
  66 001c 0120     		mov	r0, #1
  66:D:/kuaipan/SEMG/MEMS_SEMG_KL25/KL25 Sample Code_I2c/KL25 Sample Code/kl25_sc_rev10/klxx-sc-baremetal/src/drivers/mcg\mcg.c ****   if (!((((MCG_S & MCG_S_CLKST_MASK) >> MCG_S_CLKST_SHIFT) == 0x0) && // check CLKS mux has selcted
  67              		.loc 1 66 0
  68 001e 910F     		lsr	r1, r2, #30
  69 0020 09D1     		bne	.L2
  67:D:/kuaipan/SEMG/MEMS_SEMG_KL25/KL25 Sample Code_I2c/KL25 Sample Code/kl25_sc_rev10/klxx-sc-baremetal/src/drivers/mcg\mcg.c ****       (MCG_S & MCG_S_IREFST_MASK) &&                                  // check FLL ref is internal 
  70              		.loc 1 67 0
  71 0022 A679     		ldrb	r6, [r4, #6]
  66:D:/kuaipan/SEMG/MEMS_SEMG_KL25/KL25 Sample Code_I2c/KL25 Sample Code/kl25_sc_rev10/klxx-sc-baremetal/src/drivers/mcg\mcg.c ****   if (!((((MCG_S & MCG_S_CLKST_MASK) >> MCG_S_CLKST_SHIFT) == 0x0) && // check CLKS mux has selcted
  72              		.loc 1 66 0
  73 0024 F106     		lsl	r1, r6, #27
  74 0026 06D5     		bpl	.L2
  68:D:/kuaipan/SEMG/MEMS_SEMG_KL25/KL25 Sample Code_I2c/KL25 Sample Code/kl25_sc_rev10/klxx-sc-baremetal/src/drivers/mcg\mcg.c ****       (!(MCG_S & MCG_S_PLLST_MASK))))                                 // check PLLS mux has selecte
  75              		.loc 1 68 0
  76 0028 A479     		ldrb	r4, [r4, #6]
  66:D:/kuaipan/SEMG/MEMS_SEMG_KL25/KL25 Sample Code_I2c/KL25 Sample Code/kl25_sc_rev10/klxx-sc-baremetal/src/drivers/mcg\mcg.c ****   if (!((((MCG_S & MCG_S_CLKST_MASK) >> MCG_S_CLKST_SHIFT) == 0x0) && // check CLKS mux has selcted
  77              		.loc 1 66 0
  78 002a A106     		lsl	r1, r4, #26
  79 002c 03D4     		bmi	.L2
  71:D:/kuaipan/SEMG/MEMS_SEMG_KL25/KL25 Sample Code_I2c/KL25 Sample Code/kl25_sc_rev10/klxx-sc-baremetal/src/drivers/mcg\mcg.c ****   }
  72:D:/kuaipan/SEMG/MEMS_SEMG_KL25/KL25 Sample Code_I2c/KL25 Sample Code/kl25_sc_rev10/klxx-sc-baremetal/src/drivers/mcg\mcg.c **** 
  73:D:/kuaipan/SEMG/MEMS_SEMG_KL25/KL25 Sample Code_I2c/KL25 Sample Code/kl25_sc_rev10/klxx-sc-baremetal/src/drivers/mcg\mcg.c ****   // check external frequency is less than the maximum frequency
  74:D:/kuaipan/SEMG/MEMS_SEMG_KL25/KL25 Sample Code_I2c/KL25 Sample Code/kl25_sc_rev10/klxx-sc-baremetal/src/drivers/mcg\mcg.c ****   if  (crystal_val > 50000000) {return 0x21;}
  80              		.loc 1 74 0
  81 002e 8A4A     		ldr	r2, .L90+4
  82 0030 2120     		mov	r0, #33
  83 0032 9742     		cmp	r7, r2
  84 0034 03DD     		ble	.L82
  85              	.LVL4:
  86              	.L2:
  75:D:/kuaipan/SEMG/MEMS_SEMG_KL25/KL25 Sample Code_I2c/KL25 Sample Code/kl25_sc_rev10/klxx-sc-baremetal/src/drivers/mcg\mcg.c **** 
  76:D:/kuaipan/SEMG/MEMS_SEMG_KL25/KL25 Sample Code_I2c/KL25 Sample Code/kl25_sc_rev10/klxx-sc-baremetal/src/drivers/mcg\mcg.c ****   // check crystal frequency is within spec. if crystal osc is being used as PLL ref
  77:D:/kuaipan/SEMG/MEMS_SEMG_KL25/KL25 Sample Code_I2c/KL25 Sample Code/kl25_sc_rev10/klxx-sc-baremetal/src/drivers/mcg\mcg.c ****   if (erefs_val)
  78:D:/kuaipan/SEMG/MEMS_SEMG_KL25/KL25 Sample Code_I2c/KL25 Sample Code/kl25_sc_rev10/klxx-sc-baremetal/src/drivers/mcg\mcg.c ****   {
  79:D:/kuaipan/SEMG/MEMS_SEMG_KL25/KL25 Sample Code_I2c/KL25 Sample Code/kl25_sc_rev10/klxx-sc-baremetal/src/drivers/mcg\mcg.c ****     if ((crystal_val < 3000000) || (crystal_val > 32000000)) {return 0x22;} // return 1 if one of t
  80:D:/kuaipan/SEMG/MEMS_SEMG_KL25/KL25 Sample Code_I2c/KL25 Sample Code/kl25_sc_rev10/klxx-sc-baremetal/src/drivers/mcg\mcg.c ****   }
  81:D:/kuaipan/SEMG/MEMS_SEMG_KL25/KL25 Sample Code_I2c/KL25 Sample Code/kl25_sc_rev10/klxx-sc-baremetal/src/drivers/mcg\mcg.c **** 
  82:D:/kuaipan/SEMG/MEMS_SEMG_KL25/KL25 Sample Code_I2c/KL25 Sample Code/kl25_sc_rev10/klxx-sc-baremetal/src/drivers/mcg\mcg.c ****   // make sure HGO will never be greater than 1. Could return an error instead if desired.
  83:D:/kuaipan/SEMG/MEMS_SEMG_KL25/KL25 Sample Code_I2c/KL25 Sample Code/kl25_sc_rev10/klxx-sc-baremetal/src/drivers/mcg\mcg.c ****   if (hgo_val > 0)
  84:D:/kuaipan/SEMG/MEMS_SEMG_KL25/KL25 Sample Code_I2c/KL25 Sample Code/kl25_sc_rev10/klxx-sc-baremetal/src/drivers/mcg\mcg.c ****   {
  85:D:/kuaipan/SEMG/MEMS_SEMG_KL25/KL25 Sample Code_I2c/KL25 Sample Code/kl25_sc_rev10/klxx-sc-baremetal/src/drivers/mcg\mcg.c ****     hgo_val = 1; // force hgo_val to 1 if > 0
  86:D:/kuaipan/SEMG/MEMS_SEMG_KL25/KL25 Sample Code_I2c/KL25 Sample Code/kl25_sc_rev10/klxx-sc-baremetal/src/drivers/mcg\mcg.c ****   }
  87:D:/kuaipan/SEMG/MEMS_SEMG_KL25/KL25 Sample Code_I2c/KL25 Sample Code/kl25_sc_rev10/klxx-sc-baremetal/src/drivers/mcg\mcg.c **** 
  88:D:/kuaipan/SEMG/MEMS_SEMG_KL25/KL25 Sample Code_I2c/KL25 Sample Code/kl25_sc_rev10/klxx-sc-baremetal/src/drivers/mcg\mcg.c ****   // Check PLL divider settings are within spec.
  89:D:/kuaipan/SEMG/MEMS_SEMG_KL25/KL25 Sample Code_I2c/KL25 Sample Code/kl25_sc_rev10/klxx-sc-baremetal/src/drivers/mcg\mcg.c ****   if ((prdiv_val < 1) || (prdiv_val > 25)) {return 0x41;}
  90:D:/kuaipan/SEMG/MEMS_SEMG_KL25/KL25 Sample Code_I2c/KL25 Sample Code/kl25_sc_rev10/klxx-sc-baremetal/src/drivers/mcg\mcg.c ****   if ((vdiv_val < 24) || (vdiv_val > 50)) {return 0x42;}
  91:D:/kuaipan/SEMG/MEMS_SEMG_KL25/KL25 Sample Code_I2c/KL25 Sample Code/kl25_sc_rev10/klxx-sc-baremetal/src/drivers/mcg\mcg.c **** 
  92:D:/kuaipan/SEMG/MEMS_SEMG_KL25/KL25 Sample Code_I2c/KL25 Sample Code/kl25_sc_rev10/klxx-sc-baremetal/src/drivers/mcg\mcg.c ****   // Check PLL reference clock frequency is within spec.
  93:D:/kuaipan/SEMG/MEMS_SEMG_KL25/KL25 Sample Code_I2c/KL25 Sample Code/kl25_sc_rev10/klxx-sc-baremetal/src/drivers/mcg\mcg.c ****   ref_freq = crystal_val / prdiv_val;
  94:D:/kuaipan/SEMG/MEMS_SEMG_KL25/KL25 Sample Code_I2c/KL25 Sample Code/kl25_sc_rev10/klxx-sc-baremetal/src/drivers/mcg\mcg.c ****   if ((ref_freq < 2000000) || (ref_freq > 4000000)) {return 0x43;}
  95:D:/kuaipan/SEMG/MEMS_SEMG_KL25/KL25 Sample Code_I2c/KL25 Sample Code/kl25_sc_rev10/klxx-sc-baremetal/src/drivers/mcg\mcg.c **** 
  96:D:/kuaipan/SEMG/MEMS_SEMG_KL25/KL25 Sample Code_I2c/KL25 Sample Code/kl25_sc_rev10/klxx-sc-baremetal/src/drivers/mcg\mcg.c ****   // Check PLL output frequency is within spec.
  97:D:/kuaipan/SEMG/MEMS_SEMG_KL25/KL25 Sample Code_I2c/KL25 Sample Code/kl25_sc_rev10/klxx-sc-baremetal/src/drivers/mcg\mcg.c ****   pll_freq = (crystal_val / prdiv_val) * vdiv_val;
  98:D:/kuaipan/SEMG/MEMS_SEMG_KL25/KL25 Sample Code_I2c/KL25 Sample Code/kl25_sc_rev10/klxx-sc-baremetal/src/drivers/mcg\mcg.c ****   if ((pll_freq < 48000000) || (pll_freq > 100000000)) {return 0x45;}
  99:D:/kuaipan/SEMG/MEMS_SEMG_KL25/KL25 Sample Code_I2c/KL25 Sample Code/kl25_sc_rev10/klxx-sc-baremetal/src/drivers/mcg\mcg.c **** 
 100:D:/kuaipan/SEMG/MEMS_SEMG_KL25/KL25 Sample Code_I2c/KL25 Sample Code/kl25_sc_rev10/klxx-sc-baremetal/src/drivers/mcg\mcg.c ****   // configure the MCG_C2 register
 101:D:/kuaipan/SEMG/MEMS_SEMG_KL25/KL25 Sample Code_I2c/KL25 Sample Code/kl25_sc_rev10/klxx-sc-baremetal/src/drivers/mcg\mcg.c ****   // the RANGE value is determined by the external frequency. Since the RANGE parameter affects the
 102:D:/kuaipan/SEMG/MEMS_SEMG_KL25/KL25 Sample Code_I2c/KL25 Sample Code/kl25_sc_rev10/klxx-sc-baremetal/src/drivers/mcg\mcg.c ****   // it still needs to be set correctly even if the oscillator is not being used
 103:D:/kuaipan/SEMG/MEMS_SEMG_KL25/KL25 Sample Code_I2c/KL25 Sample Code/kl25_sc_rev10/klxx-sc-baremetal/src/drivers/mcg\mcg.c ****       
 104:D:/kuaipan/SEMG/MEMS_SEMG_KL25/KL25 Sample Code_I2c/KL25 Sample Code/kl25_sc_rev10/klxx-sc-baremetal/src/drivers/mcg\mcg.c ****   temp_reg = MCG_C2;
 105:D:/kuaipan/SEMG/MEMS_SEMG_KL25/KL25 Sample Code_I2c/KL25 Sample Code/kl25_sc_rev10/klxx-sc-baremetal/src/drivers/mcg\mcg.c ****   temp_reg &= ~(MCG_C2_RANGE0_MASK | MCG_C2_HGO0_MASK | MCG_C2_EREFS0_MASK); // clear fields before
 106:D:/kuaipan/SEMG/MEMS_SEMG_KL25/KL25 Sample Code_I2c/KL25 Sample Code/kl25_sc_rev10/klxx-sc-baremetal/src/drivers/mcg\mcg.c ****     
 107:D:/kuaipan/SEMG/MEMS_SEMG_KL25/KL25 Sample Code_I2c/KL25 Sample Code/kl25_sc_rev10/klxx-sc-baremetal/src/drivers/mcg\mcg.c ****   if (crystal_val <= 8000000)
 108:D:/kuaipan/SEMG/MEMS_SEMG_KL25/KL25 Sample Code_I2c/KL25 Sample Code/kl25_sc_rev10/klxx-sc-baremetal/src/drivers/mcg\mcg.c ****   {
 109:D:/kuaipan/SEMG/MEMS_SEMG_KL25/KL25 Sample Code_I2c/KL25 Sample Code/kl25_sc_rev10/klxx-sc-baremetal/src/drivers/mcg\mcg.c ****     temp_reg |= (MCG_C2_RANGE0(1) | (hgo_val << MCG_C2_HGO0_SHIFT) | (erefs_val << MCG_C2_EREFS0_SH
 110:D:/kuaipan/SEMG/MEMS_SEMG_KL25/KL25 Sample Code_I2c/KL25 Sample Code/kl25_sc_rev10/klxx-sc-baremetal/src/drivers/mcg\mcg.c ****   }
 111:D:/kuaipan/SEMG/MEMS_SEMG_KL25/KL25 Sample Code_I2c/KL25 Sample Code/kl25_sc_rev10/klxx-sc-baremetal/src/drivers/mcg\mcg.c ****   else
 112:D:/kuaipan/SEMG/MEMS_SEMG_KL25/KL25 Sample Code_I2c/KL25 Sample Code/kl25_sc_rev10/klxx-sc-baremetal/src/drivers/mcg\mcg.c ****   {
 113:D:/kuaipan/SEMG/MEMS_SEMG_KL25/KL25 Sample Code_I2c/KL25 Sample Code/kl25_sc_rev10/klxx-sc-baremetal/src/drivers/mcg\mcg.c ****     temp_reg |= (MCG_C2_RANGE0(2) | (hgo_val << MCG_C2_HGO0_SHIFT) | (erefs_val << MCG_C2_EREFS0_SH
 114:D:/kuaipan/SEMG/MEMS_SEMG_KL25/KL25 Sample Code_I2c/KL25 Sample Code/kl25_sc_rev10/klxx-sc-baremetal/src/drivers/mcg\mcg.c ****   }
 115:D:/kuaipan/SEMG/MEMS_SEMG_KL25/KL25 Sample Code_I2c/KL25 Sample Code/kl25_sc_rev10/klxx-sc-baremetal/src/drivers/mcg\mcg.c ****   MCG_C2 = temp_reg;
 116:D:/kuaipan/SEMG/MEMS_SEMG_KL25/KL25 Sample Code_I2c/KL25 Sample Code/kl25_sc_rev10/klxx-sc-baremetal/src/drivers/mcg\mcg.c ****   
 117:D:/kuaipan/SEMG/MEMS_SEMG_KL25/KL25 Sample Code_I2c/KL25 Sample Code/kl25_sc_rev10/klxx-sc-baremetal/src/drivers/mcg\mcg.c ****   // determine FRDIV based on reference clock frequency
 118:D:/kuaipan/SEMG/MEMS_SEMG_KL25/KL25 Sample Code_I2c/KL25 Sample Code/kl25_sc_rev10/klxx-sc-baremetal/src/drivers/mcg\mcg.c ****   // since the external frequency has already been checked only the maximum frequency for each FRDI
 119:D:/kuaipan/SEMG/MEMS_SEMG_KL25/KL25 Sample Code_I2c/KL25 Sample Code/kl25_sc_rev10/klxx-sc-baremetal/src/drivers/mcg\mcg.c ****   if (crystal_val <= 1250000) {frdiv_val = 0;}
 120:D:/kuaipan/SEMG/MEMS_SEMG_KL25/KL25 Sample Code_I2c/KL25 Sample Code/kl25_sc_rev10/klxx-sc-baremetal/src/drivers/mcg\mcg.c ****   else if (crystal_val <= 2500000) {frdiv_val = 1;}
 121:D:/kuaipan/SEMG/MEMS_SEMG_KL25/KL25 Sample Code_I2c/KL25 Sample Code/kl25_sc_rev10/klxx-sc-baremetal/src/drivers/mcg\mcg.c ****   else if (crystal_val <= 5000000) {frdiv_val = 2;}
 122:D:/kuaipan/SEMG/MEMS_SEMG_KL25/KL25 Sample Code_I2c/KL25 Sample Code/kl25_sc_rev10/klxx-sc-baremetal/src/drivers/mcg\mcg.c ****   else if (crystal_val <= 10000000) {frdiv_val = 3;}
 123:D:/kuaipan/SEMG/MEMS_SEMG_KL25/KL25 Sample Code_I2c/KL25 Sample Code/kl25_sc_rev10/klxx-sc-baremetal/src/drivers/mcg\mcg.c ****   else if (crystal_val <= 20000000) {frdiv_val = 4;}
 124:D:/kuaipan/SEMG/MEMS_SEMG_KL25/KL25 Sample Code_I2c/KL25 Sample Code/kl25_sc_rev10/klxx-sc-baremetal/src/drivers/mcg\mcg.c ****   else {frdiv_val = 5;}
 125:D:/kuaipan/SEMG/MEMS_SEMG_KL25/KL25 Sample Code_I2c/KL25 Sample Code/kl25_sc_rev10/klxx-sc-baremetal/src/drivers/mcg\mcg.c **** 
 126:D:/kuaipan/SEMG/MEMS_SEMG_KL25/KL25 Sample Code_I2c/KL25 Sample Code/kl25_sc_rev10/klxx-sc-baremetal/src/drivers/mcg\mcg.c ****   // Select external oscillator and Reference Divider and clear IREFS to start ext osc
 127:D:/kuaipan/SEMG/MEMS_SEMG_KL25/KL25 Sample Code_I2c/KL25 Sample Code/kl25_sc_rev10/klxx-sc-baremetal/src/drivers/mcg\mcg.c ****   // If IRCLK is required it must be enabled outside of this driver, existing state will be maintai
 128:D:/kuaipan/SEMG/MEMS_SEMG_KL25/KL25 Sample Code_I2c/KL25 Sample Code/kl25_sc_rev10/klxx-sc-baremetal/src/drivers/mcg\mcg.c ****   // CLKS=2, FRDIV=frdiv_val, IREFS=0, IRCLKEN=0, IREFSTEN=0
 129:D:/kuaipan/SEMG/MEMS_SEMG_KL25/KL25 Sample Code_I2c/KL25 Sample Code/kl25_sc_rev10/klxx-sc-baremetal/src/drivers/mcg\mcg.c ****   temp_reg = MCG_C1;
 130:D:/kuaipan/SEMG/MEMS_SEMG_KL25/KL25 Sample Code_I2c/KL25 Sample Code/kl25_sc_rev10/klxx-sc-baremetal/src/drivers/mcg\mcg.c ****   temp_reg &= ~(MCG_C1_CLKS_MASK | MCG_C1_FRDIV_MASK | MCG_C1_IREFS_MASK); // Clear values in these
 131:D:/kuaipan/SEMG/MEMS_SEMG_KL25/KL25 Sample Code_I2c/KL25 Sample Code/kl25_sc_rev10/klxx-sc-baremetal/src/drivers/mcg\mcg.c ****   temp_reg |= (MCG_C1_CLKS(2) | MCG_C1_FRDIV(frdiv_val)); // Set the required CLKS and FRDIV values
 132:D:/kuaipan/SEMG/MEMS_SEMG_KL25/KL25 Sample Code_I2c/KL25 Sample Code/kl25_sc_rev10/klxx-sc-baremetal/src/drivers/mcg\mcg.c ****   MCG_C1 = temp_reg;
 133:D:/kuaipan/SEMG/MEMS_SEMG_KL25/KL25 Sample Code_I2c/KL25 Sample Code/kl25_sc_rev10/klxx-sc-baremetal/src/drivers/mcg\mcg.c **** 
 134:D:/kuaipan/SEMG/MEMS_SEMG_KL25/KL25 Sample Code_I2c/KL25 Sample Code/kl25_sc_rev10/klxx-sc-baremetal/src/drivers/mcg\mcg.c ****   // if the external oscillator is used need to wait for OSCINIT to set
 135:D:/kuaipan/SEMG/MEMS_SEMG_KL25/KL25 Sample Code_I2c/KL25 Sample Code/kl25_sc_rev10/klxx-sc-baremetal/src/drivers/mcg\mcg.c ****   if (erefs_val)
 136:D:/kuaipan/SEMG/MEMS_SEMG_KL25/KL25 Sample Code_I2c/KL25 Sample Code/kl25_sc_rev10/klxx-sc-baremetal/src/drivers/mcg\mcg.c ****   {
 137:D:/kuaipan/SEMG/MEMS_SEMG_KL25/KL25 Sample Code_I2c/KL25 Sample Code/kl25_sc_rev10/klxx-sc-baremetal/src/drivers/mcg\mcg.c ****     for (i = 0 ; i < 20000 ; i++)
 138:D:/kuaipan/SEMG/MEMS_SEMG_KL25/KL25 Sample Code_I2c/KL25 Sample Code/kl25_sc_rev10/klxx-sc-baremetal/src/drivers/mcg\mcg.c ****     {
 139:D:/kuaipan/SEMG/MEMS_SEMG_KL25/KL25 Sample Code_I2c/KL25 Sample Code/kl25_sc_rev10/klxx-sc-baremetal/src/drivers/mcg\mcg.c ****       if (MCG_S & MCG_S_OSCINIT0_MASK) break; // jump out early if OSCINIT sets before loop finishe
 140:D:/kuaipan/SEMG/MEMS_SEMG_KL25/KL25 Sample Code_I2c/KL25 Sample Code/kl25_sc_rev10/klxx-sc-baremetal/src/drivers/mcg\mcg.c ****     }
 141:D:/kuaipan/SEMG/MEMS_SEMG_KL25/KL25 Sample Code_I2c/KL25 Sample Code/kl25_sc_rev10/klxx-sc-baremetal/src/drivers/mcg\mcg.c ****   if (!(MCG_S & MCG_S_OSCINIT0_MASK)) return 0x23; // check bit is really set and return with error
 142:D:/kuaipan/SEMG/MEMS_SEMG_KL25/KL25 Sample Code_I2c/KL25 Sample Code/kl25_sc_rev10/klxx-sc-baremetal/src/drivers/mcg\mcg.c ****   }
 143:D:/kuaipan/SEMG/MEMS_SEMG_KL25/KL25 Sample Code_I2c/KL25 Sample Code/kl25_sc_rev10/klxx-sc-baremetal/src/drivers/mcg\mcg.c **** 
 144:D:/kuaipan/SEMG/MEMS_SEMG_KL25/KL25 Sample Code_I2c/KL25 Sample Code/kl25_sc_rev10/klxx-sc-baremetal/src/drivers/mcg\mcg.c ****   // wait for Reference clock Status bit to clear
 145:D:/kuaipan/SEMG/MEMS_SEMG_KL25/KL25 Sample Code_I2c/KL25 Sample Code/kl25_sc_rev10/klxx-sc-baremetal/src/drivers/mcg\mcg.c ****   for (i = 0 ; i < 2000 ; i++)
 146:D:/kuaipan/SEMG/MEMS_SEMG_KL25/KL25 Sample Code_I2c/KL25 Sample Code/kl25_sc_rev10/klxx-sc-baremetal/src/drivers/mcg\mcg.c ****   {
 147:D:/kuaipan/SEMG/MEMS_SEMG_KL25/KL25 Sample Code_I2c/KL25 Sample Code/kl25_sc_rev10/klxx-sc-baremetal/src/drivers/mcg\mcg.c ****     if (!(MCG_S & MCG_S_IREFST_MASK)) break; // jump out early if IREFST clears before loop finishe
 148:D:/kuaipan/SEMG/MEMS_SEMG_KL25/KL25 Sample Code_I2c/KL25 Sample Code/kl25_sc_rev10/klxx-sc-baremetal/src/drivers/mcg\mcg.c ****   }
 149:D:/kuaipan/SEMG/MEMS_SEMG_KL25/KL25 Sample Code_I2c/KL25 Sample Code/kl25_sc_rev10/klxx-sc-baremetal/src/drivers/mcg\mcg.c ****   if (MCG_S & MCG_S_IREFST_MASK) return 0x11; // check bit is really clear and return with error if
 150:D:/kuaipan/SEMG/MEMS_SEMG_KL25/KL25 Sample Code_I2c/KL25 Sample Code/kl25_sc_rev10/klxx-sc-baremetal/src/drivers/mcg\mcg.c **** 
 151:D:/kuaipan/SEMG/MEMS_SEMG_KL25/KL25 Sample Code_I2c/KL25 Sample Code/kl25_sc_rev10/klxx-sc-baremetal/src/drivers/mcg\mcg.c ****   // Wait for clock status bits to show clock source is ext ref clk
 152:D:/kuaipan/SEMG/MEMS_SEMG_KL25/KL25 Sample Code_I2c/KL25 Sample Code/kl25_sc_rev10/klxx-sc-baremetal/src/drivers/mcg\mcg.c ****   for (i = 0 ; i < 2000 ; i++)
 153:D:/kuaipan/SEMG/MEMS_SEMG_KL25/KL25 Sample Code_I2c/KL25 Sample Code/kl25_sc_rev10/klxx-sc-baremetal/src/drivers/mcg\mcg.c ****   {
 154:D:/kuaipan/SEMG/MEMS_SEMG_KL25/KL25 Sample Code_I2c/KL25 Sample Code/kl25_sc_rev10/klxx-sc-baremetal/src/drivers/mcg\mcg.c ****     if (((MCG_S & MCG_S_CLKST_MASK) >> MCG_S_CLKST_SHIFT) == 0x2) break; // jump out early if CLKST
 155:D:/kuaipan/SEMG/MEMS_SEMG_KL25/KL25 Sample Code_I2c/KL25 Sample Code/kl25_sc_rev10/klxx-sc-baremetal/src/drivers/mcg\mcg.c ****   }
 156:D:/kuaipan/SEMG/MEMS_SEMG_KL25/KL25 Sample Code_I2c/KL25 Sample Code/kl25_sc_rev10/klxx-sc-baremetal/src/drivers/mcg\mcg.c ****   if (((MCG_S & MCG_S_CLKST_MASK) >> MCG_S_CLKST_SHIFT) != 0x2) return 0x1A; // check EXT CLK is re
 157:D:/kuaipan/SEMG/MEMS_SEMG_KL25/KL25 Sample Code_I2c/KL25 Sample Code/kl25_sc_rev10/klxx-sc-baremetal/src/drivers/mcg\mcg.c **** 
 158:D:/kuaipan/SEMG/MEMS_SEMG_KL25/KL25 Sample Code_I2c/KL25 Sample Code/kl25_sc_rev10/klxx-sc-baremetal/src/drivers/mcg\mcg.c ****   // Now in FBE
 159:D:/kuaipan/SEMG/MEMS_SEMG_KL25/KL25 Sample Code_I2c/KL25 Sample Code/kl25_sc_rev10/klxx-sc-baremetal/src/drivers/mcg\mcg.c ****   // It is recommended that the clock monitor is enabled when using an external clock as the clock 
 160:D:/kuaipan/SEMG/MEMS_SEMG_KL25/KL25 Sample Code_I2c/KL25 Sample Code/kl25_sc_rev10/klxx-sc-baremetal/src/drivers/mcg\mcg.c ****   // It is enabled here but can be removed if this is not required.
 161:D:/kuaipan/SEMG/MEMS_SEMG_KL25/KL25 Sample Code_I2c/KL25 Sample Code/kl25_sc_rev10/klxx-sc-baremetal/src/drivers/mcg\mcg.c ****   MCG_C6 |= MCG_C6_CME0_MASK;
 162:D:/kuaipan/SEMG/MEMS_SEMG_KL25/KL25 Sample Code_I2c/KL25 Sample Code/kl25_sc_rev10/klxx-sc-baremetal/src/drivers/mcg\mcg.c ****   
 163:D:/kuaipan/SEMG/MEMS_SEMG_KL25/KL25 Sample Code_I2c/KL25 Sample Code/kl25_sc_rev10/klxx-sc-baremetal/src/drivers/mcg\mcg.c ****   // Configure PLL
 164:D:/kuaipan/SEMG/MEMS_SEMG_KL25/KL25 Sample Code_I2c/KL25 Sample Code/kl25_sc_rev10/klxx-sc-baremetal/src/drivers/mcg\mcg.c ****   // Configure MCG_C5
 165:D:/kuaipan/SEMG/MEMS_SEMG_KL25/KL25 Sample Code_I2c/KL25 Sample Code/kl25_sc_rev10/klxx-sc-baremetal/src/drivers/mcg\mcg.c ****   // If the PLL is to run in STOP mode then the PLLSTEN bit needs to be OR'ed in here or in user co
 166:D:/kuaipan/SEMG/MEMS_SEMG_KL25/KL25 Sample Code_I2c/KL25 Sample Code/kl25_sc_rev10/klxx-sc-baremetal/src/drivers/mcg\mcg.c ****   temp_reg = MCG_C5;
 167:D:/kuaipan/SEMG/MEMS_SEMG_KL25/KL25 Sample Code_I2c/KL25 Sample Code/kl25_sc_rev10/klxx-sc-baremetal/src/drivers/mcg\mcg.c ****   temp_reg &= ~MCG_C5_PRDIV0_MASK;
 168:D:/kuaipan/SEMG/MEMS_SEMG_KL25/KL25 Sample Code_I2c/KL25 Sample Code/kl25_sc_rev10/klxx-sc-baremetal/src/drivers/mcg\mcg.c ****   temp_reg |= MCG_C5_PRDIV0(prdiv_val - 1);    //set PLL ref divider
 169:D:/kuaipan/SEMG/MEMS_SEMG_KL25/KL25 Sample Code_I2c/KL25 Sample Code/kl25_sc_rev10/klxx-sc-baremetal/src/drivers/mcg\mcg.c ****   MCG_C5 = temp_reg;
 170:D:/kuaipan/SEMG/MEMS_SEMG_KL25/KL25 Sample Code_I2c/KL25 Sample Code/kl25_sc_rev10/klxx-sc-baremetal/src/drivers/mcg\mcg.c **** 
 171:D:/kuaipan/SEMG/MEMS_SEMG_KL25/KL25 Sample Code_I2c/KL25 Sample Code/kl25_sc_rev10/klxx-sc-baremetal/src/drivers/mcg\mcg.c ****   // Configure MCG_C6
 172:D:/kuaipan/SEMG/MEMS_SEMG_KL25/KL25 Sample Code_I2c/KL25 Sample Code/kl25_sc_rev10/klxx-sc-baremetal/src/drivers/mcg\mcg.c ****   // The PLLS bit is set to enable the PLL, MCGOUT still sourced from ext ref clk
 173:D:/kuaipan/SEMG/MEMS_SEMG_KL25/KL25 Sample Code_I2c/KL25 Sample Code/kl25_sc_rev10/klxx-sc-baremetal/src/drivers/mcg\mcg.c ****   // The loss of lock interrupt can be enabled by seperately OR'ing in the LOLIE bit in MCG_C6
 174:D:/kuaipan/SEMG/MEMS_SEMG_KL25/KL25 Sample Code_I2c/KL25 Sample Code/kl25_sc_rev10/klxx-sc-baremetal/src/drivers/mcg\mcg.c ****   temp_reg = MCG_C6; // store present C6 value
 175:D:/kuaipan/SEMG/MEMS_SEMG_KL25/KL25 Sample Code_I2c/KL25 Sample Code/kl25_sc_rev10/klxx-sc-baremetal/src/drivers/mcg\mcg.c ****   temp_reg &= ~MCG_C6_VDIV0_MASK; // clear VDIV settings
 176:D:/kuaipan/SEMG/MEMS_SEMG_KL25/KL25 Sample Code_I2c/KL25 Sample Code/kl25_sc_rev10/klxx-sc-baremetal/src/drivers/mcg\mcg.c ****   temp_reg |= MCG_C6_PLLS_MASK | MCG_C6_VDIV0(vdiv_val - 24); // write new VDIV and enable PLL
 177:D:/kuaipan/SEMG/MEMS_SEMG_KL25/KL25 Sample Code_I2c/KL25 Sample Code/kl25_sc_rev10/klxx-sc-baremetal/src/drivers/mcg\mcg.c ****   MCG_C6 = temp_reg; // update MCG_C6
 178:D:/kuaipan/SEMG/MEMS_SEMG_KL25/KL25 Sample Code_I2c/KL25 Sample Code/kl25_sc_rev10/klxx-sc-baremetal/src/drivers/mcg\mcg.c **** 
 179:D:/kuaipan/SEMG/MEMS_SEMG_KL25/KL25 Sample Code_I2c/KL25 Sample Code/kl25_sc_rev10/klxx-sc-baremetal/src/drivers/mcg\mcg.c ****   // wait for PLLST status bit to set
 180:D:/kuaipan/SEMG/MEMS_SEMG_KL25/KL25 Sample Code_I2c/KL25 Sample Code/kl25_sc_rev10/klxx-sc-baremetal/src/drivers/mcg\mcg.c ****   for (i = 0 ; i < 2000 ; i++)
 181:D:/kuaipan/SEMG/MEMS_SEMG_KL25/KL25 Sample Code_I2c/KL25 Sample Code/kl25_sc_rev10/klxx-sc-baremetal/src/drivers/mcg\mcg.c ****   {
 182:D:/kuaipan/SEMG/MEMS_SEMG_KL25/KL25 Sample Code_I2c/KL25 Sample Code/kl25_sc_rev10/klxx-sc-baremetal/src/drivers/mcg\mcg.c ****     if (MCG_S & MCG_S_PLLST_MASK) break; // jump out early if PLLST sets before loop finishes
 183:D:/kuaipan/SEMG/MEMS_SEMG_KL25/KL25 Sample Code_I2c/KL25 Sample Code/kl25_sc_rev10/klxx-sc-baremetal/src/drivers/mcg\mcg.c ****   }
 184:D:/kuaipan/SEMG/MEMS_SEMG_KL25/KL25 Sample Code_I2c/KL25 Sample Code/kl25_sc_rev10/klxx-sc-baremetal/src/drivers/mcg\mcg.c ****   if (!(MCG_S & MCG_S_PLLST_MASK)) return 0x16; // check bit is really set and return with error if
 185:D:/kuaipan/SEMG/MEMS_SEMG_KL25/KL25 Sample Code_I2c/KL25 Sample Code/kl25_sc_rev10/klxx-sc-baremetal/src/drivers/mcg\mcg.c **** 
 186:D:/kuaipan/SEMG/MEMS_SEMG_KL25/KL25 Sample Code_I2c/KL25 Sample Code/kl25_sc_rev10/klxx-sc-baremetal/src/drivers/mcg\mcg.c ****   // Wait for LOCK bit to set
 187:D:/kuaipan/SEMG/MEMS_SEMG_KL25/KL25 Sample Code_I2c/KL25 Sample Code/kl25_sc_rev10/klxx-sc-baremetal/src/drivers/mcg\mcg.c ****   for (i = 0 ; i < 4000 ; i++)
 188:D:/kuaipan/SEMG/MEMS_SEMG_KL25/KL25 Sample Code_I2c/KL25 Sample Code/kl25_sc_rev10/klxx-sc-baremetal/src/drivers/mcg\mcg.c ****   {
 189:D:/kuaipan/SEMG/MEMS_SEMG_KL25/KL25 Sample Code_I2c/KL25 Sample Code/kl25_sc_rev10/klxx-sc-baremetal/src/drivers/mcg\mcg.c ****     if (MCG_S & MCG_S_LOCK0_MASK) break; // jump out early if LOCK sets before loop finishes
 190:D:/kuaipan/SEMG/MEMS_SEMG_KL25/KL25 Sample Code_I2c/KL25 Sample Code/kl25_sc_rev10/klxx-sc-baremetal/src/drivers/mcg\mcg.c ****   }
 191:D:/kuaipan/SEMG/MEMS_SEMG_KL25/KL25 Sample Code_I2c/KL25 Sample Code/kl25_sc_rev10/klxx-sc-baremetal/src/drivers/mcg\mcg.c ****   if (!(MCG_S & MCG_S_LOCK0_MASK)) return 0x44; // check bit is really set and return with error if
 192:D:/kuaipan/SEMG/MEMS_SEMG_KL25/KL25 Sample Code_I2c/KL25 Sample Code/kl25_sc_rev10/klxx-sc-baremetal/src/drivers/mcg\mcg.c **** 
 193:D:/kuaipan/SEMG/MEMS_SEMG_KL25/KL25 Sample Code_I2c/KL25 Sample Code/kl25_sc_rev10/klxx-sc-baremetal/src/drivers/mcg\mcg.c ****   // Use actual PLL settings to calculate PLL frequency
 194:D:/kuaipan/SEMG/MEMS_SEMG_KL25/KL25 Sample Code_I2c/KL25 Sample Code/kl25_sc_rev10/klxx-sc-baremetal/src/drivers/mcg\mcg.c ****   prdiv = ((MCG_C5 & MCG_C5_PRDIV0_MASK) + 1);
 195:D:/kuaipan/SEMG/MEMS_SEMG_KL25/KL25 Sample Code_I2c/KL25 Sample Code/kl25_sc_rev10/klxx-sc-baremetal/src/drivers/mcg\mcg.c ****   vdiv = ((MCG_C6 & MCG_C6_VDIV0_MASK) + 24);
 196:D:/kuaipan/SEMG/MEMS_SEMG_KL25/KL25 Sample Code_I2c/KL25 Sample Code/kl25_sc_rev10/klxx-sc-baremetal/src/drivers/mcg\mcg.c **** 
 197:D:/kuaipan/SEMG/MEMS_SEMG_KL25/KL25 Sample Code_I2c/KL25 Sample Code/kl25_sc_rev10/klxx-sc-baremetal/src/drivers/mcg\mcg.c ****   // now in PBE
 198:D:/kuaipan/SEMG/MEMS_SEMG_KL25/KL25 Sample Code_I2c/KL25 Sample Code/kl25_sc_rev10/klxx-sc-baremetal/src/drivers/mcg\mcg.c **** 
 199:D:/kuaipan/SEMG/MEMS_SEMG_KL25/KL25 Sample Code_I2c/KL25 Sample Code/kl25_sc_rev10/klxx-sc-baremetal/src/drivers/mcg\mcg.c ****   MCG_C1 &= ~MCG_C1_CLKS_MASK; // clear CLKS to switch CLKS mux to select PLL as MCG_OUT
 200:D:/kuaipan/SEMG/MEMS_SEMG_KL25/KL25 Sample Code_I2c/KL25 Sample Code/kl25_sc_rev10/klxx-sc-baremetal/src/drivers/mcg\mcg.c **** 
 201:D:/kuaipan/SEMG/MEMS_SEMG_KL25/KL25 Sample Code_I2c/KL25 Sample Code/kl25_sc_rev10/klxx-sc-baremetal/src/drivers/mcg\mcg.c ****   // Wait for clock status bits to update
 202:D:/kuaipan/SEMG/MEMS_SEMG_KL25/KL25 Sample Code_I2c/KL25 Sample Code/kl25_sc_rev10/klxx-sc-baremetal/src/drivers/mcg\mcg.c ****   for (i = 0 ; i < 2000 ; i++)
 203:D:/kuaipan/SEMG/MEMS_SEMG_KL25/KL25 Sample Code_I2c/KL25 Sample Code/kl25_sc_rev10/klxx-sc-baremetal/src/drivers/mcg\mcg.c ****   {
 204:D:/kuaipan/SEMG/MEMS_SEMG_KL25/KL25 Sample Code_I2c/KL25 Sample Code/kl25_sc_rev10/klxx-sc-baremetal/src/drivers/mcg\mcg.c ****     if (((MCG_S & MCG_S_CLKST_MASK) >> MCG_S_CLKST_SHIFT) == 0x3) break; // jump out early if CLKST
 205:D:/kuaipan/SEMG/MEMS_SEMG_KL25/KL25 Sample Code_I2c/KL25 Sample Code/kl25_sc_rev10/klxx-sc-baremetal/src/drivers/mcg\mcg.c ****   }
 206:D:/kuaipan/SEMG/MEMS_SEMG_KL25/KL25 Sample Code_I2c/KL25 Sample Code/kl25_sc_rev10/klxx-sc-baremetal/src/drivers/mcg\mcg.c ****   if (((MCG_S & MCG_S_CLKST_MASK) >> MCG_S_CLKST_SHIFT) != 0x3) return 0x1B; // check CLKST is set 
 207:D:/kuaipan/SEMG/MEMS_SEMG_KL25/KL25 Sample Code_I2c/KL25 Sample Code/kl25_sc_rev10/klxx-sc-baremetal/src/drivers/mcg\mcg.c **** 
 208:D:/kuaipan/SEMG/MEMS_SEMG_KL25/KL25 Sample Code_I2c/KL25 Sample Code/kl25_sc_rev10/klxx-sc-baremetal/src/drivers/mcg\mcg.c ****   // Now in PEE
 209:D:/kuaipan/SEMG/MEMS_SEMG_KL25/KL25 Sample Code_I2c/KL25 Sample Code/kl25_sc_rev10/klxx-sc-baremetal/src/drivers/mcg\mcg.c ****   
 210:D:/kuaipan/SEMG/MEMS_SEMG_KL25/KL25 Sample Code_I2c/KL25 Sample Code/kl25_sc_rev10/klxx-sc-baremetal/src/drivers/mcg\mcg.c ****   return ((crystal_val / prdiv) * vdiv); //MCGOUT equals PLL output frequency
 211:D:/kuaipan/SEMG/MEMS_SEMG_KL25/KL25 Sample Code_I2c/KL25 Sample Code/kl25_sc_rev10/klxx-sc-baremetal/src/drivers/mcg\mcg.c **** } // pll_init
  87              		.loc 1 211 0
  88              		@ sp needed for prologue
  89              	.LVL5:
  90 0036 0CBC     		pop	{r2, r3}
  91 0038 9146     		mov	r9, r2
  92 003a 9A46     		mov	sl, r3
  93 003c F8BD     		pop	{r3, r4, r5, r6, r7, pc}
  94              	.LVL6:
  95              	.L82:
  77:D:/kuaipan/SEMG/MEMS_SEMG_KL25/KL25 Sample Code_I2c/KL25 Sample Code/kl25_sc_rev10/klxx-sc-baremetal/src/drivers/mcg\mcg.c ****   if (erefs_val)
  96              		.loc 1 77 0
  97 003e 002D     		cmp	r5, #0
  98 0040 00D0     		beq	.LCB94
  99 0042 E0E0     		b	.L83	@long jump
 100              	.LCB94:
 101              	.L3:
 102              	.LVL7:
  89:D:/kuaipan/SEMG/MEMS_SEMG_KL25/KL25 Sample Code_I2c/KL25 Sample Code/kl25_sc_rev10/klxx-sc-baremetal/src/drivers/mcg\mcg.c ****   if ((prdiv_val < 1) || (prdiv_val > 25)) {return 0x41;}
 103              		.loc 1 89 0
 104 0044 5C1E     		sub	r4, r3, #1
 105 0046 E4B2     		uxtb	r4, r4
 106 0048 4120     		mov	r0, #65
 107 004a 182C     		cmp	r4, #24
 108 004c F3D8     		bhi	.L2
  90:D:/kuaipan/SEMG/MEMS_SEMG_KL25/KL25 Sample Code_I2c/KL25 Sample Code/kl25_sc_rev10/klxx-sc-baremetal/src/drivers/mcg\mcg.c ****   if ((vdiv_val < 24) || (vdiv_val > 50)) {return 0x42;}
 109              		.loc 1 90 0
 110 004e 4A46     		mov	r2, r9
 111 0050 183A     		sub	r2, r2, #24
 112 0052 D6B2     		uxtb	r6, r2
 113 0054 4220     		mov	r0, #66
 114 0056 1A2E     		cmp	r6, #26
 115 0058 EDD8     		bhi	.L2
  93:D:/kuaipan/SEMG/MEMS_SEMG_KL25/KL25 Sample Code_I2c/KL25 Sample Code/kl25_sc_rev10/klxx-sc-baremetal/src/drivers/mcg\mcg.c ****   ref_freq = crystal_val / prdiv_val;
 116              		.loc 1 93 0
 117 005a 191C     		mov	r1, r3
 118 005c 381C     		mov	r0, r7
 119 005e FFF7FEFF 		bl	__aeabi_idiv
 120              	.LVL8:
  94:D:/kuaipan/SEMG/MEMS_SEMG_KL25/KL25 Sample Code_I2c/KL25 Sample Code/kl25_sc_rev10/klxx-sc-baremetal/src/drivers/mcg\mcg.c ****   if ((ref_freq < 2000000) || (ref_freq > 4000000)) {return 0x43;}
 121              		.loc 1 94 0
 122 0062 7E4B     		ldr	r3, .L90+8
  93:D:/kuaipan/SEMG/MEMS_SEMG_KL25/KL25 Sample Code_I2c/KL25 Sample Code/kl25_sc_rev10/klxx-sc-baremetal/src/drivers/mcg\mcg.c ****   ref_freq = crystal_val / prdiv_val;
 123              		.loc 1 93 0
 124 0064 011C     		mov	r1, r0
 125              	.LVL9:
  94:D:/kuaipan/SEMG/MEMS_SEMG_KL25/KL25 Sample Code_I2c/KL25 Sample Code/kl25_sc_rev10/klxx-sc-baremetal/src/drivers/mcg\mcg.c ****   if ((ref_freq < 2000000) || (ref_freq > 4000000)) {return 0x43;}
 126              		.loc 1 94 0
 127 0066 C218     		add	r2, r0, r3
 128 0068 7D4B     		ldr	r3, .L90+12
 129 006a 4320     		mov	r0, #67
 130              	.LVL10:
 131 006c 9A42     		cmp	r2, r3
 132 006e E2D8     		bhi	.L2
 133              	.LVL11:
  97:D:/kuaipan/SEMG/MEMS_SEMG_KL25/KL25 Sample Code_I2c/KL25 Sample Code/kl25_sc_rev10/klxx-sc-baremetal/src/drivers/mcg\mcg.c ****   pll_freq = (crystal_val / prdiv_val) * vdiv_val;
 134              		.loc 1 97 0
 135 0070 4846     		mov	r0, r9
 136 0072 4843     		mul	r0, r1
  98:D:/kuaipan/SEMG/MEMS_SEMG_KL25/KL25 Sample Code_I2c/KL25 Sample Code/kl25_sc_rev10/klxx-sc-baremetal/src/drivers/mcg\mcg.c ****   if ((pll_freq < 48000000) || (pll_freq > 100000000)) {return 0x45;}
 137              		.loc 1 98 0
 138 0074 7B49     		ldr	r1, .L90+16
 139              	.LVL12:
 140 0076 7C4B     		ldr	r3, .L90+20
 141 0078 4218     		add	r2, r0, r1
 142              	.LVL13:
 143 007a 4520     		mov	r0, #69
 144 007c 9A42     		cmp	r2, r3
 145 007e DAD8     		bhi	.L2
  85:D:/kuaipan/SEMG/MEMS_SEMG_KL25/KL25 Sample Code_I2c/KL25 Sample Code/kl25_sc_rev10/klxx-sc-baremetal/src/drivers/mcg\mcg.c ****     hgo_val = 1; // force hgo_val to 1 if > 0
 146              		.loc 1 85 0
 147 0080 5246     		mov	r2, sl
 148 0082 531E     		sub	r3, r2, #1
 149 0084 9A41     		sbc	r2, r2, r3
 104:D:/kuaipan/SEMG/MEMS_SEMG_KL25/KL25 Sample Code_I2c/KL25 Sample Code/kl25_sc_rev10/klxx-sc-baremetal/src/drivers/mcg\mcg.c ****   temp_reg = MCG_C2;
 150              		.loc 1 104 0
 151 0086 734B     		ldr	r3, .L90
 105:D:/kuaipan/SEMG/MEMS_SEMG_KL25/KL25 Sample Code_I2c/KL25 Sample Code/kl25_sc_rev10/klxx-sc-baremetal/src/drivers/mcg\mcg.c ****   temp_reg &= ~(MCG_C2_RANGE0_MASK | MCG_C2_HGO0_MASK | MCG_C2_EREFS0_MASK); // clear fields before
 152              		.loc 1 105 0
 153 0088 3C20     		mov	r0, #60
 104:D:/kuaipan/SEMG/MEMS_SEMG_KL25/KL25 Sample Code_I2c/KL25 Sample Code/kl25_sc_rev10/klxx-sc-baremetal/src/drivers/mcg\mcg.c ****   temp_reg = MCG_C2;
 154              		.loc 1 104 0
 155 008a 5978     		ldrb	r1, [r3, #1]
 156              	.LVL14:
 105:D:/kuaipan/SEMG/MEMS_SEMG_KL25/KL25 Sample Code_I2c/KL25 Sample Code/kl25_sc_rev10/klxx-sc-baremetal/src/drivers/mcg\mcg.c ****   temp_reg &= ~(MCG_C2_RANGE0_MASK | MCG_C2_HGO0_MASK | MCG_C2_EREFS0_MASK); // clear fields before
 157              		.loc 1 105 0
 158 008c 8143     		bic	r1, r0
 159              	.LVL15:
 107:D:/kuaipan/SEMG/MEMS_SEMG_KL25/KL25 Sample Code_I2c/KL25 Sample Code/kl25_sc_rev10/klxx-sc-baremetal/src/drivers/mcg\mcg.c ****   if (crystal_val <= 8000000)
 160              		.loc 1 107 0
 161 008e 7748     		ldr	r0, .L90+24
 162 0090 8742     		cmp	r7, r0
 163 0092 00DD     		ble	.LCB151
 164 0094 BFE0     		b	.L4	@long jump
 165              	.LCB151:
 109:D:/kuaipan/SEMG/MEMS_SEMG_KL25/KL25 Sample Code_I2c/KL25 Sample Code/kl25_sc_rev10/klxx-sc-baremetal/src/drivers/mcg\mcg.c ****     temp_reg |= (MCG_C2_RANGE0(1) | (hgo_val << MCG_C2_HGO0_SHIFT) | (erefs_val << MCG_C2_EREFS0_SH
 166              		.loc 1 109 0
 167 0096 1020     		mov	r0, #16
 168 0098 0143     		orr	r1, r0
 169              	.LVL16:
 170 009a A800     		lsl	r0, r5, #2
 171 009c 0143     		orr	r1, r0
 172 009e C9B2     		uxtb	r1, r1
 173 00a0 D200     		lsl	r2, r2, #3
 119:D:/kuaipan/SEMG/MEMS_SEMG_KL25/KL25 Sample Code_I2c/KL25 Sample Code/kl25_sc_rev10/klxx-sc-baremetal/src/drivers/mcg\mcg.c ****   if (crystal_val <= 1250000) {frdiv_val = 0;}
 174              		.loc 1 119 0
 175 00a2 7348     		ldr	r0, .L90+28
 109:D:/kuaipan/SEMG/MEMS_SEMG_KL25/KL25 Sample Code_I2c/KL25 Sample Code/kl25_sc_rev10/klxx-sc-baremetal/src/drivers/mcg\mcg.c ****     temp_reg |= (MCG_C2_RANGE0(1) | (hgo_val << MCG_C2_HGO0_SHIFT) | (erefs_val << MCG_C2_EREFS0_SH
 176              		.loc 1 109 0
 177 00a4 0A43     		orr	r2, r1
 178              	.LVL17:
 115:D:/kuaipan/SEMG/MEMS_SEMG_KL25/KL25 Sample Code_I2c/KL25 Sample Code/kl25_sc_rev10/klxx-sc-baremetal/src/drivers/mcg\mcg.c ****   MCG_C2 = temp_reg;
 179              		.loc 1 115 0
 180 00a6 5A70     		strb	r2, [r3, #1]
 119:D:/kuaipan/SEMG/MEMS_SEMG_KL25/KL25 Sample Code_I2c/KL25 Sample Code/kl25_sc_rev10/klxx-sc-baremetal/src/drivers/mcg\mcg.c ****   if (crystal_val <= 1250000) {frdiv_val = 0;}
 181              		.loc 1 119 0
 182 00a8 0023     		mov	r3, #0
 183 00aa 8742     		cmp	r7, r0
 184 00ac 00DD     		ble	.LCB166
 185 00ae CBE0     		b	.L84	@long jump
 186              	.LCB166:
 187              	.LVL18:
 188              	.L5:
 129:D:/kuaipan/SEMG/MEMS_SEMG_KL25/KL25 Sample Code_I2c/KL25 Sample Code/kl25_sc_rev10/klxx-sc-baremetal/src/drivers/mcg\mcg.c ****   temp_reg = MCG_C1;
 189              		.loc 1 129 0
 190 00b0 6849     		ldr	r1, .L90
 130:D:/kuaipan/SEMG/MEMS_SEMG_KL25/KL25 Sample Code_I2c/KL25 Sample Code/kl25_sc_rev10/klxx-sc-baremetal/src/drivers/mcg\mcg.c ****   temp_reg &= ~(MCG_C1_CLKS_MASK | MCG_C1_FRDIV_MASK | MCG_C1_IREFS_MASK); // Clear values in these
 191              		.loc 1 130 0
 192 00b2 0322     		mov	r2, #3
 129:D:/kuaipan/SEMG/MEMS_SEMG_KL25/KL25 Sample Code_I2c/KL25 Sample Code/kl25_sc_rev10/klxx-sc-baremetal/src/drivers/mcg\mcg.c ****   temp_reg = MCG_C1;
 193              		.loc 1 129 0
 194 00b4 0878     		ldrb	r0, [r1]
 195              	.LVL19:
 131:D:/kuaipan/SEMG/MEMS_SEMG_KL25/KL25 Sample Code_I2c/KL25 Sample Code/kl25_sc_rev10/klxx-sc-baremetal/src/drivers/mcg\mcg.c ****   temp_reg |= (MCG_C1_CLKS(2) | MCG_C1_FRDIV(frdiv_val)); // Set the required CLKS and FRDIV values
 196              		.loc 1 131 0
 197 00b6 DB00     		lsl	r3, r3, #3
 198              	.LVL20:
 130:D:/kuaipan/SEMG/MEMS_SEMG_KL25/KL25 Sample Code_I2c/KL25 Sample Code/kl25_sc_rev10/klxx-sc-baremetal/src/drivers/mcg\mcg.c ****   temp_reg &= ~(MCG_C1_CLKS_MASK | MCG_C1_FRDIV_MASK | MCG_C1_IREFS_MASK); // Clear values in these
 199              		.loc 1 130 0
 200 00b8 1040     		and	r0, r2
 201              	.LVL21:
 131:D:/kuaipan/SEMG/MEMS_SEMG_KL25/KL25 Sample Code_I2c/KL25 Sample Code/kl25_sc_rev10/klxx-sc-baremetal/src/drivers/mcg\mcg.c ****   temp_reg |= (MCG_C1_CLKS(2) | MCG_C1_FRDIV(frdiv_val)); // Set the required CLKS and FRDIV values
 202              		.loc 1 131 0
 203 00ba 8022     		mov	r2, #128
 204 00bc 0243     		orr	r2, r0
 205 00be 1343     		orr	r3, r2
 206              	.LVL22:
 132:D:/kuaipan/SEMG/MEMS_SEMG_KL25/KL25 Sample Code_I2c/KL25 Sample Code/kl25_sc_rev10/klxx-sc-baremetal/src/drivers/mcg\mcg.c ****   MCG_C1 = temp_reg;
 207              		.loc 1 132 0
 208 00c0 0B70     		strb	r3, [r1]
 135:D:/kuaipan/SEMG/MEMS_SEMG_KL25/KL25 Sample Code_I2c/KL25 Sample Code/kl25_sc_rev10/klxx-sc-baremetal/src/drivers/mcg\mcg.c ****   if (erefs_val)
 209              		.loc 1 135 0
 210 00c2 002D     		cmp	r5, #0
 211 00c4 13D0     		beq	.L8
 212 00c6 6B4A     		ldr	r2, .L90+32
 139:D:/kuaipan/SEMG/MEMS_SEMG_KL25/KL25 Sample Code_I2c/KL25 Sample Code/kl25_sc_rev10/klxx-sc-baremetal/src/drivers/mcg\mcg.c ****       if (MCG_S & MCG_S_OSCINIT0_MASK) break; // jump out early if OSCINIT sets before loop finishe
 213              		.loc 1 139 0
 214 00c8 0225     		mov	r5, #2
 215 00ca 08E0     		b	.L10
 216              	.LVL23:
 217              	.L85:
 218 00cc 8B79     		ldrb	r3, [r1, #6]
 219 00ce 013A     		sub	r2, r2, #1
 220 00d0 92B2     		uxth	r2, r2
 221 00d2 1D42     		tst	r5, r3
 222 00d4 06D1     		bne	.L9
 223 00d6 013A     		sub	r2, r2, #1
 224 00d8 92B2     		uxth	r2, r2
 137:D:/kuaipan/SEMG/MEMS_SEMG_KL25/KL25 Sample Code_I2c/KL25 Sample Code/kl25_sc_rev10/klxx-sc-baremetal/src/drivers/mcg\mcg.c ****     for (i = 0 ; i < 20000 ; i++)
 225              		.loc 1 137 0
 226 00da 002A     		cmp	r2, #0
 227 00dc 02D0     		beq	.L9
 228              	.L10:
 139:D:/kuaipan/SEMG/MEMS_SEMG_KL25/KL25 Sample Code_I2c/KL25 Sample Code/kl25_sc_rev10/klxx-sc-baremetal/src/drivers/mcg\mcg.c ****       if (MCG_S & MCG_S_OSCINIT0_MASK) break; // jump out early if OSCINIT sets before loop finishe
 229              		.loc 1 139 0
 230 00de 8879     		ldrb	r0, [r1, #6]
 231 00e0 0542     		tst	r5, r0
 232 00e2 F3D0     		beq	.L85
 233              	.L9:
 141:D:/kuaipan/SEMG/MEMS_SEMG_KL25/KL25 Sample Code_I2c/KL25 Sample Code/kl25_sc_rev10/klxx-sc-baremetal/src/drivers/mcg\mcg.c ****   if (!(MCG_S & MCG_S_OSCINIT0_MASK)) return 0x23; // check bit is really set and return with error
 234              		.loc 1 141 0
 235 00e4 5B49     		ldr	r1, .L90
 236 00e6 2320     		mov	r0, #35
 237 00e8 8D79     		ldrb	r5, [r1, #6]
 238 00ea AA07     		lsl	r2, r5, #30
 239 00ec A3D5     		bpl	.L2
 240              	.L8:
 147:D:/kuaipan/SEMG/MEMS_SEMG_KL25/KL25 Sample Code_I2c/KL25 Sample Code/kl25_sc_rev10/klxx-sc-baremetal/src/drivers/mcg\mcg.c ****     if (!(MCG_S & MCG_S_IREFST_MASK)) break; // jump out early if IREFST clears before loop finishe
 241              		.loc 1 147 0
 242 00ee 594A     		ldr	r2, .L90
 243 00f0 1021     		mov	r1, #16
 244 00f2 9079     		ldrb	r0, [r2, #6]
 245 00f4 0142     		tst	r1, r0
 246 00f6 11D0     		beq	.L11
 247 00f8 9579     		ldrb	r5, [r2, #6]
 248 00fa 5F4B     		ldr	r3, .L90+36
 249 00fc 2942     		tst	r1, r5
 250 00fe 0DD0     		beq	.L11
 251 0100 013B     		sub	r3, r3, #1
 252 0102 08E0     		b	.L49
 253              	.L86:
 254 0104 9579     		ldrb	r5, [r2, #6]
 255 0106 013B     		sub	r3, r3, #1
 256 0108 9BB2     		uxth	r3, r3
 257 010a 2942     		tst	r1, r5
 258 010c 06D0     		beq	.L11
 259 010e 013B     		sub	r3, r3, #1
 260 0110 9BB2     		uxth	r3, r3
 145:D:/kuaipan/SEMG/MEMS_SEMG_KL25/KL25 Sample Code_I2c/KL25 Sample Code/kl25_sc_rev10/klxx-sc-baremetal/src/drivers/mcg\mcg.c ****   for (i = 0 ; i < 2000 ; i++)
 261              		.loc 1 145 0
 262 0112 002B     		cmp	r3, #0
 263 0114 02D0     		beq	.L11
 264              	.L49:
 147:D:/kuaipan/SEMG/MEMS_SEMG_KL25/KL25 Sample Code_I2c/KL25 Sample Code/kl25_sc_rev10/klxx-sc-baremetal/src/drivers/mcg\mcg.c ****     if (!(MCG_S & MCG_S_IREFST_MASK)) break; // jump out early if IREFST clears before loop finishe
 265              		.loc 1 147 0
 266 0116 9079     		ldrb	r0, [r2, #6]
 267 0118 0142     		tst	r1, r0
 268 011a F3D1     		bne	.L86
 269              	.L11:
 149:D:/kuaipan/SEMG/MEMS_SEMG_KL25/KL25 Sample Code_I2c/KL25 Sample Code/kl25_sc_rev10/klxx-sc-baremetal/src/drivers/mcg\mcg.c ****   if (MCG_S & MCG_S_IREFST_MASK) return 0x11; // check bit is really clear and return with error if
 270              		.loc 1 149 0
 271 011c 4D49     		ldr	r1, .L90
 272 011e 1120     		mov	r0, #17
 273 0120 8A79     		ldrb	r2, [r1, #6]
 274 0122 D206     		lsl	r2, r2, #27
 275 0124 00D5     		bpl	.LCB300
 276 0126 86E7     		b	.L2	@long jump
 277              	.LCB300:
 278 0128 FA20     		mov	r0, #250
 279 012a C300     		lsl	r3, r0, #3
 154:D:/kuaipan/SEMG/MEMS_SEMG_KL25/KL25 Sample Code_I2c/KL25 Sample Code/kl25_sc_rev10/klxx-sc-baremetal/src/drivers/mcg\mcg.c ****     if (((MCG_S & MCG_S_CLKST_MASK) >> MCG_S_CLKST_SHIFT) == 0x2) break; // jump out early if CLKST
 280              		.loc 1 154 0
 281 012c 0C25     		mov	r5, #12
 282 012e 09E0     		b	.L13
 283              	.L87:
 284 0130 8879     		ldrb	r0, [r1, #6]
 285 0132 013B     		sub	r3, r3, #1
 286 0134 9BB2     		uxth	r3, r3
 287 0136 2840     		and	r0, r5
 288 0138 0828     		cmp	r0, #8
 289 013a 07D0     		beq	.L12
 290 013c 013B     		sub	r3, r3, #1
 291 013e 9BB2     		uxth	r3, r3
 152:D:/kuaipan/SEMG/MEMS_SEMG_KL25/KL25 Sample Code_I2c/KL25 Sample Code/kl25_sc_rev10/klxx-sc-baremetal/src/drivers/mcg\mcg.c ****   for (i = 0 ; i < 2000 ; i++)
 292              		.loc 1 152 0
 293 0140 002B     		cmp	r3, #0
 294 0142 03D0     		beq	.L12
 295              	.L13:
 154:D:/kuaipan/SEMG/MEMS_SEMG_KL25/KL25 Sample Code_I2c/KL25 Sample Code/kl25_sc_rev10/klxx-sc-baremetal/src/drivers/mcg\mcg.c ****     if (((MCG_S & MCG_S_CLKST_MASK) >> MCG_S_CLKST_SHIFT) == 0x2) break; // jump out early if CLKST
 296              		.loc 1 154 0
 297 0144 8A79     		ldrb	r2, [r1, #6]
 298 0146 2A40     		and	r2, r5
 299 0148 082A     		cmp	r2, #8
 300 014a F1D1     		bne	.L87
 301              	.L12:
 156:D:/kuaipan/SEMG/MEMS_SEMG_KL25/KL25 Sample Code_I2c/KL25 Sample Code/kl25_sc_rev10/klxx-sc-baremetal/src/drivers/mcg\mcg.c ****   if (((MCG_S & MCG_S_CLKST_MASK) >> MCG_S_CLKST_SHIFT) != 0x2) return 0x1A; // check EXT CLK is re
 302              		.loc 1 156 0
 303 014c 414D     		ldr	r5, .L90
 304 014e 1A20     		mov	r0, #26
 305 0150 A979     		ldrb	r1, [r5, #6]
 306 0152 0A07     		lsl	r2, r1, #28
 307 0154 930F     		lsr	r3, r2, #30
 308 0156 022B     		cmp	r3, #2
 309 0158 00D0     		beq	.LCB345
 310 015a 6CE7     		b	.L2	@long jump
 311              	.LCB345:
 161:D:/kuaipan/SEMG/MEMS_SEMG_KL25/KL25 Sample Code_I2c/KL25 Sample Code/kl25_sc_rev10/klxx-sc-baremetal/src/drivers/mcg\mcg.c ****   MCG_C6 |= MCG_C6_CME0_MASK;
 312              		.loc 1 161 0
 313 015c 6879     		ldrb	r0, [r5, #5]
 314 015e 2021     		mov	r1, #32
 315 0160 0843     		orr	r0, r1
 316 0162 6871     		strb	r0, [r5, #5]
 166:D:/kuaipan/SEMG/MEMS_SEMG_KL25/KL25 Sample Code_I2c/KL25 Sample Code/kl25_sc_rev10/klxx-sc-baremetal/src/drivers/mcg\mcg.c ****   temp_reg = MCG_C5;
 317              		.loc 1 166 0
 318 0164 2B79     		ldrb	r3, [r5, #4]
 319              	.LVL24:
 167:D:/kuaipan/SEMG/MEMS_SEMG_KL25/KL25 Sample Code_I2c/KL25 Sample Code/kl25_sc_rev10/klxx-sc-baremetal/src/drivers/mcg\mcg.c ****   temp_reg &= ~MCG_C5_PRDIV0_MASK;
 320              		.loc 1 167 0
 321 0166 1F22     		mov	r2, #31
 322 0168 9343     		bic	r3, r2
 323              	.LVL25:
 168:D:/kuaipan/SEMG/MEMS_SEMG_KL25/KL25 Sample Code_I2c/KL25 Sample Code/kl25_sc_rev10/klxx-sc-baremetal/src/drivers/mcg\mcg.c ****   temp_reg |= MCG_C5_PRDIV0(prdiv_val - 1);    //set PLL ref divider
 324              		.loc 1 168 0
 325 016a 1C43     		orr	r4, r3
 326              	.LVL26:
 169:D:/kuaipan/SEMG/MEMS_SEMG_KL25/KL25 Sample Code_I2c/KL25 Sample Code/kl25_sc_rev10/klxx-sc-baremetal/src/drivers/mcg\mcg.c ****   MCG_C5 = temp_reg;
 327              		.loc 1 169 0
 328 016c 2C71     		strb	r4, [r5, #4]
 174:D:/kuaipan/SEMG/MEMS_SEMG_KL25/KL25 Sample Code_I2c/KL25 Sample Code/kl25_sc_rev10/klxx-sc-baremetal/src/drivers/mcg\mcg.c ****   temp_reg = MCG_C6; // store present C6 value
 329              		.loc 1 174 0
 330 016e 6C79     		ldrb	r4, [r5, #5]
 331              	.LVL27:
 176:D:/kuaipan/SEMG/MEMS_SEMG_KL25/KL25 Sample Code_I2c/KL25 Sample Code/kl25_sc_rev10/klxx-sc-baremetal/src/drivers/mcg\mcg.c ****   temp_reg |= MCG_C6_PLLS_MASK | MCG_C6_VDIV0(vdiv_val - 24); // write new VDIV and enable PLL
 332              		.loc 1 176 0
 333 0170 4020     		mov	r0, #64
 175:D:/kuaipan/SEMG/MEMS_SEMG_KL25/KL25 Sample Code_I2c/KL25 Sample Code/kl25_sc_rev10/klxx-sc-baremetal/src/drivers/mcg\mcg.c ****   temp_reg &= ~MCG_C6_VDIV0_MASK; // clear VDIV settings
 334              		.loc 1 175 0
 335 0172 9443     		bic	r4, r2
 336              	.LVL28:
 337 0174 231C     		mov	r3, r4
 176:D:/kuaipan/SEMG/MEMS_SEMG_KL25/KL25 Sample Code_I2c/KL25 Sample Code/kl25_sc_rev10/klxx-sc-baremetal/src/drivers/mcg\mcg.c ****   temp_reg |= MCG_C6_PLLS_MASK | MCG_C6_VDIV0(vdiv_val - 24); // write new VDIV and enable PLL
 338              		.loc 1 176 0
 339 0176 0343     		orr	r3, r0
 340 0178 1E43     		orr	r6, r3
 341              	.LVL29:
 177:D:/kuaipan/SEMG/MEMS_SEMG_KL25/KL25 Sample Code_I2c/KL25 Sample Code/kl25_sc_rev10/klxx-sc-baremetal/src/drivers/mcg\mcg.c ****   MCG_C6 = temp_reg; // update MCG_C6
 342              		.loc 1 177 0
 343 017a 6E71     		strb	r6, [r5, #5]
 344              	.LVL30:
 345 017c FA26     		mov	r6, #250
 346              	.LVL31:
 347 017e F200     		lsl	r2, r6, #3
 348 0180 03E0     		b	.L15
 349              	.LVL32:
 350              	.L88:
 351 0182 013A     		sub	r2, r2, #1
 352 0184 92B2     		uxth	r2, r2
 180:D:/kuaipan/SEMG/MEMS_SEMG_KL25/KL25 Sample Code_I2c/KL25 Sample Code/kl25_sc_rev10/klxx-sc-baremetal/src/drivers/mcg\mcg.c ****   for (i = 0 ; i < 2000 ; i++)
 353              		.loc 1 180 0
 354 0186 002A     		cmp	r2, #0
 355 0188 02D0     		beq	.L14
 356              	.L15:
 182:D:/kuaipan/SEMG/MEMS_SEMG_KL25/KL25 Sample Code_I2c/KL25 Sample Code/kl25_sc_rev10/klxx-sc-baremetal/src/drivers/mcg\mcg.c ****     if (MCG_S & MCG_S_PLLST_MASK) break; // jump out early if PLLST sets before loop finishes
 357              		.loc 1 182 0
 358 018a AC79     		ldrb	r4, [r5, #6]
 359 018c 0C42     		tst	r4, r1
 360 018e F8D0     		beq	.L88
 361              	.L14:
 184:D:/kuaipan/SEMG/MEMS_SEMG_KL25/KL25 Sample Code_I2c/KL25 Sample Code/kl25_sc_rev10/klxx-sc-baremetal/src/drivers/mcg\mcg.c ****   if (!(MCG_S & MCG_S_PLLST_MASK)) return 0x16; // check bit is really set and return with error if
 362              		.loc 1 184 0
 363 0190 304D     		ldr	r5, .L90
 364 0192 1620     		mov	r0, #22
 365 0194 A979     		ldrb	r1, [r5, #6]
 366 0196 8906     		lsl	r1, r1, #26
 367 0198 00D4     		bmi	.LCB416
 368 019a 4CE7     		b	.L2	@long jump
 369              	.LCB416:
 370 019c FA23     		mov	r3, #250
 371              	.LVL33:
 372 019e 1C01     		lsl	r4, r3, #4
 189:D:/kuaipan/SEMG/MEMS_SEMG_KL25/KL25 Sample Code_I2c/KL25 Sample Code/kl25_sc_rev10/klxx-sc-baremetal/src/drivers/mcg\mcg.c ****     if (MCG_S & MCG_S_LOCK0_MASK) break; // jump out early if LOCK sets before loop finishes
 373              		.loc 1 189 0
 374 01a0 4026     		mov	r6, #64
 375 01a2 03E0     		b	.L17
 376              	.L89:
 377 01a4 013C     		sub	r4, r4, #1
 378 01a6 A4B2     		uxth	r4, r4
 187:D:/kuaipan/SEMG/MEMS_SEMG_KL25/KL25 Sample Code_I2c/KL25 Sample Code/kl25_sc_rev10/klxx-sc-baremetal/src/drivers/mcg\mcg.c ****   for (i = 0 ; i < 4000 ; i++)
 379              		.loc 1 187 0
 380 01a8 002C     		cmp	r4, #0
 381 01aa 02D0     		beq	.L16
 382              	.L17:
 189:D:/kuaipan/SEMG/MEMS_SEMG_KL25/KL25 Sample Code_I2c/KL25 Sample Code/kl25_sc_rev10/klxx-sc-baremetal/src/drivers/mcg\mcg.c ****     if (MCG_S & MCG_S_LOCK0_MASK) break; // jump out early if LOCK sets before loop finishes
 383              		.loc 1 189 0
 384 01ac A879     		ldrb	r0, [r5, #6]
 385 01ae 3042     		tst	r0, r6
 386 01b0 F8D0     		beq	.L89
 387              	.L16:
 191:D:/kuaipan/SEMG/MEMS_SEMG_KL25/KL25 Sample Code_I2c/KL25 Sample Code/kl25_sc_rev10/klxx-sc-baremetal/src/drivers/mcg\mcg.c ****   if (!(MCG_S & MCG_S_LOCK0_MASK)) return 0x44; // check bit is really set and return with error if
 388              		.loc 1 191 0
 389 01b2 284B     		ldr	r3, .L90
 390 01b4 4420     		mov	r0, #68
 391 01b6 9A79     		ldrb	r2, [r3, #6]
 392 01b8 5106     		lsl	r1, r2, #25
 393 01ba 00D4     		bmi	.LCB451
 394 01bc 3BE7     		b	.L2	@long jump
 395              	.LCB451:
 194:D:/kuaipan/SEMG/MEMS_SEMG_KL25/KL25 Sample Code_I2c/KL25 Sample Code/kl25_sc_rev10/klxx-sc-baremetal/src/drivers/mcg\mcg.c ****   prdiv = ((MCG_C5 & MCG_C5_PRDIV0_MASK) + 1);
 396              		.loc 1 194 0
 397 01be 1979     		ldrb	r1, [r3, #4]
 195:D:/kuaipan/SEMG/MEMS_SEMG_KL25/KL25 Sample Code_I2c/KL25 Sample Code/kl25_sc_rev10/klxx-sc-baremetal/src/drivers/mcg\mcg.c ****   vdiv = ((MCG_C6 & MCG_C6_VDIV0_MASK) + 24);
 398              		.loc 1 195 0
 399 01c0 5E79     		ldrb	r6, [r3, #5]
 194:D:/kuaipan/SEMG/MEMS_SEMG_KL25/KL25 Sample Code_I2c/KL25 Sample Code/kl25_sc_rev10/klxx-sc-baremetal/src/drivers/mcg\mcg.c ****   prdiv = ((MCG_C5 & MCG_C5_PRDIV0_MASK) + 1);
 400              		.loc 1 194 0
 401 01c2 1F25     		mov	r5, #31
 199:D:/kuaipan/SEMG/MEMS_SEMG_KL25/KL25 Sample Code_I2c/KL25 Sample Code/kl25_sc_rev10/klxx-sc-baremetal/src/drivers/mcg\mcg.c ****   MCG_C1 &= ~MCG_C1_CLKS_MASK; // clear CLKS to switch CLKS mux to select PLL as MCG_OUT
 402              		.loc 1 199 0
 403 01c4 1878     		ldrb	r0, [r3]
 194:D:/kuaipan/SEMG/MEMS_SEMG_KL25/KL25 Sample Code_I2c/KL25 Sample Code/kl25_sc_rev10/klxx-sc-baremetal/src/drivers/mcg\mcg.c ****   prdiv = ((MCG_C5 & MCG_C5_PRDIV0_MASK) + 1);
 404              		.loc 1 194 0
 405 01c6 2940     		and	r1, r5
 199:D:/kuaipan/SEMG/MEMS_SEMG_KL25/KL25 Sample Code_I2c/KL25 Sample Code/kl25_sc_rev10/klxx-sc-baremetal/src/drivers/mcg\mcg.c ****   MCG_C1 &= ~MCG_C1_CLKS_MASK; // clear CLKS to switch CLKS mux to select PLL as MCG_OUT
 406              		.loc 1 199 0
 407 01c8 3F22     		mov	r2, #63
 195:D:/kuaipan/SEMG/MEMS_SEMG_KL25/KL25 Sample Code_I2c/KL25 Sample Code/kl25_sc_rev10/klxx-sc-baremetal/src/drivers/mcg\mcg.c ****   vdiv = ((MCG_C6 & MCG_C6_VDIV0_MASK) + 24);
 408              		.loc 1 195 0
 409 01ca 3540     		and	r5, r6
 410 01cc 2C1C     		mov	r4, r5
 199:D:/kuaipan/SEMG/MEMS_SEMG_KL25/KL25 Sample Code_I2c/KL25 Sample Code/kl25_sc_rev10/klxx-sc-baremetal/src/drivers/mcg\mcg.c ****   MCG_C1 &= ~MCG_C1_CLKS_MASK; // clear CLKS to switch CLKS mux to select PLL as MCG_OUT
 411              		.loc 1 199 0
 412 01ce 0240     		and	r2, r0
 413 01d0 FA25     		mov	r5, #250
 414 01d2 1A70     		strb	r2, [r3]
 194:D:/kuaipan/SEMG/MEMS_SEMG_KL25/KL25 Sample Code_I2c/KL25 Sample Code/kl25_sc_rev10/klxx-sc-baremetal/src/drivers/mcg\mcg.c ****   prdiv = ((MCG_C5 & MCG_C5_PRDIV0_MASK) + 1);
 415              		.loc 1 194 0
 416 01d4 0131     		add	r1, r1, #1
 417              	.LVL34:
 195:D:/kuaipan/SEMG/MEMS_SEMG_KL25/KL25 Sample Code_I2c/KL25 Sample Code/kl25_sc_rev10/klxx-sc-baremetal/src/drivers/mcg\mcg.c ****   vdiv = ((MCG_C6 & MCG_C6_VDIV0_MASK) + 24);
 418              		.loc 1 195 0
 419 01d6 1834     		add	r4, r4, #24
 420              	.LVL35:
 199:D:/kuaipan/SEMG/MEMS_SEMG_KL25/KL25 Sample Code_I2c/KL25 Sample Code/kl25_sc_rev10/klxx-sc-baremetal/src/drivers/mcg\mcg.c ****   MCG_C1 &= ~MCG_C1_CLKS_MASK; // clear CLKS to switch CLKS mux to select PLL as MCG_OUT
 421              		.loc 1 199 0
 422 01d8 EA00     		lsl	r2, r5, #3
 204:D:/kuaipan/SEMG/MEMS_SEMG_KL25/KL25 Sample Code_I2c/KL25 Sample Code/kl25_sc_rev10/klxx-sc-baremetal/src/drivers/mcg\mcg.c ****     if (((MCG_S & MCG_S_CLKST_MASK) >> MCG_S_CLKST_SHIFT) == 0x3) break; // jump out early if CLKST
 423              		.loc 1 204 0
 424 01da 0C26     		mov	r6, #12
 425              	.LVL36:
 426              	.L19:
 427 01dc 9879     		ldrb	r0, [r3, #6]
 428 01de 3040     		and	r0, r6
 429 01e0 0C28     		cmp	r0, #12
 430 01e2 03D0     		beq	.L18
 431 01e4 013A     		sub	r2, r2, #1
 432 01e6 92B2     		uxth	r2, r2
 202:D:/kuaipan/SEMG/MEMS_SEMG_KL25/KL25 Sample Code_I2c/KL25 Sample Code/kl25_sc_rev10/klxx-sc-baremetal/src/drivers/mcg\mcg.c ****   for (i = 0 ; i < 2000 ; i++)
 433              		.loc 1 202 0
 434 01e8 002A     		cmp	r2, #0
 435 01ea F7D1     		bne	.L19
 436              	.L18:
 206:D:/kuaipan/SEMG/MEMS_SEMG_KL25/KL25 Sample Code_I2c/KL25 Sample Code/kl25_sc_rev10/klxx-sc-baremetal/src/drivers/mcg\mcg.c ****   if (((MCG_S & MCG_S_CLKST_MASK) >> MCG_S_CLKST_SHIFT) != 0x3) return 0x1B; // check CLKST is set 
 437              		.loc 1 206 0
 438 01ec 194B     		ldr	r3, .L90
 439 01ee 1B20     		mov	r0, #27
 440 01f0 9D79     		ldrb	r5, [r3, #6]
 441 01f2 2E07     		lsl	r6, r5, #28
 442 01f4 B20F     		lsr	r2, r6, #30
 443 01f6 032A     		cmp	r2, #3
 444 01f8 00D0     		beq	.LCB509
 445 01fa 1CE7     		b	.L2	@long jump
 446              	.LCB509:
 210:D:/kuaipan/SEMG/MEMS_SEMG_KL25/KL25 Sample Code_I2c/KL25 Sample Code/kl25_sc_rev10/klxx-sc-baremetal/src/drivers/mcg\mcg.c ****   return ((crystal_val / prdiv) * vdiv); //MCGOUT equals PLL output frequency
 447              		.loc 1 210 0
 448 01fc 381C     		mov	r0, r7
 449 01fe FFF7FEFF 		bl	__aeabi_idiv
 450              	.LVL37:
 451 0202 6043     		mul	r0, r4
 452 0204 17E7     		b	.L2
 453              	.LVL38:
 454              	.L83:
  79:D:/kuaipan/SEMG/MEMS_SEMG_KL25/KL25 Sample Code_I2c/KL25 Sample Code/kl25_sc_rev10/klxx-sc-baremetal/src/drivers/mcg\mcg.c ****     if ((crystal_val < 3000000) || (crystal_val > 32000000)) {return 0x22;} // return 1 if one of t
 455              		.loc 1 79 0
 456 0206 1D48     		ldr	r0, .L90+40
 457 0208 1D4E     		ldr	r6, .L90+44
 458 020a 3918     		add	r1, r7, r0
 459 020c 2220     		mov	r0, #34
 460 020e B142     		cmp	r1, r6
 461 0210 00D9     		bls	.LCB535
 462 0212 10E7     		b	.L2	@long jump
 463              	.LCB535:
 464 0214 16E7     		b	.L3
 465              	.LVL39:
 466              	.L4:
 113:D:/kuaipan/SEMG/MEMS_SEMG_KL25/KL25 Sample Code_I2c/KL25 Sample Code/kl25_sc_rev10/klxx-sc-baremetal/src/drivers/mcg\mcg.c ****     temp_reg |= (MCG_C2_RANGE0(2) | (hgo_val << MCG_C2_HGO0_SHIFT) | (erefs_val << MCG_C2_EREFS0_SH
 467              		.loc 1 113 0
 468 0216 2020     		mov	r0, #32
 469 0218 0143     		orr	r1, r0
 470              	.LVL40:
 471 021a A800     		lsl	r0, r5, #2
 472 021c 0143     		orr	r1, r0
 473 021e C9B2     		uxtb	r1, r1
 474 0220 D200     		lsl	r2, r2, #3
 475 0222 0A43     		orr	r2, r1
 476              	.LVL41:
 115:D:/kuaipan/SEMG/MEMS_SEMG_KL25/KL25 Sample Code_I2c/KL25 Sample Code/kl25_sc_rev10/klxx-sc-baremetal/src/drivers/mcg\mcg.c ****   MCG_C2 = temp_reg;
 477              		.loc 1 115 0
 478 0224 5A70     		strb	r2, [r3, #1]
 479              	.LVL42:
 480              	.L7:
 121:D:/kuaipan/SEMG/MEMS_SEMG_KL25/KL25 Sample Code_I2c/KL25 Sample Code/kl25_sc_rev10/klxx-sc-baremetal/src/drivers/mcg\mcg.c ****   else if (crystal_val <= 5000000) {frdiv_val = 2;}
 481              		.loc 1 121 0
 482 0226 174A     		ldr	r2, .L90+48
 483 0228 0223     		mov	r3, #2
 484 022a 9742     		cmp	r7, r2
 485 022c 00DC     		bgt	.LCB565
 486 022e 3FE7     		b	.L5	@long jump
 487              	.LCB565:
 122:D:/kuaipan/SEMG/MEMS_SEMG_KL25/KL25 Sample Code_I2c/KL25 Sample Code/kl25_sc_rev10/klxx-sc-baremetal/src/drivers/mcg\mcg.c ****   else if (crystal_val <= 10000000) {frdiv_val = 3;}
 488              		.loc 1 122 0
 489 0230 1548     		ldr	r0, .L90+52
 490 0232 0323     		mov	r3, #3
 491 0234 8742     		cmp	r7, r0
 492 0236 00DC     		bgt	.LCB569
 493 0238 3AE7     		b	.L5	@long jump
 494              	.LCB569:
 123:D:/kuaipan/SEMG/MEMS_SEMG_KL25/KL25 Sample Code_I2c/KL25 Sample Code/kl25_sc_rev10/klxx-sc-baremetal/src/drivers/mcg\mcg.c ****   else if (crystal_val <= 20000000) {frdiv_val = 4;}
 495              		.loc 1 123 0
 496 023a 1449     		ldr	r1, .L90+56
 124:D:/kuaipan/SEMG/MEMS_SEMG_KL25/KL25 Sample Code_I2c/KL25 Sample Code/kl25_sc_rev10/klxx-sc-baremetal/src/drivers/mcg\mcg.c ****   else {frdiv_val = 5;}
 497              		.loc 1 124 0
 498 023c 0523     		mov	r3, #5
 123:D:/kuaipan/SEMG/MEMS_SEMG_KL25/KL25 Sample Code_I2c/KL25 Sample Code/kl25_sc_rev10/klxx-sc-baremetal/src/drivers/mcg\mcg.c ****   else if (crystal_val <= 20000000) {frdiv_val = 4;}
 499              		.loc 1 123 0
 500 023e 8F42     		cmp	r7, r1
 501 0240 00DD     		ble	.LCB573
 502 0242 35E7     		b	.L5	@long jump
 503              	.LCB573:
 504 0244 0423     		mov	r3, #4
 505 0246 33E7     		b	.L5
 506              	.LVL43:
 507              	.L84:
 120:D:/kuaipan/SEMG/MEMS_SEMG_KL25/KL25 Sample Code_I2c/KL25 Sample Code/kl25_sc_rev10/klxx-sc-baremetal/src/drivers/mcg\mcg.c ****   else if (crystal_val <= 2500000) {frdiv_val = 1;}
 508              		.loc 1 120 0
 509 0248 1149     		ldr	r1, .L90+60
 510 024a 0123     		mov	r3, #1
 511 024c 8F42     		cmp	r7, r1
 512 024e 00DC     		bgt	.LCB583
 513 0250 2EE7     		b	.L5	@long jump
 514              	.LCB583:
 515 0252 E8E7     		b	.L7
 516              	.L91:
 517              		.align	2
 518              	.L90:
 519 0254 00400640 		.word	1074151424
 520 0258 80F0FA02 		.word	50000000
 521 025c 807BE1FF 		.word	-2000000
 522 0260 80841E00 		.word	2000000
 523 0264 009423FD 		.word	-48000000
 524 0268 00751903 		.word	52000000
 525 026c 00127A00 		.word	8000000
 526 0270 D0121300 		.word	1250000
 527 0274 204E0000 		.word	20000
 528 0278 CF070000 		.word	1999
 529 027c 4039D2FF 		.word	-3000000
 530 0280 4081BA01 		.word	29000000
 531 0284 404B4C00 		.word	5000000
 532 0288 80969800 		.word	10000000
 533 028c 002D3101 		.word	20000000
 534 0290 A0252600 		.word	2500000
 535              		.cfi_endproc
 536              	.LFE0:
 538              		.section	.text.new_pll_freq,"ax",%progbits
 539              		.align	2
 540              		.global	new_pll_freq
 541              		.code	16
 542              		.thumb_func
 544              	new_pll_freq:
 545              	.LFB1:
 212:D:/kuaipan/SEMG/MEMS_SEMG_KL25/KL25 Sample Code_I2c/KL25 Sample Code/kl25_sc_rev10/klxx-sc-baremetal/src/drivers/mcg\mcg.c **** 
 213:D:/kuaipan/SEMG/MEMS_SEMG_KL25/KL25 Sample Code_I2c/KL25 Sample Code/kl25_sc_rev10/klxx-sc-baremetal/src/drivers/mcg\mcg.c **** 
 214:D:/kuaipan/SEMG/MEMS_SEMG_KL25/KL25 Sample Code_I2c/KL25 Sample Code/kl25_sc_rev10/klxx-sc-baremetal/src/drivers/mcg\mcg.c **** /*********************************************************************************************/
 215:D:/kuaipan/SEMG/MEMS_SEMG_KL25/KL25 Sample Code_I2c/KL25 Sample Code/kl25_sc_rev10/klxx-sc-baremetal/src/drivers/mcg\mcg.c **** /* Functon name : new_pll_freq
 216:D:/kuaipan/SEMG/MEMS_SEMG_KL25/KL25 Sample Code_I2c/KL25 Sample Code/kl25_sc_rev10/klxx-sc-baremetal/src/drivers/mcg\mcg.c ****  *
 217:D:/kuaipan/SEMG/MEMS_SEMG_KL25/KL25 Sample Code_I2c/KL25 Sample Code/kl25_sc_rev10/klxx-sc-baremetal/src/drivers/mcg\mcg.c ****  * Mode transition: Moves from PEE to PBE mode before changing PLL settings and moves back to PEE m
 218:D:/kuaipan/SEMG/MEMS_SEMG_KL25/KL25 Sample Code_I2c/KL25 Sample Code/kl25_sc_rev10/klxx-sc-baremetal/src/drivers/mcg\mcg.c ****  *
 219:D:/kuaipan/SEMG/MEMS_SEMG_KL25/KL25 Sample Code_I2c/KL25 Sample Code/kl25_sc_rev10/klxx-sc-baremetal/src/drivers/mcg\mcg.c ****  * This function provides a safe means of updating the PLL configurations to ensure the system
 220:D:/kuaipan/SEMG/MEMS_SEMG_KL25/KL25 Sample Code_I2c/KL25 Sample Code/kl25_sc_rev10/klxx-sc-baremetal/src/drivers/mcg\mcg.c ****  * does not lose the clock source or is over-clocked as the PLL frequency changes.
 221:D:/kuaipan/SEMG/MEMS_SEMG_KL25/KL25 Sample Code_I2c/KL25 Sample Code/kl25_sc_rev10/klxx-sc-baremetal/src/drivers/mcg\mcg.c ****  * Using the function parameter names the PLL frequency is calculated as follows:
 222:D:/kuaipan/SEMG/MEMS_SEMG_KL25/KL25 Sample Code_I2c/KL25 Sample Code/kl25_sc_rev10/klxx-sc-baremetal/src/drivers/mcg\mcg.c ****  * PLL freq = ((crystal_val / prdiv_val) * vdiv_val)
 223:D:/kuaipan/SEMG/MEMS_SEMG_KL25/KL25 Sample Code_I2c/KL25 Sample Code/kl25_sc_rev10/klxx-sc-baremetal/src/drivers/mcg\mcg.c ****  * The various passed parameters are checked to ensure they are within the allowed range. If any
 224:D:/kuaipan/SEMG/MEMS_SEMG_KL25/KL25 Sample Code_I2c/KL25 Sample Code/kl25_sc_rev10/klxx-sc-baremetal/src/drivers/mcg\mcg.c ****  * of these checks fail the driver will exit and return a fail/error code. An error code will
 225:D:/kuaipan/SEMG/MEMS_SEMG_KL25/KL25 Sample Code_I2c/KL25 Sample Code/kl25_sc_rev10/klxx-sc-baremetal/src/drivers/mcg\mcg.c ****  * also be returned if any error occurs during the PLL initialization sequence. Refer to the
 226:D:/kuaipan/SEMG/MEMS_SEMG_KL25/KL25 Sample Code_I2c/KL25 Sample Code/kl25_sc_rev10/klxx-sc-baremetal/src/drivers/mcg\mcg.c ****  * readme file in the mcg driver directory for a list of all these codes.
 227:D:/kuaipan/SEMG/MEMS_SEMG_KL25/KL25 Sample Code_I2c/KL25 Sample Code/kl25_sc_rev10/klxx-sc-baremetal/src/drivers/mcg\mcg.c ****  * This function first moves the MCG to PBE mode to use the external reference clock to provide the
 228:D:/kuaipan/SEMG/MEMS_SEMG_KL25/KL25 Sample Code_I2c/KL25 Sample Code/kl25_sc_rev10/klxx-sc-baremetal/src/drivers/mcg\mcg.c ****  * system clock. The PLL settings are then updated. Once the PLL has re-locked the MCG is moved bac
 229:D:/kuaipan/SEMG/MEMS_SEMG_KL25/KL25 Sample Code_I2c/KL25 Sample Code/kl25_sc_rev10/klxx-sc-baremetal/src/drivers/mcg\mcg.c ****  * to PEE to use the PLL as the system clock.
 230:D:/kuaipan/SEMG/MEMS_SEMG_KL25/KL25 Sample Code_I2c/KL25 Sample Code/kl25_sc_rev10/klxx-sc-baremetal/src/drivers/mcg\mcg.c ****  * Only the PLL PRDIV0 and VDIV0 fields are changed.
 231:D:/kuaipan/SEMG/MEMS_SEMG_KL25/KL25 Sample Code_I2c/KL25 Sample Code/kl25_sc_rev10/klxx-sc-baremetal/src/drivers/mcg\mcg.c ****  * 
 232:D:/kuaipan/SEMG/MEMS_SEMG_KL25/KL25 Sample Code_I2c/KL25 Sample Code/kl25_sc_rev10/klxx-sc-baremetal/src/drivers/mcg\mcg.c ****  * Prerequisistes : The MCG must be in PEE mode before calling this routine. It is the responsibili
 233:D:/kuaipan/SEMG/MEMS_SEMG_KL25/KL25 Sample Code_I2c/KL25 Sample Code/kl25_sc_rev10/klxx-sc-baremetal/src/drivers/mcg\mcg.c ****  * of the calling routine to ensure the SIM_CLKDIV1 system clock dividers and any peripheral clock
 234:D:/kuaipan/SEMG/MEMS_SEMG_KL25/KL25 Sample Code_I2c/KL25 Sample Code/kl25_sc_rev10/klxx-sc-baremetal/src/drivers/mcg\mcg.c ****  * dividers are set correctly before or after calling this function to ensure the appropriate clock
 235:D:/kuaipan/SEMG/MEMS_SEMG_KL25/KL25 Sample Code_I2c/KL25 Sample Code/kl25_sc_rev10/klxx-sc-baremetal/src/drivers/mcg\mcg.c ****  * are kept within specification. You would typically change the divider values before calling this
 236:D:/kuaipan/SEMG/MEMS_SEMG_KL25/KL25 Sample Code_I2c/KL25 Sample Code/kl25_sc_rev10/klxx-sc-baremetal/src/drivers/mcg\mcg.c ****  * routine.
 237:D:/kuaipan/SEMG/MEMS_SEMG_KL25/KL25 Sample Code_I2c/KL25 Sample Code/kl25_sc_rev10/klxx-sc-baremetal/src/drivers/mcg\mcg.c ****  * 
 238:D:/kuaipan/SEMG/MEMS_SEMG_KL25/KL25 Sample Code_I2c/KL25 Sample Code/kl25_sc_rev10/klxx-sc-baremetal/src/drivers/mcg\mcg.c ****  * Parameters: crystal_val - external clock frequency in Hz either from a crystal or square
 239:D:/kuaipan/SEMG/MEMS_SEMG_KL25/KL25 Sample Code_I2c/KL25 Sample Code/kl25_sc_rev10/klxx-sc-baremetal/src/drivers/mcg\mcg.c ****  *                           wave clock source
 240:D:/kuaipan/SEMG/MEMS_SEMG_KL25/KL25 Sample Code_I2c/KL25 Sample Code/kl25_sc_rev10/klxx-sc-baremetal/src/drivers/mcg\mcg.c ****  *             prdiv_val   - value to divide the external clock source by to create the desired
 241:D:/kuaipan/SEMG/MEMS_SEMG_KL25/KL25 Sample Code_I2c/KL25 Sample Code/kl25_sc_rev10/klxx-sc-baremetal/src/drivers/mcg\mcg.c ****  *                           PLL reference clock frequency
 242:D:/kuaipan/SEMG/MEMS_SEMG_KL25/KL25 Sample Code_I2c/KL25 Sample Code/kl25_sc_rev10/klxx-sc-baremetal/src/drivers/mcg\mcg.c ****  *             vdiv_val    - value to multiply the PLL reference clock frequency by
 243:D:/kuaipan/SEMG/MEMS_SEMG_KL25/KL25 Sample Code_I2c/KL25 Sample Code/kl25_sc_rev10/klxx-sc-baremetal/src/drivers/mcg\mcg.c ****  *
 244:D:/kuaipan/SEMG/MEMS_SEMG_KL25/KL25 Sample Code_I2c/KL25 Sample Code/kl25_sc_rev10/klxx-sc-baremetal/src/drivers/mcg\mcg.c ****  * Return value : PLL frequency (Hz) or error code
 245:D:/kuaipan/SEMG/MEMS_SEMG_KL25/KL25 Sample Code_I2c/KL25 Sample Code/kl25_sc_rev10/klxx-sc-baremetal/src/drivers/mcg\mcg.c ****  */
 246:D:/kuaipan/SEMG/MEMS_SEMG_KL25/KL25 Sample Code_I2c/KL25 Sample Code/kl25_sc_rev10/klxx-sc-baremetal/src/drivers/mcg\mcg.c **** int new_pll_freq(int crystal_val, signed char prdiv_val, signed char vdiv_val)
 247:D:/kuaipan/SEMG/MEMS_SEMG_KL25/KL25 Sample Code_I2c/KL25 Sample Code/kl25_sc_rev10/klxx-sc-baremetal/src/drivers/mcg\mcg.c **** {
 546              		.loc 1 247 0
 547              		.cfi_startproc
 548              	.LVL44:
 549 0000 F0B5     		push	{r4, r5, r6, r7, lr}
 550              	.LCFI2:
 551              		.cfi_def_cfa_offset 20
 552              		.cfi_offset 4, -20
 553              		.cfi_offset 5, -16
 554              		.cfi_offset 6, -12
 555              		.cfi_offset 7, -8
 556              		.cfi_offset 14, -4
 557 0002 4746     		mov	r7, r8
 558 0004 80B4     		push	{r7}
 559              	.LCFI3:
 560              		.cfi_def_cfa_offset 24
 561              		.cfi_offset 8, -24
 248:D:/kuaipan/SEMG/MEMS_SEMG_KL25/KL25 Sample Code_I2c/KL25 Sample Code/kl25_sc_rev10/klxx-sc-baremetal/src/drivers/mcg\mcg.c ****   unsigned char temp_reg;
 249:D:/kuaipan/SEMG/MEMS_SEMG_KL25/KL25 Sample Code_I2c/KL25 Sample Code/kl25_sc_rev10/klxx-sc-baremetal/src/drivers/mcg\mcg.c ****   unsigned char prdiv, vdiv;
 250:D:/kuaipan/SEMG/MEMS_SEMG_KL25/KL25 Sample Code_I2c/KL25 Sample Code/kl25_sc_rev10/klxx-sc-baremetal/src/drivers/mcg\mcg.c ****   short i;
 251:D:/kuaipan/SEMG/MEMS_SEMG_KL25/KL25 Sample Code_I2c/KL25 Sample Code/kl25_sc_rev10/klxx-sc-baremetal/src/drivers/mcg\mcg.c ****   int ref_freq;
 252:D:/kuaipan/SEMG/MEMS_SEMG_KL25/KL25 Sample Code_I2c/KL25 Sample Code/kl25_sc_rev10/klxx-sc-baremetal/src/drivers/mcg\mcg.c ****   int pll_freq;
 253:D:/kuaipan/SEMG/MEMS_SEMG_KL25/KL25 Sample Code_I2c/KL25 Sample Code/kl25_sc_rev10/klxx-sc-baremetal/src/drivers/mcg\mcg.c **** 
 254:D:/kuaipan/SEMG/MEMS_SEMG_KL25/KL25 Sample Code_I2c/KL25 Sample Code/kl25_sc_rev10/klxx-sc-baremetal/src/drivers/mcg\mcg.c ****   
 255:D:/kuaipan/SEMG/MEMS_SEMG_KL25/KL25 Sample Code_I2c/KL25 Sample Code/kl25_sc_rev10/klxx-sc-baremetal/src/drivers/mcg\mcg.c ****   // Check MCG is in PEE mode
 256:D:/kuaipan/SEMG/MEMS_SEMG_KL25/KL25 Sample Code_I2c/KL25 Sample Code/kl25_sc_rev10/klxx-sc-baremetal/src/drivers/mcg\mcg.c ****   if (!((((MCG_S & MCG_S_CLKST_MASK) >> MCG_S_CLKST_SHIFT) == 0x3) && // check CLKS mux has selcted
 562              		.loc 1 256 0
 563 0006 4F4C     		ldr	r4, .L134
 247:D:/kuaipan/SEMG/MEMS_SEMG_KL25/KL25 Sample Code_I2c/KL25 Sample Code/kl25_sc_rev10/klxx-sc-baremetal/src/drivers/mcg\mcg.c **** {
 564              		.loc 1 247 0
 565 0008 071C     		mov	r7, r0
 566              		.loc 1 256 0
 567 000a A579     		ldrb	r5, [r4, #6]
 247:D:/kuaipan/SEMG/MEMS_SEMG_KL25/KL25 Sample Code_I2c/KL25 Sample Code/kl25_sc_rev10/klxx-sc-baremetal/src/drivers/mcg\mcg.c **** {
 568              		.loc 1 247 0
 569 000c 161C     		mov	r6, r2
 570              		.loc 1 256 0
 571 000e 2807     		lsl	r0, r5, #28
 572              	.LVL45:
 573 0010 820F     		lsr	r2, r0, #30
 574              	.LVL46:
 257:D:/kuaipan/SEMG/MEMS_SEMG_KL25/KL25 Sample Code_I2c/KL25 Sample Code/kl25_sc_rev10/klxx-sc-baremetal/src/drivers/mcg\mcg.c ****       (!(MCG_S & MCG_S_IREFST_MASK)) &&                               // check FLL ref is external 
 258:D:/kuaipan/SEMG/MEMS_SEMG_KL25/KL25 Sample Code_I2c/KL25 Sample Code/kl25_sc_rev10/klxx-sc-baremetal/src/drivers/mcg\mcg.c ****       (MCG_S & MCG_S_PLLST_MASK)))                                    // check PLLS mux has selecte
 259:D:/kuaipan/SEMG/MEMS_SEMG_KL25/KL25 Sample Code_I2c/KL25 Sample Code/kl25_sc_rev10/klxx-sc-baremetal/src/drivers/mcg\mcg.c ****   {
 260:D:/kuaipan/SEMG/MEMS_SEMG_KL25/KL25 Sample Code_I2c/KL25 Sample Code/kl25_sc_rev10/klxx-sc-baremetal/src/drivers/mcg\mcg.c ****     return 0x8;                                                       // return error code
 575              		.loc 1 260 0
 576 0012 0820     		mov	r0, #8
 256:D:/kuaipan/SEMG/MEMS_SEMG_KL25/KL25 Sample Code_I2c/KL25 Sample Code/kl25_sc_rev10/klxx-sc-baremetal/src/drivers/mcg\mcg.c ****   if (!((((MCG_S & MCG_S_CLKST_MASK) >> MCG_S_CLKST_SHIFT) == 0x3) && // check CLKS mux has selcted
 577              		.loc 1 256 0
 578 0014 032A     		cmp	r2, #3
 579 0016 02D0     		beq	.L129
 580              	.LVL47:
 581              	.L93:
 261:D:/kuaipan/SEMG/MEMS_SEMG_KL25/KL25 Sample Code_I2c/KL25 Sample Code/kl25_sc_rev10/klxx-sc-baremetal/src/drivers/mcg\mcg.c ****   } 
 262:D:/kuaipan/SEMG/MEMS_SEMG_KL25/KL25 Sample Code_I2c/KL25 Sample Code/kl25_sc_rev10/klxx-sc-baremetal/src/drivers/mcg\mcg.c ****   
 263:D:/kuaipan/SEMG/MEMS_SEMG_KL25/KL25 Sample Code_I2c/KL25 Sample Code/kl25_sc_rev10/klxx-sc-baremetal/src/drivers/mcg\mcg.c ****   // Check PLL divider settings are within spec.
 264:D:/kuaipan/SEMG/MEMS_SEMG_KL25/KL25 Sample Code_I2c/KL25 Sample Code/kl25_sc_rev10/klxx-sc-baremetal/src/drivers/mcg\mcg.c ****   if ((prdiv_val < 1) || (prdiv_val > 25)) {return 0x41;}
 265:D:/kuaipan/SEMG/MEMS_SEMG_KL25/KL25 Sample Code_I2c/KL25 Sample Code/kl25_sc_rev10/klxx-sc-baremetal/src/drivers/mcg\mcg.c ****   if ((vdiv_val < 24) || (vdiv_val > 50)) {return 0x42;}
 266:D:/kuaipan/SEMG/MEMS_SEMG_KL25/KL25 Sample Code_I2c/KL25 Sample Code/kl25_sc_rev10/klxx-sc-baremetal/src/drivers/mcg\mcg.c **** 
 267:D:/kuaipan/SEMG/MEMS_SEMG_KL25/KL25 Sample Code_I2c/KL25 Sample Code/kl25_sc_rev10/klxx-sc-baremetal/src/drivers/mcg\mcg.c ****   // Check PLL reference clock frequency is within spec.
 268:D:/kuaipan/SEMG/MEMS_SEMG_KL25/KL25 Sample Code_I2c/KL25 Sample Code/kl25_sc_rev10/klxx-sc-baremetal/src/drivers/mcg\mcg.c ****   ref_freq = crystal_val / prdiv_val;
 269:D:/kuaipan/SEMG/MEMS_SEMG_KL25/KL25 Sample Code_I2c/KL25 Sample Code/kl25_sc_rev10/klxx-sc-baremetal/src/drivers/mcg\mcg.c ****   if ((ref_freq < 2000000) || (ref_freq > 4000000)) {return 0x43;}
 270:D:/kuaipan/SEMG/MEMS_SEMG_KL25/KL25 Sample Code_I2c/KL25 Sample Code/kl25_sc_rev10/klxx-sc-baremetal/src/drivers/mcg\mcg.c **** 
 271:D:/kuaipan/SEMG/MEMS_SEMG_KL25/KL25 Sample Code_I2c/KL25 Sample Code/kl25_sc_rev10/klxx-sc-baremetal/src/drivers/mcg\mcg.c ****   // Check PLL output frequency is within spec.
 272:D:/kuaipan/SEMG/MEMS_SEMG_KL25/KL25 Sample Code_I2c/KL25 Sample Code/kl25_sc_rev10/klxx-sc-baremetal/src/drivers/mcg\mcg.c ****   pll_freq = (crystal_val / prdiv_val) * vdiv_val;
 273:D:/kuaipan/SEMG/MEMS_SEMG_KL25/KL25 Sample Code_I2c/KL25 Sample Code/kl25_sc_rev10/klxx-sc-baremetal/src/drivers/mcg\mcg.c ****   if ((pll_freq < 48000000) || (pll_freq > 100000000)) {return 0x45;}
 274:D:/kuaipan/SEMG/MEMS_SEMG_KL25/KL25 Sample Code_I2c/KL25 Sample Code/kl25_sc_rev10/klxx-sc-baremetal/src/drivers/mcg\mcg.c ****   
 275:D:/kuaipan/SEMG/MEMS_SEMG_KL25/KL25 Sample Code_I2c/KL25 Sample Code/kl25_sc_rev10/klxx-sc-baremetal/src/drivers/mcg\mcg.c ****   // First move to PBE mode so that the PLL frequency can be safely changed.
 276:D:/kuaipan/SEMG/MEMS_SEMG_KL25/KL25 Sample Code_I2c/KL25 Sample Code/kl25_sc_rev10/klxx-sc-baremetal/src/drivers/mcg\mcg.c ****   // As we are running from the PLL by default the PLL and external clock settings are valid
 277:D:/kuaipan/SEMG/MEMS_SEMG_KL25/KL25 Sample Code_I2c/KL25 Sample Code/kl25_sc_rev10/klxx-sc-baremetal/src/drivers/mcg\mcg.c ****   // To move to PBE from PEE simply requires the switching of the CLKS mux to select the ext clock 
 278:D:/kuaipan/SEMG/MEMS_SEMG_KL25/KL25 Sample Code_I2c/KL25 Sample Code/kl25_sc_rev10/klxx-sc-baremetal/src/drivers/mcg\mcg.c ****   // As CLKS is already 0 the CLKS value can simply be OR'ed into the register 
 279:D:/kuaipan/SEMG/MEMS_SEMG_KL25/KL25 Sample Code_I2c/KL25 Sample Code/kl25_sc_rev10/klxx-sc-baremetal/src/drivers/mcg\mcg.c ****   MCG_C1 |= MCG_C1_CLKS(2); // switch CLKS mux to select external reference clock as MCG_OUT
 280:D:/kuaipan/SEMG/MEMS_SEMG_KL25/KL25 Sample Code_I2c/KL25 Sample Code/kl25_sc_rev10/klxx-sc-baremetal/src/drivers/mcg\mcg.c ****   
 281:D:/kuaipan/SEMG/MEMS_SEMG_KL25/KL25 Sample Code_I2c/KL25 Sample Code/kl25_sc_rev10/klxx-sc-baremetal/src/drivers/mcg\mcg.c ****   // Wait for clock status bits to update 
 282:D:/kuaipan/SEMG/MEMS_SEMG_KL25/KL25 Sample Code_I2c/KL25 Sample Code/kl25_sc_rev10/klxx-sc-baremetal/src/drivers/mcg\mcg.c ****   for (i = 0 ; i < 2000 ; i++)
 283:D:/kuaipan/SEMG/MEMS_SEMG_KL25/KL25 Sample Code_I2c/KL25 Sample Code/kl25_sc_rev10/klxx-sc-baremetal/src/drivers/mcg\mcg.c ****   {
 284:D:/kuaipan/SEMG/MEMS_SEMG_KL25/KL25 Sample Code_I2c/KL25 Sample Code/kl25_sc_rev10/klxx-sc-baremetal/src/drivers/mcg\mcg.c ****     if (((MCG_S & MCG_S_CLKST_MASK) >> MCG_S_CLKST_SHIFT) == 0x2) break; // jump out early if CLKST
 285:D:/kuaipan/SEMG/MEMS_SEMG_KL25/KL25 Sample Code_I2c/KL25 Sample Code/kl25_sc_rev10/klxx-sc-baremetal/src/drivers/mcg\mcg.c ****   }
 286:D:/kuaipan/SEMG/MEMS_SEMG_KL25/KL25 Sample Code_I2c/KL25 Sample Code/kl25_sc_rev10/klxx-sc-baremetal/src/drivers/mcg\mcg.c ****   if (((MCG_S & MCG_S_CLKST_MASK) >> MCG_S_CLKST_SHIFT) != 0x2) return 0x1A; // check EXT CLK is re
 287:D:/kuaipan/SEMG/MEMS_SEMG_KL25/KL25 Sample Code_I2c/KL25 Sample Code/kl25_sc_rev10/klxx-sc-baremetal/src/drivers/mcg\mcg.c **** 
 288:D:/kuaipan/SEMG/MEMS_SEMG_KL25/KL25 Sample Code_I2c/KL25 Sample Code/kl25_sc_rev10/klxx-sc-baremetal/src/drivers/mcg\mcg.c ****   // Now in PBE mode 
 289:D:/kuaipan/SEMG/MEMS_SEMG_KL25/KL25 Sample Code_I2c/KL25 Sample Code/kl25_sc_rev10/klxx-sc-baremetal/src/drivers/mcg\mcg.c ****   // System is clocked off the external clock. 
 290:D:/kuaipan/SEMG/MEMS_SEMG_KL25/KL25 Sample Code_I2c/KL25 Sample Code/kl25_sc_rev10/klxx-sc-baremetal/src/drivers/mcg\mcg.c ****   // Now update the PLL settings and wait for the PLL to re-lock
 291:D:/kuaipan/SEMG/MEMS_SEMG_KL25/KL25 Sample Code_I2c/KL25 Sample Code/kl25_sc_rev10/klxx-sc-baremetal/src/drivers/mcg\mcg.c ****   // Configure MCG_C5
 292:D:/kuaipan/SEMG/MEMS_SEMG_KL25/KL25 Sample Code_I2c/KL25 Sample Code/kl25_sc_rev10/klxx-sc-baremetal/src/drivers/mcg\mcg.c ****   temp_reg = MCG_C5;
 293:D:/kuaipan/SEMG/MEMS_SEMG_KL25/KL25 Sample Code_I2c/KL25 Sample Code/kl25_sc_rev10/klxx-sc-baremetal/src/drivers/mcg\mcg.c ****   temp_reg &= ~MCG_C5_PRDIV0_MASK;
 294:D:/kuaipan/SEMG/MEMS_SEMG_KL25/KL25 Sample Code_I2c/KL25 Sample Code/kl25_sc_rev10/klxx-sc-baremetal/src/drivers/mcg\mcg.c ****   temp_reg |= MCG_C5_PRDIV0(prdiv_val - 1);    //set PLL ref divider
 295:D:/kuaipan/SEMG/MEMS_SEMG_KL25/KL25 Sample Code_I2c/KL25 Sample Code/kl25_sc_rev10/klxx-sc-baremetal/src/drivers/mcg\mcg.c ****   MCG_C5 = temp_reg;
 296:D:/kuaipan/SEMG/MEMS_SEMG_KL25/KL25 Sample Code_I2c/KL25 Sample Code/kl25_sc_rev10/klxx-sc-baremetal/src/drivers/mcg\mcg.c **** 
 297:D:/kuaipan/SEMG/MEMS_SEMG_KL25/KL25 Sample Code_I2c/KL25 Sample Code/kl25_sc_rev10/klxx-sc-baremetal/src/drivers/mcg\mcg.c ****   // Configure MCG_C6
 298:D:/kuaipan/SEMG/MEMS_SEMG_KL25/KL25 Sample Code_I2c/KL25 Sample Code/kl25_sc_rev10/klxx-sc-baremetal/src/drivers/mcg\mcg.c ****   // The PLLS bit is set to enable the PLL, MCGOUT still sourced from ext ref clk
 299:D:/kuaipan/SEMG/MEMS_SEMG_KL25/KL25 Sample Code_I2c/KL25 Sample Code/kl25_sc_rev10/klxx-sc-baremetal/src/drivers/mcg\mcg.c ****   // The loss of lock interrupt can be enabled by seperately OR'ing in the LOLIE bit in MCG_C6
 300:D:/kuaipan/SEMG/MEMS_SEMG_KL25/KL25 Sample Code_I2c/KL25 Sample Code/kl25_sc_rev10/klxx-sc-baremetal/src/drivers/mcg\mcg.c ****   temp_reg = MCG_C6; // store present C6 value
 301:D:/kuaipan/SEMG/MEMS_SEMG_KL25/KL25 Sample Code_I2c/KL25 Sample Code/kl25_sc_rev10/klxx-sc-baremetal/src/drivers/mcg\mcg.c ****   temp_reg &= ~MCG_C6_VDIV0_MASK; // clear VDIV settings
 302:D:/kuaipan/SEMG/MEMS_SEMG_KL25/KL25 Sample Code_I2c/KL25 Sample Code/kl25_sc_rev10/klxx-sc-baremetal/src/drivers/mcg\mcg.c ****   temp_reg |= MCG_C6_PLLS_MASK | MCG_C6_VDIV0(vdiv_val - 24); // write new VDIV and enable PLL
 303:D:/kuaipan/SEMG/MEMS_SEMG_KL25/KL25 Sample Code_I2c/KL25 Sample Code/kl25_sc_rev10/klxx-sc-baremetal/src/drivers/mcg\mcg.c ****   MCG_C6 = temp_reg; // update MCG_C6
 304:D:/kuaipan/SEMG/MEMS_SEMG_KL25/KL25 Sample Code_I2c/KL25 Sample Code/kl25_sc_rev10/klxx-sc-baremetal/src/drivers/mcg\mcg.c **** 
 305:D:/kuaipan/SEMG/MEMS_SEMG_KL25/KL25 Sample Code_I2c/KL25 Sample Code/kl25_sc_rev10/klxx-sc-baremetal/src/drivers/mcg\mcg.c ****   // wait for PLLST status bit to set
 306:D:/kuaipan/SEMG/MEMS_SEMG_KL25/KL25 Sample Code_I2c/KL25 Sample Code/kl25_sc_rev10/klxx-sc-baremetal/src/drivers/mcg\mcg.c ****   for (i = 0 ; i < 2000 ; i++)
 307:D:/kuaipan/SEMG/MEMS_SEMG_KL25/KL25 Sample Code_I2c/KL25 Sample Code/kl25_sc_rev10/klxx-sc-baremetal/src/drivers/mcg\mcg.c ****   {
 308:D:/kuaipan/SEMG/MEMS_SEMG_KL25/KL25 Sample Code_I2c/KL25 Sample Code/kl25_sc_rev10/klxx-sc-baremetal/src/drivers/mcg\mcg.c ****     if (MCG_S & MCG_S_PLLST_MASK) break; // jump out early if PLLST sets before loop finishes
 309:D:/kuaipan/SEMG/MEMS_SEMG_KL25/KL25 Sample Code_I2c/KL25 Sample Code/kl25_sc_rev10/klxx-sc-baremetal/src/drivers/mcg\mcg.c ****   }
 310:D:/kuaipan/SEMG/MEMS_SEMG_KL25/KL25 Sample Code_I2c/KL25 Sample Code/kl25_sc_rev10/klxx-sc-baremetal/src/drivers/mcg\mcg.c ****   if (!(MCG_S & MCG_S_PLLST_MASK)) return 0x16; // check bit is really set and return with error if
 311:D:/kuaipan/SEMG/MEMS_SEMG_KL25/KL25 Sample Code_I2c/KL25 Sample Code/kl25_sc_rev10/klxx-sc-baremetal/src/drivers/mcg\mcg.c **** 
 312:D:/kuaipan/SEMG/MEMS_SEMG_KL25/KL25 Sample Code_I2c/KL25 Sample Code/kl25_sc_rev10/klxx-sc-baremetal/src/drivers/mcg\mcg.c ****   // Wait for LOCK bit to set
 313:D:/kuaipan/SEMG/MEMS_SEMG_KL25/KL25 Sample Code_I2c/KL25 Sample Code/kl25_sc_rev10/klxx-sc-baremetal/src/drivers/mcg\mcg.c ****   for (i = 0 ; i < 4000 ; i++)
 314:D:/kuaipan/SEMG/MEMS_SEMG_KL25/KL25 Sample Code_I2c/KL25 Sample Code/kl25_sc_rev10/klxx-sc-baremetal/src/drivers/mcg\mcg.c ****   {
 315:D:/kuaipan/SEMG/MEMS_SEMG_KL25/KL25 Sample Code_I2c/KL25 Sample Code/kl25_sc_rev10/klxx-sc-baremetal/src/drivers/mcg\mcg.c ****     if (MCG_S & MCG_S_LOCK0_MASK) break; // jump out early if LOCK sets before loop finishes
 316:D:/kuaipan/SEMG/MEMS_SEMG_KL25/KL25 Sample Code_I2c/KL25 Sample Code/kl25_sc_rev10/klxx-sc-baremetal/src/drivers/mcg\mcg.c ****   }
 317:D:/kuaipan/SEMG/MEMS_SEMG_KL25/KL25 Sample Code_I2c/KL25 Sample Code/kl25_sc_rev10/klxx-sc-baremetal/src/drivers/mcg\mcg.c ****   if (!(MCG_S & MCG_S_LOCK0_MASK)) return 0x44; // check bit is really set and return with error if
 318:D:/kuaipan/SEMG/MEMS_SEMG_KL25/KL25 Sample Code_I2c/KL25 Sample Code/kl25_sc_rev10/klxx-sc-baremetal/src/drivers/mcg\mcg.c **** 
 319:D:/kuaipan/SEMG/MEMS_SEMG_KL25/KL25 Sample Code_I2c/KL25 Sample Code/kl25_sc_rev10/klxx-sc-baremetal/src/drivers/mcg\mcg.c ****   // Change CLKS mux to now select the PLL output
 320:D:/kuaipan/SEMG/MEMS_SEMG_KL25/KL25 Sample Code_I2c/KL25 Sample Code/kl25_sc_rev10/klxx-sc-baremetal/src/drivers/mcg\mcg.c ****   MCG_C1 &= ~MCG_C1_CLKS_MASK; // clear CLKS to switch CLKS mux to select PLL as MCG_OUT
 321:D:/kuaipan/SEMG/MEMS_SEMG_KL25/KL25 Sample Code_I2c/KL25 Sample Code/kl25_sc_rev10/klxx-sc-baremetal/src/drivers/mcg\mcg.c **** 
 322:D:/kuaipan/SEMG/MEMS_SEMG_KL25/KL25 Sample Code_I2c/KL25 Sample Code/kl25_sc_rev10/klxx-sc-baremetal/src/drivers/mcg\mcg.c ****   // Wait for clock status bits to update
 323:D:/kuaipan/SEMG/MEMS_SEMG_KL25/KL25 Sample Code_I2c/KL25 Sample Code/kl25_sc_rev10/klxx-sc-baremetal/src/drivers/mcg\mcg.c ****   for (i = 0 ; i < 2000 ; i++)
 324:D:/kuaipan/SEMG/MEMS_SEMG_KL25/KL25 Sample Code_I2c/KL25 Sample Code/kl25_sc_rev10/klxx-sc-baremetal/src/drivers/mcg\mcg.c ****   {
 325:D:/kuaipan/SEMG/MEMS_SEMG_KL25/KL25 Sample Code_I2c/KL25 Sample Code/kl25_sc_rev10/klxx-sc-baremetal/src/drivers/mcg\mcg.c ****     if (((MCG_S & MCG_S_CLKST_MASK) >> MCG_S_CLKST_SHIFT) == 0x3) break; // jump out early if CLKST
 326:D:/kuaipan/SEMG/MEMS_SEMG_KL25/KL25 Sample Code_I2c/KL25 Sample Code/kl25_sc_rev10/klxx-sc-baremetal/src/drivers/mcg\mcg.c ****   }
 327:D:/kuaipan/SEMG/MEMS_SEMG_KL25/KL25 Sample Code_I2c/KL25 Sample Code/kl25_sc_rev10/klxx-sc-baremetal/src/drivers/mcg\mcg.c ****   if (((MCG_S & MCG_S_CLKST_MASK) >> MCG_S_CLKST_SHIFT) != 0x3) return 0x1B; // check CLKST is set 
 328:D:/kuaipan/SEMG/MEMS_SEMG_KL25/KL25 Sample Code_I2c/KL25 Sample Code/kl25_sc_rev10/klxx-sc-baremetal/src/drivers/mcg\mcg.c **** 
 329:D:/kuaipan/SEMG/MEMS_SEMG_KL25/KL25 Sample Code_I2c/KL25 Sample Code/kl25_sc_rev10/klxx-sc-baremetal/src/drivers/mcg\mcg.c ****   // Now in PEE
 330:D:/kuaipan/SEMG/MEMS_SEMG_KL25/KL25 Sample Code_I2c/KL25 Sample Code/kl25_sc_rev10/klxx-sc-baremetal/src/drivers/mcg\mcg.c ****   // Use actual PLL settings to calculate PLL frequency
 331:D:/kuaipan/SEMG/MEMS_SEMG_KL25/KL25 Sample Code_I2c/KL25 Sample Code/kl25_sc_rev10/klxx-sc-baremetal/src/drivers/mcg\mcg.c ****   prdiv = ((MCG_C5 & MCG_C5_PRDIV0_MASK) + 1);
 332:D:/kuaipan/SEMG/MEMS_SEMG_KL25/KL25 Sample Code_I2c/KL25 Sample Code/kl25_sc_rev10/klxx-sc-baremetal/src/drivers/mcg\mcg.c ****   vdiv = ((MCG_C6 & MCG_C6_VDIV0_MASK) + 24);
 333:D:/kuaipan/SEMG/MEMS_SEMG_KL25/KL25 Sample Code_I2c/KL25 Sample Code/kl25_sc_rev10/klxx-sc-baremetal/src/drivers/mcg\mcg.c ****   
 334:D:/kuaipan/SEMG/MEMS_SEMG_KL25/KL25 Sample Code_I2c/KL25 Sample Code/kl25_sc_rev10/klxx-sc-baremetal/src/drivers/mcg\mcg.c ****   return ((crystal_val / prdiv) * vdiv); //MCGOUT equals PLL output frequency
 335:D:/kuaipan/SEMG/MEMS_SEMG_KL25/KL25 Sample Code_I2c/KL25 Sample Code/kl25_sc_rev10/klxx-sc-baremetal/src/drivers/mcg\mcg.c **** } // new_pll_freq
 582              		.loc 1 335 0
 583              		@ sp needed for prologue
 584 0018 04BC     		pop	{r2}
 585 001a 9046     		mov	r8, r2
 586 001c F0BD     		pop	{r4, r5, r6, r7, pc}
 587              	.LVL48:
 588              	.L129:
 257:D:/kuaipan/SEMG/MEMS_SEMG_KL25/KL25 Sample Code_I2c/KL25 Sample Code/kl25_sc_rev10/klxx-sc-baremetal/src/drivers/mcg\mcg.c ****       (!(MCG_S & MCG_S_IREFST_MASK)) &&                               // check FLL ref is external 
 589              		.loc 1 257 0
 590 001e A379     		ldrb	r3, [r4, #6]
 256:D:/kuaipan/SEMG/MEMS_SEMG_KL25/KL25 Sample Code_I2c/KL25 Sample Code/kl25_sc_rev10/klxx-sc-baremetal/src/drivers/mcg\mcg.c ****   if (!((((MCG_S & MCG_S_CLKST_MASK) >> MCG_S_CLKST_SHIFT) == 0x3) && // check CLKS mux has selcted
 591              		.loc 1 256 0
 592 0020 DB06     		lsl	r3, r3, #27
 593 0022 F9D4     		bmi	.L93
 258:D:/kuaipan/SEMG/MEMS_SEMG_KL25/KL25 Sample Code_I2c/KL25 Sample Code/kl25_sc_rev10/klxx-sc-baremetal/src/drivers/mcg\mcg.c ****       (MCG_S & MCG_S_PLLST_MASK)))                                    // check PLLS mux has selecte
 594              		.loc 1 258 0
 595 0024 A579     		ldrb	r5, [r4, #6]
 256:D:/kuaipan/SEMG/MEMS_SEMG_KL25/KL25 Sample Code_I2c/KL25 Sample Code/kl25_sc_rev10/klxx-sc-baremetal/src/drivers/mcg\mcg.c ****   if (!((((MCG_S & MCG_S_CLKST_MASK) >> MCG_S_CLKST_SHIFT) == 0x3) && // check CLKS mux has selcted
 596              		.loc 1 256 0
 597 0026 AB06     		lsl	r3, r5, #26
 598 0028 F6D5     		bpl	.L93
 264:D:/kuaipan/SEMG/MEMS_SEMG_KL25/KL25 Sample Code_I2c/KL25 Sample Code/kl25_sc_rev10/klxx-sc-baremetal/src/drivers/mcg\mcg.c ****   if ((prdiv_val < 1) || (prdiv_val > 25)) {return 0x41;}
 599              		.loc 1 264 0
 600 002a 481E     		sub	r0, r1, #1
 601 002c C5B2     		uxtb	r5, r0
 602 002e 4120     		mov	r0, #65
 603 0030 182D     		cmp	r5, #24
 604 0032 F1D8     		bhi	.L93
 265:D:/kuaipan/SEMG/MEMS_SEMG_KL25/KL25 Sample Code_I2c/KL25 Sample Code/kl25_sc_rev10/klxx-sc-baremetal/src/drivers/mcg\mcg.c ****   if ((vdiv_val < 24) || (vdiv_val > 50)) {return 0x42;}
 605              		.loc 1 265 0
 606 0034 321C     		mov	r2, r6
 607 0036 183A     		sub	r2, r2, #24
 608 0038 D3B2     		uxtb	r3, r2
 609 003a 9846     		mov	r8, r3
 610 003c 4220     		mov	r0, #66
 611 003e 1A2B     		cmp	r3, #26
 612 0040 EAD8     		bhi	.L93
 268:D:/kuaipan/SEMG/MEMS_SEMG_KL25/KL25 Sample Code_I2c/KL25 Sample Code/kl25_sc_rev10/klxx-sc-baremetal/src/drivers/mcg\mcg.c ****   ref_freq = crystal_val / prdiv_val;
 613              		.loc 1 268 0
 614 0042 381C     		mov	r0, r7
 615 0044 FFF7FEFF 		bl	__aeabi_idiv
 616              	.LVL49:
 269:D:/kuaipan/SEMG/MEMS_SEMG_KL25/KL25 Sample Code_I2c/KL25 Sample Code/kl25_sc_rev10/klxx-sc-baremetal/src/drivers/mcg\mcg.c ****   if ((ref_freq < 2000000) || (ref_freq > 4000000)) {return 0x43;}
 617              		.loc 1 269 0
 618 0048 3F49     		ldr	r1, .L134+4
 619 004a 404A     		ldr	r2, .L134+8
 620 004c 4118     		add	r1, r0, r1
 268:D:/kuaipan/SEMG/MEMS_SEMG_KL25/KL25 Sample Code_I2c/KL25 Sample Code/kl25_sc_rev10/klxx-sc-baremetal/src/drivers/mcg\mcg.c ****   ref_freq = crystal_val / prdiv_val;
 621              		.loc 1 268 0
 622 004e 031C     		mov	r3, r0
 623              	.LVL50:
 269:D:/kuaipan/SEMG/MEMS_SEMG_KL25/KL25 Sample Code_I2c/KL25 Sample Code/kl25_sc_rev10/klxx-sc-baremetal/src/drivers/mcg\mcg.c ****   if ((ref_freq < 2000000) || (ref_freq > 4000000)) {return 0x43;}
 624              		.loc 1 269 0
 625 0050 4320     		mov	r0, #67
 626              	.LVL51:
 627 0052 9142     		cmp	r1, r2
 628 0054 E0D8     		bhi	.L93
 629              	.LVL52:
 272:D:/kuaipan/SEMG/MEMS_SEMG_KL25/KL25 Sample Code_I2c/KL25 Sample Code/kl25_sc_rev10/klxx-sc-baremetal/src/drivers/mcg\mcg.c ****   pll_freq = (crystal_val / prdiv_val) * vdiv_val;
 630              		.loc 1 272 0
 631 0056 5E43     		mul	r6, r3
 632              	.LVL53:
 273:D:/kuaipan/SEMG/MEMS_SEMG_KL25/KL25 Sample Code_I2c/KL25 Sample Code/kl25_sc_rev10/klxx-sc-baremetal/src/drivers/mcg\mcg.c ****   if ((pll_freq < 48000000) || (pll_freq > 100000000)) {return 0x45;}
 633              		.loc 1 273 0
 634 0058 3D48     		ldr	r0, .L134+12
 635 005a 3E49     		ldr	r1, .L134+16
 636 005c 3318     		add	r3, r6, r0
 637              	.LVL54:
 638 005e 4520     		mov	r0, #69
 639 0060 8B42     		cmp	r3, r1
 640 0062 D9D8     		bhi	.L93
 279:D:/kuaipan/SEMG/MEMS_SEMG_KL25/KL25 Sample Code_I2c/KL25 Sample Code/kl25_sc_rev10/klxx-sc-baremetal/src/drivers/mcg\mcg.c ****   MCG_C1 |= MCG_C1_CLKS(2); // switch CLKS mux to select external reference clock as MCG_OUT
 641              		.loc 1 279 0
 642 0064 2278     		ldrb	r2, [r4]
 643 0066 8026     		mov	r6, #128
 644 0068 1643     		orr	r6, r2
 645 006a FA20     		mov	r0, #250
 646 006c 2670     		strb	r6, [r4]
 647              	.LVL55:
 648 006e C000     		lsl	r0, r0, #3
 284:D:/kuaipan/SEMG/MEMS_SEMG_KL25/KL25 Sample Code_I2c/KL25 Sample Code/kl25_sc_rev10/klxx-sc-baremetal/src/drivers/mcg\mcg.c ****     if (((MCG_S & MCG_S_CLKST_MASK) >> MCG_S_CLKST_SHIFT) == 0x2) break; // jump out early if CLKST
 649              		.loc 1 284 0
 650 0070 0C23     		mov	r3, #12
 651 0072 09E0     		b	.L95
 652              	.LVL56:
 653              	.L130:
 654 0074 A679     		ldrb	r6, [r4, #6]
 655 0076 0138     		sub	r0, r0, #1
 656 0078 82B2     		uxth	r2, r0
 657 007a 1E40     		and	r6, r3
 658 007c 082E     		cmp	r6, #8
 659 007e 07D0     		beq	.L94
 660 0080 013A     		sub	r2, r2, #1
 661 0082 90B2     		uxth	r0, r2
 282:D:/kuaipan/SEMG/MEMS_SEMG_KL25/KL25 Sample Code_I2c/KL25 Sample Code/kl25_sc_rev10/klxx-sc-baremetal/src/drivers/mcg\mcg.c ****   for (i = 0 ; i < 2000 ; i++)
 662              		.loc 1 282 0
 663 0084 0028     		cmp	r0, #0
 664 0086 03D0     		beq	.L94
 665              	.L95:
 284:D:/kuaipan/SEMG/MEMS_SEMG_KL25/KL25 Sample Code_I2c/KL25 Sample Code/kl25_sc_rev10/klxx-sc-baremetal/src/drivers/mcg\mcg.c ****     if (((MCG_S & MCG_S_CLKST_MASK) >> MCG_S_CLKST_SHIFT) == 0x2) break; // jump out early if CLKST
 666              		.loc 1 284 0
 667 0088 A179     		ldrb	r1, [r4, #6]
 668 008a 1940     		and	r1, r3
 669 008c 0829     		cmp	r1, #8
 670 008e F1D1     		bne	.L130
 671              	.L94:
 286:D:/kuaipan/SEMG/MEMS_SEMG_KL25/KL25 Sample Code_I2c/KL25 Sample Code/kl25_sc_rev10/klxx-sc-baremetal/src/drivers/mcg\mcg.c ****   if (((MCG_S & MCG_S_CLKST_MASK) >> MCG_S_CLKST_SHIFT) != 0x2) return 0x1A; // check EXT CLK is re
 672              		.loc 1 286 0
 673 0090 2C4C     		ldr	r4, .L134
 674 0092 1A20     		mov	r0, #26
 675 0094 A379     		ldrb	r3, [r4, #6]
 676 0096 1907     		lsl	r1, r3, #28
 677 0098 8A0F     		lsr	r2, r1, #30
 678 009a 022A     		cmp	r2, #2
 679 009c BCD1     		bne	.L93
 292:D:/kuaipan/SEMG/MEMS_SEMG_KL25/KL25 Sample Code_I2c/KL25 Sample Code/kl25_sc_rev10/klxx-sc-baremetal/src/drivers/mcg\mcg.c ****   temp_reg = MCG_C5;
 680              		.loc 1 292 0
 681 009e 2679     		ldrb	r6, [r4, #4]
 682              	.LVL57:
 293:D:/kuaipan/SEMG/MEMS_SEMG_KL25/KL25 Sample Code_I2c/KL25 Sample Code/kl25_sc_rev10/klxx-sc-baremetal/src/drivers/mcg\mcg.c ****   temp_reg &= ~MCG_C5_PRDIV0_MASK;
 683              		.loc 1 293 0
 684 00a0 1F20     		mov	r0, #31
 685 00a2 8643     		bic	r6, r0
 686              	.LVL58:
 294:D:/kuaipan/SEMG/MEMS_SEMG_KL25/KL25 Sample Code_I2c/KL25 Sample Code/kl25_sc_rev10/klxx-sc-baremetal/src/drivers/mcg\mcg.c ****   temp_reg |= MCG_C5_PRDIV0(prdiv_val - 1);    //set PLL ref divider
 687              		.loc 1 294 0
 688 00a4 3543     		orr	r5, r6
 689              	.LVL59:
 295:D:/kuaipan/SEMG/MEMS_SEMG_KL25/KL25 Sample Code_I2c/KL25 Sample Code/kl25_sc_rev10/klxx-sc-baremetal/src/drivers/mcg\mcg.c ****   MCG_C5 = temp_reg;
 690              		.loc 1 295 0
 691 00a6 2571     		strb	r5, [r4, #4]
 300:D:/kuaipan/SEMG/MEMS_SEMG_KL25/KL25 Sample Code_I2c/KL25 Sample Code/kl25_sc_rev10/klxx-sc-baremetal/src/drivers/mcg\mcg.c ****   temp_reg = MCG_C6; // store present C6 value
 692              		.loc 1 300 0
 693 00a8 6579     		ldrb	r5, [r4, #5]
 694              	.LVL60:
 302:D:/kuaipan/SEMG/MEMS_SEMG_KL25/KL25 Sample Code_I2c/KL25 Sample Code/kl25_sc_rev10/klxx-sc-baremetal/src/drivers/mcg\mcg.c ****   temp_reg |= MCG_C6_PLLS_MASK | MCG_C6_VDIV0(vdiv_val - 24); // write new VDIV and enable PLL
 695              		.loc 1 302 0
 696 00aa 4021     		mov	r1, #64
 301:D:/kuaipan/SEMG/MEMS_SEMG_KL25/KL25 Sample Code_I2c/KL25 Sample Code/kl25_sc_rev10/klxx-sc-baremetal/src/drivers/mcg\mcg.c ****   temp_reg &= ~MCG_C6_VDIV0_MASK; // clear VDIV settings
 697              		.loc 1 301 0
 698 00ac 8543     		bic	r5, r0
 699              	.LVL61:
 700 00ae 2B1C     		mov	r3, r5
 302:D:/kuaipan/SEMG/MEMS_SEMG_KL25/KL25 Sample Code_I2c/KL25 Sample Code/kl25_sc_rev10/klxx-sc-baremetal/src/drivers/mcg\mcg.c ****   temp_reg |= MCG_C6_PLLS_MASK | MCG_C6_VDIV0(vdiv_val - 24); // write new VDIV and enable PLL
 701              		.loc 1 302 0
 702 00b0 0B43     		orr	r3, r1
 703 00b2 4246     		mov	r2, r8
 704 00b4 1343     		orr	r3, r2
 705              	.LVL62:
 303:D:/kuaipan/SEMG/MEMS_SEMG_KL25/KL25 Sample Code_I2c/KL25 Sample Code/kl25_sc_rev10/klxx-sc-baremetal/src/drivers/mcg\mcg.c ****   MCG_C6 = temp_reg; // update MCG_C6
 706              		.loc 1 303 0
 707 00b6 FA26     		mov	r6, #250
 708 00b8 6371     		strb	r3, [r4, #5]
 709              	.LVL63:
 308:D:/kuaipan/SEMG/MEMS_SEMG_KL25/KL25 Sample Code_I2c/KL25 Sample Code/kl25_sc_rev10/klxx-sc-baremetal/src/drivers/mcg\mcg.c ****     if (MCG_S & MCG_S_PLLST_MASK) break; // jump out early if PLLST sets before loop finishes
 710              		.loc 1 308 0
 711 00ba 2025     		mov	r5, #32
 303:D:/kuaipan/SEMG/MEMS_SEMG_KL25/KL25 Sample Code_I2c/KL25 Sample Code/kl25_sc_rev10/klxx-sc-baremetal/src/drivers/mcg\mcg.c ****   MCG_C6 = temp_reg; // update MCG_C6
 712              		.loc 1 303 0
 713 00bc F300     		lsl	r3, r6, #3
 714              	.LVL64:
 715 00be 03E0     		b	.L97
 716              	.LVL65:
 717              	.L131:
 718 00c0 013B     		sub	r3, r3, #1
 719 00c2 9BB2     		uxth	r3, r3
 306:D:/kuaipan/SEMG/MEMS_SEMG_KL25/KL25 Sample Code_I2c/KL25 Sample Code/kl25_sc_rev10/klxx-sc-baremetal/src/drivers/mcg\mcg.c ****   for (i = 0 ; i < 2000 ; i++)
 720              		.loc 1 306 0
 721 00c4 002B     		cmp	r3, #0
 722 00c6 02D0     		beq	.L96
 723              	.L97:
 308:D:/kuaipan/SEMG/MEMS_SEMG_KL25/KL25 Sample Code_I2c/KL25 Sample Code/kl25_sc_rev10/klxx-sc-baremetal/src/drivers/mcg\mcg.c ****     if (MCG_S & MCG_S_PLLST_MASK) break; // jump out early if PLLST sets before loop finishes
 724              		.loc 1 308 0
 725 00c8 A079     		ldrb	r0, [r4, #6]
 726 00ca 2842     		tst	r0, r5
 727 00cc F8D0     		beq	.L131
 728              	.L96:
 310:D:/kuaipan/SEMG/MEMS_SEMG_KL25/KL25 Sample Code_I2c/KL25 Sample Code/kl25_sc_rev10/klxx-sc-baremetal/src/drivers/mcg\mcg.c ****   if (!(MCG_S & MCG_S_PLLST_MASK)) return 0x16; // check bit is really set and return with error if
 729              		.loc 1 310 0
 730 00ce 1D4C     		ldr	r4, .L134
 731 00d0 1620     		mov	r0, #22
 732 00d2 A179     		ldrb	r1, [r4, #6]
 733 00d4 8B06     		lsl	r3, r1, #26
 734 00d6 9FD5     		bpl	.L93
 735 00d8 FA22     		mov	r2, #250
 736 00da 1001     		lsl	r0, r2, #4
 315:D:/kuaipan/SEMG/MEMS_SEMG_KL25/KL25 Sample Code_I2c/KL25 Sample Code/kl25_sc_rev10/klxx-sc-baremetal/src/drivers/mcg\mcg.c ****     if (MCG_S & MCG_S_LOCK0_MASK) break; // jump out early if LOCK sets before loop finishes
 737              		.loc 1 315 0
 738 00dc 4026     		mov	r6, #64
 739 00de 03E0     		b	.L99
 740              	.L132:
 741 00e0 0138     		sub	r0, r0, #1
 742 00e2 80B2     		uxth	r0, r0
 313:D:/kuaipan/SEMG/MEMS_SEMG_KL25/KL25 Sample Code_I2c/KL25 Sample Code/kl25_sc_rev10/klxx-sc-baremetal/src/drivers/mcg\mcg.c ****   for (i = 0 ; i < 4000 ; i++)
 743              		.loc 1 313 0
 744 00e4 0028     		cmp	r0, #0
 745 00e6 02D0     		beq	.L98
 746              	.L99:
 315:D:/kuaipan/SEMG/MEMS_SEMG_KL25/KL25 Sample Code_I2c/KL25 Sample Code/kl25_sc_rev10/klxx-sc-baremetal/src/drivers/mcg\mcg.c ****     if (MCG_S & MCG_S_LOCK0_MASK) break; // jump out early if LOCK sets before loop finishes
 747              		.loc 1 315 0
 748 00e8 A579     		ldrb	r5, [r4, #6]
 749 00ea 3542     		tst	r5, r6
 750 00ec F8D0     		beq	.L132
 751              	.L98:
 317:D:/kuaipan/SEMG/MEMS_SEMG_KL25/KL25 Sample Code_I2c/KL25 Sample Code/kl25_sc_rev10/klxx-sc-baremetal/src/drivers/mcg\mcg.c ****   if (!(MCG_S & MCG_S_LOCK0_MASK)) return 0x44; // check bit is really set and return with error if
 752              		.loc 1 317 0
 753 00ee 154C     		ldr	r4, .L134
 754 00f0 4420     		mov	r0, #68
 755 00f2 A379     		ldrb	r3, [r4, #6]
 756 00f4 5B06     		lsl	r3, r3, #25
 757 00f6 00D4     		bmi	.LCB867
 758 00f8 8EE7     		b	.L93	@long jump
 759              	.LCB867:
 320:D:/kuaipan/SEMG/MEMS_SEMG_KL25/KL25 Sample Code_I2c/KL25 Sample Code/kl25_sc_rev10/klxx-sc-baremetal/src/drivers/mcg\mcg.c ****   MCG_C1 &= ~MCG_C1_CLKS_MASK; // clear CLKS to switch CLKS mux to select PLL as MCG_OUT
 760              		.loc 1 320 0
 761 00fa 2178     		ldrb	r1, [r4]
 762 00fc 3F22     		mov	r2, #63
 763 00fe 0A40     		and	r2, r1
 764 0100 FA26     		mov	r6, #250
 765 0102 2270     		strb	r2, [r4]
 766              	.LVL66:
 767 0104 F300     		lsl	r3, r6, #3
 325:D:/kuaipan/SEMG/MEMS_SEMG_KL25/KL25 Sample Code_I2c/KL25 Sample Code/kl25_sc_rev10/klxx-sc-baremetal/src/drivers/mcg\mcg.c ****     if (((MCG_S & MCG_S_CLKST_MASK) >> MCG_S_CLKST_SHIFT) == 0x3) break; // jump out early if CLKST
 768              		.loc 1 325 0
 769 0106 0C25     		mov	r5, #12
 770 0108 03E0     		b	.L101
 771              	.LVL67:
 772              	.L133:
 773 010a 013B     		sub	r3, r3, #1
 774 010c 9BB2     		uxth	r3, r3
 323:D:/kuaipan/SEMG/MEMS_SEMG_KL25/KL25 Sample Code_I2c/KL25 Sample Code/kl25_sc_rev10/klxx-sc-baremetal/src/drivers/mcg\mcg.c ****   for (i = 0 ; i < 2000 ; i++)
 775              		.loc 1 323 0
 776 010e 002B     		cmp	r3, #0
 777 0110 03D0     		beq	.L100
 778              	.L101:
 325:D:/kuaipan/SEMG/MEMS_SEMG_KL25/KL25 Sample Code_I2c/KL25 Sample Code/kl25_sc_rev10/klxx-sc-baremetal/src/drivers/mcg\mcg.c ****     if (((MCG_S & MCG_S_CLKST_MASK) >> MCG_S_CLKST_SHIFT) == 0x3) break; // jump out early if CLKST
 779              		.loc 1 325 0
 780 0112 A079     		ldrb	r0, [r4, #6]
 781 0114 2840     		and	r0, r5
 782 0116 0C28     		cmp	r0, #12
 783 0118 F7D1     		bne	.L133
 784              	.L100:
 327:D:/kuaipan/SEMG/MEMS_SEMG_KL25/KL25 Sample Code_I2c/KL25 Sample Code/kl25_sc_rev10/klxx-sc-baremetal/src/drivers/mcg\mcg.c ****   if (((MCG_S & MCG_S_CLKST_MASK) >> MCG_S_CLKST_SHIFT) != 0x3) return 0x1B; // check CLKST is set 
 785              		.loc 1 327 0
 786 011a 0A4C     		ldr	r4, .L134
 787 011c 1B20     		mov	r0, #27
 788 011e A179     		ldrb	r1, [r4, #6]
 789 0120 0A07     		lsl	r2, r1, #28
 790 0122 960F     		lsr	r6, r2, #30
 791 0124 032E     		cmp	r6, #3
 792 0126 00D0     		beq	.LCB910
 793 0128 76E7     		b	.L93	@long jump
 794              	.LCB910:
 331:D:/kuaipan/SEMG/MEMS_SEMG_KL25/KL25 Sample Code_I2c/KL25 Sample Code/kl25_sc_rev10/klxx-sc-baremetal/src/drivers/mcg\mcg.c ****   prdiv = ((MCG_C5 & MCG_C5_PRDIV0_MASK) + 1);
 795              		.loc 1 331 0
 796 012a 2179     		ldrb	r1, [r4, #4]
 797              	.LVL68:
 332:D:/kuaipan/SEMG/MEMS_SEMG_KL25/KL25 Sample Code_I2c/KL25 Sample Code/kl25_sc_rev10/klxx-sc-baremetal/src/drivers/mcg\mcg.c ****   vdiv = ((MCG_C6 & MCG_C6_VDIV0_MASK) + 24);
 798              		.loc 1 332 0
 799 012c 6579     		ldrb	r5, [r4, #5]
 800              	.LVL69:
 331:D:/kuaipan/SEMG/MEMS_SEMG_KL25/KL25 Sample Code_I2c/KL25 Sample Code/kl25_sc_rev10/klxx-sc-baremetal/src/drivers/mcg\mcg.c ****   prdiv = ((MCG_C5 & MCG_C5_PRDIV0_MASK) + 1);
 801              		.loc 1 331 0
 802 012e 1F24     		mov	r4, #31
 803 0130 2140     		and	r1, r4
 804              	.LVL70:
 334:D:/kuaipan/SEMG/MEMS_SEMG_KL25/KL25 Sample Code_I2c/KL25 Sample Code/kl25_sc_rev10/klxx-sc-baremetal/src/drivers/mcg\mcg.c ****   return ((crystal_val / prdiv) * vdiv); //MCGOUT equals PLL output frequency
 805              		.loc 1 334 0
 806 0132 381C     		mov	r0, r7
 807 0134 0131     		add	r1, r1, #1
 808 0136 FFF7FEFF 		bl	__aeabi_idiv
 809              	.LVL71:
 332:D:/kuaipan/SEMG/MEMS_SEMG_KL25/KL25 Sample Code_I2c/KL25 Sample Code/kl25_sc_rev10/klxx-sc-baremetal/src/drivers/mcg\mcg.c ****   vdiv = ((MCG_C6 & MCG_C6_VDIV0_MASK) + 24);
 810              		.loc 1 332 0
 811 013a 2F1C     		mov	r7, r5
 812              	.LVL72:
 813 013c 2740     		and	r7, r4
 334:D:/kuaipan/SEMG/MEMS_SEMG_KL25/KL25 Sample Code_I2c/KL25 Sample Code/kl25_sc_rev10/klxx-sc-baremetal/src/drivers/mcg\mcg.c ****   return ((crystal_val / prdiv) * vdiv); //MCGOUT equals PLL output frequency
 814              		.loc 1 334 0
 815 013e 1837     		add	r7, r7, #24
 816 0140 7843     		mul	r0, r7
 817 0142 69E7     		b	.L93
 818              	.L135:
 819              		.align	2
 820              	.L134:
 821 0144 00400640 		.word	1074151424
 822 0148 807BE1FF 		.word	-2000000
 823 014c 80841E00 		.word	2000000
 824 0150 009423FD 		.word	-48000000
 825 0154 00751903 		.word	52000000
 826              		.cfi_endproc
 827              	.LFE1:
 829              		.section	.text.pee_pbe,"ax",%progbits
 830              		.align	2
 831              		.global	pee_pbe
 832              		.code	16
 833              		.thumb_func
 835              	pee_pbe:
 836              	.LFB2:
 336:D:/kuaipan/SEMG/MEMS_SEMG_KL25/KL25 Sample Code_I2c/KL25 Sample Code/kl25_sc_rev10/klxx-sc-baremetal/src/drivers/mcg\mcg.c **** 
 337:D:/kuaipan/SEMG/MEMS_SEMG_KL25/KL25 Sample Code_I2c/KL25 Sample Code/kl25_sc_rev10/klxx-sc-baremetal/src/drivers/mcg\mcg.c **** 
 338:D:/kuaipan/SEMG/MEMS_SEMG_KL25/KL25 Sample Code_I2c/KL25 Sample Code/kl25_sc_rev10/klxx-sc-baremetal/src/drivers/mcg\mcg.c **** /********************************************************************/
 339:D:/kuaipan/SEMG/MEMS_SEMG_KL25/KL25 Sample Code_I2c/KL25 Sample Code/kl25_sc_rev10/klxx-sc-baremetal/src/drivers/mcg\mcg.c **** 
 340:D:/kuaipan/SEMG/MEMS_SEMG_KL25/KL25 Sample Code_I2c/KL25 Sample Code/kl25_sc_rev10/klxx-sc-baremetal/src/drivers/mcg\mcg.c **** int pee_pbe(int crystal_val)
 341:D:/kuaipan/SEMG/MEMS_SEMG_KL25/KL25 Sample Code_I2c/KL25 Sample Code/kl25_sc_rev10/klxx-sc-baremetal/src/drivers/mcg\mcg.c **** {
 837              		.loc 1 341 0
 838              		.cfi_startproc
 839              	.LVL73:
 840 0000 10B5     		push	{r4, lr}
 841              	.LCFI4:
 842              		.cfi_def_cfa_offset 8
 843              		.cfi_offset 4, -8
 844              		.cfi_offset 14, -4
 342:D:/kuaipan/SEMG/MEMS_SEMG_KL25/KL25 Sample Code_I2c/KL25 Sample Code/kl25_sc_rev10/klxx-sc-baremetal/src/drivers/mcg\mcg.c ****   short i;
 343:D:/kuaipan/SEMG/MEMS_SEMG_KL25/KL25 Sample Code_I2c/KL25 Sample Code/kl25_sc_rev10/klxx-sc-baremetal/src/drivers/mcg\mcg.c ****   
 344:D:/kuaipan/SEMG/MEMS_SEMG_KL25/KL25 Sample Code_I2c/KL25 Sample Code/kl25_sc_rev10/klxx-sc-baremetal/src/drivers/mcg\mcg.c **** // Check MCG is in PEE mode
 345:D:/kuaipan/SEMG/MEMS_SEMG_KL25/KL25 Sample Code_I2c/KL25 Sample Code/kl25_sc_rev10/klxx-sc-baremetal/src/drivers/mcg\mcg.c ****   if (!((((MCG_S & MCG_S_CLKST_MASK) >> MCG_S_CLKST_SHIFT) == 0x3) && // check CLKS mux has selcted
 845              		.loc 1 345 0
 846 0002 164B     		ldr	r3, .L155
 847 0004 9A79     		ldrb	r2, [r3, #6]
 848 0006 1107     		lsl	r1, r2, #28
 849 0008 8C0F     		lsr	r4, r1, #30
 850 000a 032C     		cmp	r4, #3
 851 000c 01D0     		beq	.L153
 852              	.L142:
 346:D:/kuaipan/SEMG/MEMS_SEMG_KL25/KL25 Sample Code_I2c/KL25 Sample Code/kl25_sc_rev10/klxx-sc-baremetal/src/drivers/mcg\mcg.c ****       (!(MCG_S & MCG_S_IREFST_MASK)) &&                               // check FLL ref is external 
 347:D:/kuaipan/SEMG/MEMS_SEMG_KL25/KL25 Sample Code_I2c/KL25 Sample Code/kl25_sc_rev10/klxx-sc-baremetal/src/drivers/mcg\mcg.c ****       (MCG_S & MCG_S_PLLST_MASK)))                                    // check PLLS mux has selecte
 348:D:/kuaipan/SEMG/MEMS_SEMG_KL25/KL25 Sample Code_I2c/KL25 Sample Code/kl25_sc_rev10/klxx-sc-baremetal/src/drivers/mcg\mcg.c ****   {
 349:D:/kuaipan/SEMG/MEMS_SEMG_KL25/KL25 Sample Code_I2c/KL25 Sample Code/kl25_sc_rev10/klxx-sc-baremetal/src/drivers/mcg\mcg.c ****     return 0x8;                                                       // return error code
 853              		.loc 1 349 0
 854 000e 0820     		mov	r0, #8
 855              	.LVL74:
 856              	.L137:
 350:D:/kuaipan/SEMG/MEMS_SEMG_KL25/KL25 Sample Code_I2c/KL25 Sample Code/kl25_sc_rev10/klxx-sc-baremetal/src/drivers/mcg\mcg.c ****   } 
 351:D:/kuaipan/SEMG/MEMS_SEMG_KL25/KL25 Sample Code_I2c/KL25 Sample Code/kl25_sc_rev10/klxx-sc-baremetal/src/drivers/mcg\mcg.c ****   
 352:D:/kuaipan/SEMG/MEMS_SEMG_KL25/KL25 Sample Code_I2c/KL25 Sample Code/kl25_sc_rev10/klxx-sc-baremetal/src/drivers/mcg\mcg.c **** // As we are running from the PLL by default the PLL and external clock settings are valid
 353:D:/kuaipan/SEMG/MEMS_SEMG_KL25/KL25 Sample Code_I2c/KL25 Sample Code/kl25_sc_rev10/klxx-sc-baremetal/src/drivers/mcg\mcg.c **** // To move to PBE from PEE simply requires the switching of the CLKS mux to select the ext clock 
 354:D:/kuaipan/SEMG/MEMS_SEMG_KL25/KL25 Sample Code_I2c/KL25 Sample Code/kl25_sc_rev10/klxx-sc-baremetal/src/drivers/mcg\mcg.c **** // As CLKS is already 0 the CLKS value can simply be OR'ed into the register 
 355:D:/kuaipan/SEMG/MEMS_SEMG_KL25/KL25 Sample Code_I2c/KL25 Sample Code/kl25_sc_rev10/klxx-sc-baremetal/src/drivers/mcg\mcg.c ****   MCG_C1 |= MCG_C1_CLKS(2); // switch CLKS mux to select external reference clock as MCG_OUT
 356:D:/kuaipan/SEMG/MEMS_SEMG_KL25/KL25 Sample Code_I2c/KL25 Sample Code/kl25_sc_rev10/klxx-sc-baremetal/src/drivers/mcg\mcg.c ****   
 357:D:/kuaipan/SEMG/MEMS_SEMG_KL25/KL25 Sample Code_I2c/KL25 Sample Code/kl25_sc_rev10/klxx-sc-baremetal/src/drivers/mcg\mcg.c **** // Wait for clock status bits to update 
 358:D:/kuaipan/SEMG/MEMS_SEMG_KL25/KL25 Sample Code_I2c/KL25 Sample Code/kl25_sc_rev10/klxx-sc-baremetal/src/drivers/mcg\mcg.c ****   for (i = 0 ; i < 2000 ; i++)
 359:D:/kuaipan/SEMG/MEMS_SEMG_KL25/KL25 Sample Code_I2c/KL25 Sample Code/kl25_sc_rev10/klxx-sc-baremetal/src/drivers/mcg\mcg.c ****   {
 360:D:/kuaipan/SEMG/MEMS_SEMG_KL25/KL25 Sample Code_I2c/KL25 Sample Code/kl25_sc_rev10/klxx-sc-baremetal/src/drivers/mcg\mcg.c ****     if (((MCG_S & MCG_S_CLKST_MASK) >> MCG_S_CLKST_SHIFT) == 0x2) break; // jump out early if CLKST
 361:D:/kuaipan/SEMG/MEMS_SEMG_KL25/KL25 Sample Code_I2c/KL25 Sample Code/kl25_sc_rev10/klxx-sc-baremetal/src/drivers/mcg\mcg.c ****   }
 362:D:/kuaipan/SEMG/MEMS_SEMG_KL25/KL25 Sample Code_I2c/KL25 Sample Code/kl25_sc_rev10/klxx-sc-baremetal/src/drivers/mcg\mcg.c ****   if (((MCG_S & MCG_S_CLKST_MASK) >> MCG_S_CLKST_SHIFT) != 0x2) return 0x1A; // check EXT CLK is re
 363:D:/kuaipan/SEMG/MEMS_SEMG_KL25/KL25 Sample Code_I2c/KL25 Sample Code/kl25_sc_rev10/klxx-sc-baremetal/src/drivers/mcg\mcg.c **** 
 364:D:/kuaipan/SEMG/MEMS_SEMG_KL25/KL25 Sample Code_I2c/KL25 Sample Code/kl25_sc_rev10/klxx-sc-baremetal/src/drivers/mcg\mcg.c **** // Now in PBE mode  
 365:D:/kuaipan/SEMG/MEMS_SEMG_KL25/KL25 Sample Code_I2c/KL25 Sample Code/kl25_sc_rev10/klxx-sc-baremetal/src/drivers/mcg\mcg.c ****   return crystal_val; // MCGOUT frequency equals external clock frequency
 366:D:/kuaipan/SEMG/MEMS_SEMG_KL25/KL25 Sample Code_I2c/KL25 Sample Code/kl25_sc_rev10/klxx-sc-baremetal/src/drivers/mcg\mcg.c **** } // pee_pbe
 857              		.loc 1 366 0
 858              		@ sp needed for prologue
 859 0010 10BD     		pop	{r4, pc}
 860              	.LVL75:
 861              	.L153:
 346:D:/kuaipan/SEMG/MEMS_SEMG_KL25/KL25 Sample Code_I2c/KL25 Sample Code/kl25_sc_rev10/klxx-sc-baremetal/src/drivers/mcg\mcg.c ****       (!(MCG_S & MCG_S_IREFST_MASK)) &&                               // check FLL ref is external 
 862              		.loc 1 346 0
 863 0012 9A79     		ldrb	r2, [r3, #6]
 345:D:/kuaipan/SEMG/MEMS_SEMG_KL25/KL25 Sample Code_I2c/KL25 Sample Code/kl25_sc_rev10/klxx-sc-baremetal/src/drivers/mcg\mcg.c ****   if (!((((MCG_S & MCG_S_CLKST_MASK) >> MCG_S_CLKST_SHIFT) == 0x3) && // check CLKS mux has selcted
 864              		.loc 1 345 0
 865 0014 D106     		lsl	r1, r2, #27
 866 0016 FAD4     		bmi	.L142
 347:D:/kuaipan/SEMG/MEMS_SEMG_KL25/KL25 Sample Code_I2c/KL25 Sample Code/kl25_sc_rev10/klxx-sc-baremetal/src/drivers/mcg\mcg.c ****       (MCG_S & MCG_S_PLLST_MASK)))                                    // check PLLS mux has selecte
 867              		.loc 1 347 0
 868 0018 9979     		ldrb	r1, [r3, #6]
 345:D:/kuaipan/SEMG/MEMS_SEMG_KL25/KL25 Sample Code_I2c/KL25 Sample Code/kl25_sc_rev10/klxx-sc-baremetal/src/drivers/mcg\mcg.c ****   if (!((((MCG_S & MCG_S_CLKST_MASK) >> MCG_S_CLKST_SHIFT) == 0x3) && // check CLKS mux has selcted
 869              		.loc 1 345 0
 870 001a 8906     		lsl	r1, r1, #26
 871 001c F7D5     		bpl	.L142
 355:D:/kuaipan/SEMG/MEMS_SEMG_KL25/KL25 Sample Code_I2c/KL25 Sample Code/kl25_sc_rev10/klxx-sc-baremetal/src/drivers/mcg\mcg.c ****   MCG_C1 |= MCG_C1_CLKS(2); // switch CLKS mux to select external reference clock as MCG_OUT
 872              		.loc 1 355 0
 873 001e 1C78     		ldrb	r4, [r3]
 874 0020 8022     		mov	r2, #128
 875 0022 2243     		orr	r2, r4
 876 0024 FA21     		mov	r1, #250
 877 0026 1A70     		strb	r2, [r3]
 878              	.LVL76:
 879 0028 CA00     		lsl	r2, r1, #3
 360:D:/kuaipan/SEMG/MEMS_SEMG_KL25/KL25 Sample Code_I2c/KL25 Sample Code/kl25_sc_rev10/klxx-sc-baremetal/src/drivers/mcg\mcg.c ****     if (((MCG_S & MCG_S_CLKST_MASK) >> MCG_S_CLKST_SHIFT) == 0x2) break; // jump out early if CLKST
 880              		.loc 1 360 0
 881 002a 0C21     		mov	r1, #12
 882 002c 09E0     		b	.L139
 883              	.LVL77:
 884              	.L154:
 885 002e 9C79     		ldrb	r4, [r3, #6]
 886 0030 013A     		sub	r2, r2, #1
 887 0032 92B2     		uxth	r2, r2
 888 0034 0C40     		and	r4, r1
 889 0036 082C     		cmp	r4, #8
 890 0038 07D0     		beq	.L138
 891 003a 013A     		sub	r2, r2, #1
 892 003c 92B2     		uxth	r2, r2
 358:D:/kuaipan/SEMG/MEMS_SEMG_KL25/KL25 Sample Code_I2c/KL25 Sample Code/kl25_sc_rev10/klxx-sc-baremetal/src/drivers/mcg\mcg.c ****   for (i = 0 ; i < 2000 ; i++)
 893              		.loc 1 358 0
 894 003e 002A     		cmp	r2, #0
 895 0040 03D0     		beq	.L138
 896              	.L139:
 360:D:/kuaipan/SEMG/MEMS_SEMG_KL25/KL25 Sample Code_I2c/KL25 Sample Code/kl25_sc_rev10/klxx-sc-baremetal/src/drivers/mcg\mcg.c ****     if (((MCG_S & MCG_S_CLKST_MASK) >> MCG_S_CLKST_SHIFT) == 0x2) break; // jump out early if CLKST
 897              		.loc 1 360 0
 898 0042 9C79     		ldrb	r4, [r3, #6]
 899 0044 0C40     		and	r4, r1
 900 0046 082C     		cmp	r4, #8
 901 0048 F1D1     		bne	.L154
 902              	.L138:
 362:D:/kuaipan/SEMG/MEMS_SEMG_KL25/KL25 Sample Code_I2c/KL25 Sample Code/kl25_sc_rev10/klxx-sc-baremetal/src/drivers/mcg\mcg.c ****   if (((MCG_S & MCG_S_CLKST_MASK) >> MCG_S_CLKST_SHIFT) != 0x2) return 0x1A; // check EXT CLK is re
 903              		.loc 1 362 0
 904 004a 044B     		ldr	r3, .L155
 905 004c 9979     		ldrb	r1, [r3, #6]
 906 004e 0C07     		lsl	r4, r1, #28
 907 0050 A20F     		lsr	r2, r4, #30
 908 0052 022A     		cmp	r2, #2
 909 0054 DCD0     		beq	.L137
 910 0056 1A20     		mov	r0, #26
 911              	.LVL78:
 912 0058 DAE7     		b	.L137
 913              	.L156:
 914 005a C046     		.align	2
 915              	.L155:
 916 005c 00400640 		.word	1074151424
 917              		.cfi_endproc
 918              	.LFE2:
 920              		.section	.text.pbe_pee,"ax",%progbits
 921              		.align	2
 922              		.global	pbe_pee
 923              		.code	16
 924              		.thumb_func
 926              	pbe_pee:
 927              	.LFB3:
 367:D:/kuaipan/SEMG/MEMS_SEMG_KL25/KL25 Sample Code_I2c/KL25 Sample Code/kl25_sc_rev10/klxx-sc-baremetal/src/drivers/mcg\mcg.c **** 
 368:D:/kuaipan/SEMG/MEMS_SEMG_KL25/KL25 Sample Code_I2c/KL25 Sample Code/kl25_sc_rev10/klxx-sc-baremetal/src/drivers/mcg\mcg.c **** 
 369:D:/kuaipan/SEMG/MEMS_SEMG_KL25/KL25 Sample Code_I2c/KL25 Sample Code/kl25_sc_rev10/klxx-sc-baremetal/src/drivers/mcg\mcg.c **** int pbe_pee(int crystal_val)
 370:D:/kuaipan/SEMG/MEMS_SEMG_KL25/KL25 Sample Code_I2c/KL25 Sample Code/kl25_sc_rev10/klxx-sc-baremetal/src/drivers/mcg\mcg.c **** {
 928              		.loc 1 370 0
 929              		.cfi_startproc
 930              	.LVL79:
 931 0000 70B5     		push	{r4, r5, r6, lr}
 932              	.LCFI5:
 933              		.cfi_def_cfa_offset 16
 934              		.cfi_offset 4, -16
 935              		.cfi_offset 5, -12
 936              		.cfi_offset 6, -8
 937              		.cfi_offset 14, -4
 371:D:/kuaipan/SEMG/MEMS_SEMG_KL25/KL25 Sample Code_I2c/KL25 Sample Code/kl25_sc_rev10/klxx-sc-baremetal/src/drivers/mcg\mcg.c ****   unsigned char prdiv, vdiv;
 372:D:/kuaipan/SEMG/MEMS_SEMG_KL25/KL25 Sample Code_I2c/KL25 Sample Code/kl25_sc_rev10/klxx-sc-baremetal/src/drivers/mcg\mcg.c ****   short i;
 373:D:/kuaipan/SEMG/MEMS_SEMG_KL25/KL25 Sample Code_I2c/KL25 Sample Code/kl25_sc_rev10/klxx-sc-baremetal/src/drivers/mcg\mcg.c **** 
 374:D:/kuaipan/SEMG/MEMS_SEMG_KL25/KL25 Sample Code_I2c/KL25 Sample Code/kl25_sc_rev10/klxx-sc-baremetal/src/drivers/mcg\mcg.c ****   // Check MCG is in PBE mode
 375:D:/kuaipan/SEMG/MEMS_SEMG_KL25/KL25 Sample Code_I2c/KL25 Sample Code/kl25_sc_rev10/klxx-sc-baremetal/src/drivers/mcg\mcg.c ****   if (!((((MCG_S & MCG_S_CLKST_MASK) >> MCG_S_CLKST_SHIFT) == 0x2) && // check CLKS mux has selcted
 938              		.loc 1 375 0
 939 0002 294B     		ldr	r3, .L184
 940 0004 9A79     		ldrb	r2, [r3, #6]
 941 0006 1107     		lsl	r1, r2, #28
 942 0008 8E0F     		lsr	r6, r1, #30
 376:D:/kuaipan/SEMG/MEMS_SEMG_KL25/KL25 Sample Code_I2c/KL25 Sample Code/kl25_sc_rev10/klxx-sc-baremetal/src/drivers/mcg\mcg.c ****       (!(MCG_S & MCG_S_IREFST_MASK)) &&                               // check FLL ref is external 
 377:D:/kuaipan/SEMG/MEMS_SEMG_KL25/KL25 Sample Code_I2c/KL25 Sample Code/kl25_sc_rev10/klxx-sc-baremetal/src/drivers/mcg\mcg.c ****       (MCG_S & MCG_S_PLLST_MASK) &&                                   // check PLLS mux has selecte
 378:D:/kuaipan/SEMG/MEMS_SEMG_KL25/KL25 Sample Code_I2c/KL25 Sample Code/kl25_sc_rev10/klxx-sc-baremetal/src/drivers/mcg\mcg.c ****       (!(MCG_C2 & MCG_C2_LP_MASK))))                                  // check MCG_C2[LP] bit is no
 379:D:/kuaipan/SEMG/MEMS_SEMG_KL25/KL25 Sample Code_I2c/KL25 Sample Code/kl25_sc_rev10/klxx-sc-baremetal/src/drivers/mcg\mcg.c ****   {
 380:D:/kuaipan/SEMG/MEMS_SEMG_KL25/KL25 Sample Code_I2c/KL25 Sample Code/kl25_sc_rev10/klxx-sc-baremetal/src/drivers/mcg\mcg.c ****     return 0x7;                                                       // return error code
 943              		.loc 1 380 0
 944 000a 0721     		mov	r1, #7
 375:D:/kuaipan/SEMG/MEMS_SEMG_KL25/KL25 Sample Code_I2c/KL25 Sample Code/kl25_sc_rev10/klxx-sc-baremetal/src/drivers/mcg\mcg.c ****   if (!((((MCG_S & MCG_S_CLKST_MASK) >> MCG_S_CLKST_SHIFT) == 0x2) && // check CLKS mux has selcted
 945              		.loc 1 375 0
 946 000c 022E     		cmp	r6, #2
 947 000e 01D0     		beq	.L181
 948              	.LVL80:
 949              	.L158:
 381:D:/kuaipan/SEMG/MEMS_SEMG_KL25/KL25 Sample Code_I2c/KL25 Sample Code/kl25_sc_rev10/klxx-sc-baremetal/src/drivers/mcg\mcg.c ****   }
 382:D:/kuaipan/SEMG/MEMS_SEMG_KL25/KL25 Sample Code_I2c/KL25 Sample Code/kl25_sc_rev10/klxx-sc-baremetal/src/drivers/mcg\mcg.c **** 
 383:D:/kuaipan/SEMG/MEMS_SEMG_KL25/KL25 Sample Code_I2c/KL25 Sample Code/kl25_sc_rev10/klxx-sc-baremetal/src/drivers/mcg\mcg.c ****   // As the PLL settings have already been checked when PBE mode was enterred they are not checked 
 384:D:/kuaipan/SEMG/MEMS_SEMG_KL25/KL25 Sample Code_I2c/KL25 Sample Code/kl25_sc_rev10/klxx-sc-baremetal/src/drivers/mcg\mcg.c **** 
 385:D:/kuaipan/SEMG/MEMS_SEMG_KL25/KL25 Sample Code_I2c/KL25 Sample Code/kl25_sc_rev10/klxx-sc-baremetal/src/drivers/mcg\mcg.c ****   // Check the PLL state before transitioning to PEE mode
 386:D:/kuaipan/SEMG/MEMS_SEMG_KL25/KL25 Sample Code_I2c/KL25 Sample Code/kl25_sc_rev10/klxx-sc-baremetal/src/drivers/mcg\mcg.c ****   
 387:D:/kuaipan/SEMG/MEMS_SEMG_KL25/KL25 Sample Code_I2c/KL25 Sample Code/kl25_sc_rev10/klxx-sc-baremetal/src/drivers/mcg\mcg.c ****   // Check LOCK bit is set before transitioning MCG to PLL output (already checked in fbe_pbe but g
 388:D:/kuaipan/SEMG/MEMS_SEMG_KL25/KL25 Sample Code_I2c/KL25 Sample Code/kl25_sc_rev10/klxx-sc-baremetal/src/drivers/mcg\mcg.c ****   // to re-check before switch to use PLL)
 389:D:/kuaipan/SEMG/MEMS_SEMG_KL25/KL25 Sample Code_I2c/KL25 Sample Code/kl25_sc_rev10/klxx-sc-baremetal/src/drivers/mcg\mcg.c ****   for (i = 0 ; i < 2000 ; i++)
 390:D:/kuaipan/SEMG/MEMS_SEMG_KL25/KL25 Sample Code_I2c/KL25 Sample Code/kl25_sc_rev10/klxx-sc-baremetal/src/drivers/mcg\mcg.c ****   {
 391:D:/kuaipan/SEMG/MEMS_SEMG_KL25/KL25 Sample Code_I2c/KL25 Sample Code/kl25_sc_rev10/klxx-sc-baremetal/src/drivers/mcg\mcg.c ****     if (MCG_S & MCG_S_LOCK0_MASK) break; // jump out early if LOCK sets before loop finishes
 392:D:/kuaipan/SEMG/MEMS_SEMG_KL25/KL25 Sample Code_I2c/KL25 Sample Code/kl25_sc_rev10/klxx-sc-baremetal/src/drivers/mcg\mcg.c ****   }
 393:D:/kuaipan/SEMG/MEMS_SEMG_KL25/KL25 Sample Code_I2c/KL25 Sample Code/kl25_sc_rev10/klxx-sc-baremetal/src/drivers/mcg\mcg.c ****   if (!(MCG_S & MCG_S_LOCK0_MASK)) return 0x44; // check bit is really set and return with error if
 394:D:/kuaipan/SEMG/MEMS_SEMG_KL25/KL25 Sample Code_I2c/KL25 Sample Code/kl25_sc_rev10/klxx-sc-baremetal/src/drivers/mcg\mcg.c ****   // Use actual PLL settings to calculate PLL frequency
 395:D:/kuaipan/SEMG/MEMS_SEMG_KL25/KL25 Sample Code_I2c/KL25 Sample Code/kl25_sc_rev10/klxx-sc-baremetal/src/drivers/mcg\mcg.c ****   prdiv = ((MCG_C5 & MCG_C5_PRDIV0_MASK) + 1);
 396:D:/kuaipan/SEMG/MEMS_SEMG_KL25/KL25 Sample Code_I2c/KL25 Sample Code/kl25_sc_rev10/klxx-sc-baremetal/src/drivers/mcg\mcg.c ****   vdiv = ((MCG_C6 & MCG_C6_VDIV0_MASK) + 24);
 397:D:/kuaipan/SEMG/MEMS_SEMG_KL25/KL25 Sample Code_I2c/KL25 Sample Code/kl25_sc_rev10/klxx-sc-baremetal/src/drivers/mcg\mcg.c ****   
 398:D:/kuaipan/SEMG/MEMS_SEMG_KL25/KL25 Sample Code_I2c/KL25 Sample Code/kl25_sc_rev10/klxx-sc-baremetal/src/drivers/mcg\mcg.c ****   MCG_C1 &= ~MCG_C1_CLKS_MASK; // clear CLKS to switch CLKS mux to select PLL as MCG_OUT
 399:D:/kuaipan/SEMG/MEMS_SEMG_KL25/KL25 Sample Code_I2c/KL25 Sample Code/kl25_sc_rev10/klxx-sc-baremetal/src/drivers/mcg\mcg.c **** 
 400:D:/kuaipan/SEMG/MEMS_SEMG_KL25/KL25 Sample Code_I2c/KL25 Sample Code/kl25_sc_rev10/klxx-sc-baremetal/src/drivers/mcg\mcg.c ****   // Wait for clock status bits to update
 401:D:/kuaipan/SEMG/MEMS_SEMG_KL25/KL25 Sample Code_I2c/KL25 Sample Code/kl25_sc_rev10/klxx-sc-baremetal/src/drivers/mcg\mcg.c ****   for (i = 0 ; i < 2000 ; i++)
 402:D:/kuaipan/SEMG/MEMS_SEMG_KL25/KL25 Sample Code_I2c/KL25 Sample Code/kl25_sc_rev10/klxx-sc-baremetal/src/drivers/mcg\mcg.c ****   {
 403:D:/kuaipan/SEMG/MEMS_SEMG_KL25/KL25 Sample Code_I2c/KL25 Sample Code/kl25_sc_rev10/klxx-sc-baremetal/src/drivers/mcg\mcg.c ****     if (((MCG_S & MCG_S_CLKST_MASK) >> MCG_S_CLKST_SHIFT) == 0x3) break; // jump out early if CLKST
 404:D:/kuaipan/SEMG/MEMS_SEMG_KL25/KL25 Sample Code_I2c/KL25 Sample Code/kl25_sc_rev10/klxx-sc-baremetal/src/drivers/mcg\mcg.c ****   }
 405:D:/kuaipan/SEMG/MEMS_SEMG_KL25/KL25 Sample Code_I2c/KL25 Sample Code/kl25_sc_rev10/klxx-sc-baremetal/src/drivers/mcg\mcg.c ****   if (((MCG_S & MCG_S_CLKST_MASK) >> MCG_S_CLKST_SHIFT) != 0x3) return 0x1B; // check CLKST is set 
 406:D:/kuaipan/SEMG/MEMS_SEMG_KL25/KL25 Sample Code_I2c/KL25 Sample Code/kl25_sc_rev10/klxx-sc-baremetal/src/drivers/mcg\mcg.c **** 
 407:D:/kuaipan/SEMG/MEMS_SEMG_KL25/KL25 Sample Code_I2c/KL25 Sample Code/kl25_sc_rev10/klxx-sc-baremetal/src/drivers/mcg\mcg.c ****   // Now in PEE
 408:D:/kuaipan/SEMG/MEMS_SEMG_KL25/KL25 Sample Code_I2c/KL25 Sample Code/kl25_sc_rev10/klxx-sc-baremetal/src/drivers/mcg\mcg.c ****   return ((crystal_val / prdiv) * vdiv); //MCGOUT equals PLL output frequency
 409:D:/kuaipan/SEMG/MEMS_SEMG_KL25/KL25 Sample Code_I2c/KL25 Sample Code/kl25_sc_rev10/klxx-sc-baremetal/src/drivers/mcg\mcg.c ****   
 410:D:/kuaipan/SEMG/MEMS_SEMG_KL25/KL25 Sample Code_I2c/KL25 Sample Code/kl25_sc_rev10/klxx-sc-baremetal/src/drivers/mcg\mcg.c **** }  // pbe_pee
 950              		.loc 1 410 0
 951 0010 081C     		mov	r0, r1
 952              		@ sp needed for prologue
 953 0012 70BD     		pop	{r4, r5, r6, pc}
 954              	.LVL81:
 955              	.L181:
 376:D:/kuaipan/SEMG/MEMS_SEMG_KL25/KL25 Sample Code_I2c/KL25 Sample Code/kl25_sc_rev10/klxx-sc-baremetal/src/drivers/mcg\mcg.c ****       (!(MCG_S & MCG_S_IREFST_MASK)) &&                               // check FLL ref is external 
 956              		.loc 1 376 0
 957 0014 9C79     		ldrb	r4, [r3, #6]
 375:D:/kuaipan/SEMG/MEMS_SEMG_KL25/KL25 Sample Code_I2c/KL25 Sample Code/kl25_sc_rev10/klxx-sc-baremetal/src/drivers/mcg\mcg.c ****   if (!((((MCG_S & MCG_S_CLKST_MASK) >> MCG_S_CLKST_SHIFT) == 0x2) && // check CLKS mux has selcted
 958              		.loc 1 375 0
 959 0016 E506     		lsl	r5, r4, #27
 960 0018 FAD4     		bmi	.L158
 377:D:/kuaipan/SEMG/MEMS_SEMG_KL25/KL25 Sample Code_I2c/KL25 Sample Code/kl25_sc_rev10/klxx-sc-baremetal/src/drivers/mcg\mcg.c ****       (MCG_S & MCG_S_PLLST_MASK) &&                                   // check PLLS mux has selecte
 961              		.loc 1 377 0
 962 001a 9D79     		ldrb	r5, [r3, #6]
 376:D:/kuaipan/SEMG/MEMS_SEMG_KL25/KL25 Sample Code_I2c/KL25 Sample Code/kl25_sc_rev10/klxx-sc-baremetal/src/drivers/mcg\mcg.c ****       (!(MCG_S & MCG_S_IREFST_MASK)) &&                               // check FLL ref is external 
 963              		.loc 1 376 0
 964 001c AD06     		lsl	r5, r5, #26
 965 001e F7D5     		bpl	.L158
 378:D:/kuaipan/SEMG/MEMS_SEMG_KL25/KL25 Sample Code_I2c/KL25 Sample Code/kl25_sc_rev10/klxx-sc-baremetal/src/drivers/mcg\mcg.c ****       (!(MCG_C2 & MCG_C2_LP_MASK))))                                  // check MCG_C2[LP] bit is no
 966              		.loc 1 378 0
 967 0020 5A78     		ldrb	r2, [r3, #1]
 375:D:/kuaipan/SEMG/MEMS_SEMG_KL25/KL25 Sample Code_I2c/KL25 Sample Code/kl25_sc_rev10/klxx-sc-baremetal/src/drivers/mcg\mcg.c ****   if (!((((MCG_S & MCG_S_CLKST_MASK) >> MCG_S_CLKST_SHIFT) == 0x2) && // check CLKS mux has selcted
 968              		.loc 1 375 0
 969 0022 1642     		tst	r6, r2
 970 0024 F4D1     		bne	.L158
 971 0026 FA21     		mov	r1, #250
 972 0028 C900     		lsl	r1, r1, #3
 391:D:/kuaipan/SEMG/MEMS_SEMG_KL25/KL25 Sample Code_I2c/KL25 Sample Code/kl25_sc_rev10/klxx-sc-baremetal/src/drivers/mcg\mcg.c ****     if (MCG_S & MCG_S_LOCK0_MASK) break; // jump out early if LOCK sets before loop finishes
 973              		.loc 1 391 0
 974 002a 4026     		mov	r6, #64
 975 002c 08E0     		b	.L160
 976              	.L182:
 977              	.LVL82:
 978 002e 9A79     		ldrb	r2, [r3, #6]
 979 0030 0139     		sub	r1, r1, #1
 980 0032 8DB2     		uxth	r5, r1
 981 0034 1642     		tst	r6, r2
 982 0036 06D1     		bne	.L159
 983 0038 013D     		sub	r5, r5, #1
 984 003a A9B2     		uxth	r1, r5
 389:D:/kuaipan/SEMG/MEMS_SEMG_KL25/KL25 Sample Code_I2c/KL25 Sample Code/kl25_sc_rev10/klxx-sc-baremetal/src/drivers/mcg\mcg.c ****   for (i = 0 ; i < 2000 ; i++)
 985              		.loc 1 389 0
 986 003c 0029     		cmp	r1, #0
 987 003e 02D0     		beq	.L159
 988              	.L160:
 391:D:/kuaipan/SEMG/MEMS_SEMG_KL25/KL25 Sample Code_I2c/KL25 Sample Code/kl25_sc_rev10/klxx-sc-baremetal/src/drivers/mcg\mcg.c ****     if (MCG_S & MCG_S_LOCK0_MASK) break; // jump out early if LOCK sets before loop finishes
 989              		.loc 1 391 0
 990 0040 9C79     		ldrb	r4, [r3, #6]
 991 0042 2642     		tst	r6, r4
 992 0044 F3D0     		beq	.L182
 993              	.L159:
 393:D:/kuaipan/SEMG/MEMS_SEMG_KL25/KL25 Sample Code_I2c/KL25 Sample Code/kl25_sc_rev10/klxx-sc-baremetal/src/drivers/mcg\mcg.c ****   if (!(MCG_S & MCG_S_LOCK0_MASK)) return 0x44; // check bit is really set and return with error if
 994              		.loc 1 393 0
 995 0046 184A     		ldr	r2, .L184
 996 0048 4421     		mov	r1, #68
 997 004a 9379     		ldrb	r3, [r2, #6]
 998 004c 5C06     		lsl	r4, r3, #25
 999 004e DFD5     		bpl	.L158
 395:D:/kuaipan/SEMG/MEMS_SEMG_KL25/KL25 Sample Code_I2c/KL25 Sample Code/kl25_sc_rev10/klxx-sc-baremetal/src/drivers/mcg\mcg.c ****   prdiv = ((MCG_C5 & MCG_C5_PRDIV0_MASK) + 1);
 1000              		.loc 1 395 0
 1001 0050 1679     		ldrb	r6, [r2, #4]
 1002              	.LVL83:
 396:D:/kuaipan/SEMG/MEMS_SEMG_KL25/KL25 Sample Code_I2c/KL25 Sample Code/kl25_sc_rev10/klxx-sc-baremetal/src/drivers/mcg\mcg.c ****   vdiv = ((MCG_C6 & MCG_C6_VDIV0_MASK) + 24);
 1003              		.loc 1 396 0
 1004 0052 5579     		ldrb	r5, [r2, #5]
 1005              	.LVL84:
 398:D:/kuaipan/SEMG/MEMS_SEMG_KL25/KL25 Sample Code_I2c/KL25 Sample Code/kl25_sc_rev10/klxx-sc-baremetal/src/drivers/mcg\mcg.c ****   MCG_C1 &= ~MCG_C1_CLKS_MASK; // clear CLKS to switch CLKS mux to select PLL as MCG_OUT
 1006              		.loc 1 398 0
 1007 0054 1478     		ldrb	r4, [r2]
 1008 0056 3F21     		mov	r1, #63
 1009 0058 0C40     		and	r4, r1
 1010 005a FA23     		mov	r3, #250
 1011 005c 1470     		strb	r4, [r2]
 1012              	.LVL85:
 403:D:/kuaipan/SEMG/MEMS_SEMG_KL25/KL25 Sample Code_I2c/KL25 Sample Code/kl25_sc_rev10/klxx-sc-baremetal/src/drivers/mcg\mcg.c ****     if (((MCG_S & MCG_S_CLKST_MASK) >> MCG_S_CLKST_SHIFT) == 0x3) break; // jump out early if CLKST
 1013              		.loc 1 403 0
 1014 005e 111C     		mov	r1, r2
 398:D:/kuaipan/SEMG/MEMS_SEMG_KL25/KL25 Sample Code_I2c/KL25 Sample Code/kl25_sc_rev10/klxx-sc-baremetal/src/drivers/mcg\mcg.c ****   MCG_C1 &= ~MCG_C1_CLKS_MASK; // clear CLKS to switch CLKS mux to select PLL as MCG_OUT
 1015              		.loc 1 398 0
 1016 0060 DB00     		lsl	r3, r3, #3
 403:D:/kuaipan/SEMG/MEMS_SEMG_KL25/KL25 Sample Code_I2c/KL25 Sample Code/kl25_sc_rev10/klxx-sc-baremetal/src/drivers/mcg\mcg.c ****     if (((MCG_S & MCG_S_CLKST_MASK) >> MCG_S_CLKST_SHIFT) == 0x3) break; // jump out early if CLKST
 1017              		.loc 1 403 0
 1018 0062 0C22     		mov	r2, #12
 1019 0064 09E0     		b	.L162
 1020              	.LVL86:
 1021              	.L183:
 1022 0066 8C79     		ldrb	r4, [r1, #6]
 1023 0068 013B     		sub	r3, r3, #1
 1024 006a 9BB2     		uxth	r3, r3
 1025 006c 1440     		and	r4, r2
 1026 006e 0C2C     		cmp	r4, #12
 1027 0070 07D0     		beq	.L161
 1028 0072 013B     		sub	r3, r3, #1
 1029 0074 9BB2     		uxth	r3, r3
 401:D:/kuaipan/SEMG/MEMS_SEMG_KL25/KL25 Sample Code_I2c/KL25 Sample Code/kl25_sc_rev10/klxx-sc-baremetal/src/drivers/mcg\mcg.c ****   for (i = 0 ; i < 2000 ; i++)
 1030              		.loc 1 401 0
 1031 0076 002B     		cmp	r3, #0
 1032 0078 03D0     		beq	.L161
 1033              	.L162:
 403:D:/kuaipan/SEMG/MEMS_SEMG_KL25/KL25 Sample Code_I2c/KL25 Sample Code/kl25_sc_rev10/klxx-sc-baremetal/src/drivers/mcg\mcg.c ****     if (((MCG_S & MCG_S_CLKST_MASK) >> MCG_S_CLKST_SHIFT) == 0x3) break; // jump out early if CLKST
 1034              		.loc 1 403 0
 1035 007a 8C79     		ldrb	r4, [r1, #6]
 1036 007c 1440     		and	r4, r2
 1037 007e 0C2C     		cmp	r4, #12
 1038 0080 F1D1     		bne	.L183
 1039              	.L161:
 405:D:/kuaipan/SEMG/MEMS_SEMG_KL25/KL25 Sample Code_I2c/KL25 Sample Code/kl25_sc_rev10/klxx-sc-baremetal/src/drivers/mcg\mcg.c ****   if (((MCG_S & MCG_S_CLKST_MASK) >> MCG_S_CLKST_SHIFT) != 0x3) return 0x1B; // check CLKST is set 
 1040              		.loc 1 405 0
 1041 0082 0949     		ldr	r1, .L184
 1042 0084 8A79     		ldrb	r2, [r1, #6]
 1043 0086 1B21     		mov	r1, #27
 1044 0088 1407     		lsl	r4, r2, #28
 1045 008a A30F     		lsr	r3, r4, #30
 1046 008c 032B     		cmp	r3, #3
 1047 008e BFD1     		bne	.L158
 395:D:/kuaipan/SEMG/MEMS_SEMG_KL25/KL25 Sample Code_I2c/KL25 Sample Code/kl25_sc_rev10/klxx-sc-baremetal/src/drivers/mcg\mcg.c ****   prdiv = ((MCG_C5 & MCG_C5_PRDIV0_MASK) + 1);
 1048              		.loc 1 395 0
 1049 0090 1F24     		mov	r4, #31
 1050 0092 311C     		mov	r1, r6
 1051 0094 2140     		and	r1, r4
 408:D:/kuaipan/SEMG/MEMS_SEMG_KL25/KL25 Sample Code_I2c/KL25 Sample Code/kl25_sc_rev10/klxx-sc-baremetal/src/drivers/mcg\mcg.c ****   return ((crystal_val / prdiv) * vdiv); //MCGOUT equals PLL output frequency
 1052              		.loc 1 408 0
 1053 0096 0131     		add	r1, r1, #1
 1054 0098 FFF7FEFF 		bl	__aeabi_idiv
 1055              	.LVL87:
 396:D:/kuaipan/SEMG/MEMS_SEMG_KL25/KL25 Sample Code_I2c/KL25 Sample Code/kl25_sc_rev10/klxx-sc-baremetal/src/drivers/mcg\mcg.c ****   vdiv = ((MCG_C6 & MCG_C6_VDIV0_MASK) + 24);
 1056              		.loc 1 396 0
 1057 009c 291C     		mov	r1, r5
 1058 009e 2140     		and	r1, r4
 408:D:/kuaipan/SEMG/MEMS_SEMG_KL25/KL25 Sample Code_I2c/KL25 Sample Code/kl25_sc_rev10/klxx-sc-baremetal/src/drivers/mcg\mcg.c ****   return ((crystal_val / prdiv) * vdiv); //MCGOUT equals PLL output frequency
 1059              		.loc 1 408 0
 1060 00a0 1831     		add	r1, r1, #24
 1061 00a2 4143     		mul	r1, r0
 1062 00a4 B4E7     		b	.L158
 1063              	.L185:
 1064 00a6 C046     		.align	2
 1065              	.L184:
 1066 00a8 00400640 		.word	1074151424
 1067              		.cfi_endproc
 1068              	.LFE3:
 1070              		.section	.text.pbe_fbe,"ax",%progbits
 1071              		.align	2
 1072              		.global	pbe_fbe
 1073              		.code	16
 1074              		.thumb_func
 1076              	pbe_fbe:
 1077              	.LFB4:
 411:D:/kuaipan/SEMG/MEMS_SEMG_KL25/KL25 Sample Code_I2c/KL25 Sample Code/kl25_sc_rev10/klxx-sc-baremetal/src/drivers/mcg\mcg.c **** 
 412:D:/kuaipan/SEMG/MEMS_SEMG_KL25/KL25 Sample Code_I2c/KL25 Sample Code/kl25_sc_rev10/klxx-sc-baremetal/src/drivers/mcg\mcg.c **** 
 413:D:/kuaipan/SEMG/MEMS_SEMG_KL25/KL25 Sample Code_I2c/KL25 Sample Code/kl25_sc_rev10/klxx-sc-baremetal/src/drivers/mcg\mcg.c **** int pbe_fbe(int crystal_val)
 414:D:/kuaipan/SEMG/MEMS_SEMG_KL25/KL25 Sample Code_I2c/KL25 Sample Code/kl25_sc_rev10/klxx-sc-baremetal/src/drivers/mcg\mcg.c **** {
 1078              		.loc 1 414 0
 1079              		.cfi_startproc
 1080              	.LVL88:
 1081 0000 10B5     		push	{r4, lr}
 1082              	.LCFI6:
 1083              		.cfi_def_cfa_offset 8
 1084              		.cfi_offset 4, -8
 1085              		.cfi_offset 14, -4
 415:D:/kuaipan/SEMG/MEMS_SEMG_KL25/KL25 Sample Code_I2c/KL25 Sample Code/kl25_sc_rev10/klxx-sc-baremetal/src/drivers/mcg\mcg.c ****   short i;
 416:D:/kuaipan/SEMG/MEMS_SEMG_KL25/KL25 Sample Code_I2c/KL25 Sample Code/kl25_sc_rev10/klxx-sc-baremetal/src/drivers/mcg\mcg.c ****   
 417:D:/kuaipan/SEMG/MEMS_SEMG_KL25/KL25 Sample Code_I2c/KL25 Sample Code/kl25_sc_rev10/klxx-sc-baremetal/src/drivers/mcg\mcg.c **** // Check MCG is in PBE mode
 418:D:/kuaipan/SEMG/MEMS_SEMG_KL25/KL25 Sample Code_I2c/KL25 Sample Code/kl25_sc_rev10/klxx-sc-baremetal/src/drivers/mcg\mcg.c ****   if (!((((MCG_S & MCG_S_CLKST_MASK) >> MCG_S_CLKST_SHIFT) == 0x2) && // check CLKS mux has selcted
 1086              		.loc 1 418 0
 1087 0002 154B     		ldr	r3, .L206
 1088 0004 9A79     		ldrb	r2, [r3, #6]
 1089 0006 1107     		lsl	r1, r2, #28
 1090 0008 8A0F     		lsr	r2, r1, #30
 1091 000a 022A     		cmp	r2, #2
 1092 000c 01D0     		beq	.L204
 1093              	.L193:
 419:D:/kuaipan/SEMG/MEMS_SEMG_KL25/KL25 Sample Code_I2c/KL25 Sample Code/kl25_sc_rev10/klxx-sc-baremetal/src/drivers/mcg\mcg.c ****       (!(MCG_S & MCG_S_IREFST_MASK)) &&                               // check FLL ref is external 
 420:D:/kuaipan/SEMG/MEMS_SEMG_KL25/KL25 Sample Code_I2c/KL25 Sample Code/kl25_sc_rev10/klxx-sc-baremetal/src/drivers/mcg\mcg.c ****       (MCG_S & MCG_S_PLLST_MASK) &&                                   // check PLLS mux has selecte
 421:D:/kuaipan/SEMG/MEMS_SEMG_KL25/KL25 Sample Code_I2c/KL25 Sample Code/kl25_sc_rev10/klxx-sc-baremetal/src/drivers/mcg\mcg.c ****       (!(MCG_C2 & MCG_C2_LP_MASK))))                                  // check MCG_C2[LP] bit is no
 422:D:/kuaipan/SEMG/MEMS_SEMG_KL25/KL25 Sample Code_I2c/KL25 Sample Code/kl25_sc_rev10/klxx-sc-baremetal/src/drivers/mcg\mcg.c ****   {
 423:D:/kuaipan/SEMG/MEMS_SEMG_KL25/KL25 Sample Code_I2c/KL25 Sample Code/kl25_sc_rev10/klxx-sc-baremetal/src/drivers/mcg\mcg.c ****     return 0x7;                                                       // return error code
 1094              		.loc 1 423 0
 1095 000e 0720     		mov	r0, #7
 1096              	.LVL89:
 1097              	.L187:
 424:D:/kuaipan/SEMG/MEMS_SEMG_KL25/KL25 Sample Code_I2c/KL25 Sample Code/kl25_sc_rev10/klxx-sc-baremetal/src/drivers/mcg\mcg.c ****   }
 425:D:/kuaipan/SEMG/MEMS_SEMG_KL25/KL25 Sample Code_I2c/KL25 Sample Code/kl25_sc_rev10/klxx-sc-baremetal/src/drivers/mcg\mcg.c **** 
 426:D:/kuaipan/SEMG/MEMS_SEMG_KL25/KL25 Sample Code_I2c/KL25 Sample Code/kl25_sc_rev10/klxx-sc-baremetal/src/drivers/mcg\mcg.c **** // As we are running from the ext clock, by default the external clock settings are valid
 427:D:/kuaipan/SEMG/MEMS_SEMG_KL25/KL25 Sample Code_I2c/KL25 Sample Code/kl25_sc_rev10/klxx-sc-baremetal/src/drivers/mcg\mcg.c **** // To move to FBE from PBE simply requires the switching of the PLLS mux to disable the PLL 
 428:D:/kuaipan/SEMG/MEMS_SEMG_KL25/KL25 Sample Code_I2c/KL25 Sample Code/kl25_sc_rev10/klxx-sc-baremetal/src/drivers/mcg\mcg.c ****   
 429:D:/kuaipan/SEMG/MEMS_SEMG_KL25/KL25 Sample Code_I2c/KL25 Sample Code/kl25_sc_rev10/klxx-sc-baremetal/src/drivers/mcg\mcg.c ****   MCG_C6 &= ~MCG_C6_PLLS_MASK; // clear PLLS to disable PLL, still clocked from ext ref clk
 430:D:/kuaipan/SEMG/MEMS_SEMG_KL25/KL25 Sample Code_I2c/KL25 Sample Code/kl25_sc_rev10/klxx-sc-baremetal/src/drivers/mcg\mcg.c ****   
 431:D:/kuaipan/SEMG/MEMS_SEMG_KL25/KL25 Sample Code_I2c/KL25 Sample Code/kl25_sc_rev10/klxx-sc-baremetal/src/drivers/mcg\mcg.c **** // wait for PLLST status bit to set
 432:D:/kuaipan/SEMG/MEMS_SEMG_KL25/KL25 Sample Code_I2c/KL25 Sample Code/kl25_sc_rev10/klxx-sc-baremetal/src/drivers/mcg\mcg.c ****   for (i = 0 ; i < 2000 ; i++)
 433:D:/kuaipan/SEMG/MEMS_SEMG_KL25/KL25 Sample Code_I2c/KL25 Sample Code/kl25_sc_rev10/klxx-sc-baremetal/src/drivers/mcg\mcg.c ****   {
 434:D:/kuaipan/SEMG/MEMS_SEMG_KL25/KL25 Sample Code_I2c/KL25 Sample Code/kl25_sc_rev10/klxx-sc-baremetal/src/drivers/mcg\mcg.c ****     if (!(MCG_S & MCG_S_PLLST_MASK)) break; // jump out early if PLLST clears before loop finishes
 435:D:/kuaipan/SEMG/MEMS_SEMG_KL25/KL25 Sample Code_I2c/KL25 Sample Code/kl25_sc_rev10/klxx-sc-baremetal/src/drivers/mcg\mcg.c ****   }
 436:D:/kuaipan/SEMG/MEMS_SEMG_KL25/KL25 Sample Code_I2c/KL25 Sample Code/kl25_sc_rev10/klxx-sc-baremetal/src/drivers/mcg\mcg.c ****   if (MCG_S & MCG_S_PLLST_MASK) return 0x15; // check bit is really clear and return with error if 
 437:D:/kuaipan/SEMG/MEMS_SEMG_KL25/KL25 Sample Code_I2c/KL25 Sample Code/kl25_sc_rev10/klxx-sc-baremetal/src/drivers/mcg\mcg.c **** 
 438:D:/kuaipan/SEMG/MEMS_SEMG_KL25/KL25 Sample Code_I2c/KL25 Sample Code/kl25_sc_rev10/klxx-sc-baremetal/src/drivers/mcg\mcg.c **** // Now in FBE mode  
 439:D:/kuaipan/SEMG/MEMS_SEMG_KL25/KL25 Sample Code_I2c/KL25 Sample Code/kl25_sc_rev10/klxx-sc-baremetal/src/drivers/mcg\mcg.c ****   return crystal_val; // MCGOUT frequency equals external clock frequency 
 440:D:/kuaipan/SEMG/MEMS_SEMG_KL25/KL25 Sample Code_I2c/KL25 Sample Code/kl25_sc_rev10/klxx-sc-baremetal/src/drivers/mcg\mcg.c **** } // pbe_fbe
 1098              		.loc 1 440 0
 1099              		@ sp needed for prologue
 1100 0010 10BD     		pop	{r4, pc}
 1101              	.LVL90:
 1102              	.L204:
 419:D:/kuaipan/SEMG/MEMS_SEMG_KL25/KL25 Sample Code_I2c/KL25 Sample Code/kl25_sc_rev10/klxx-sc-baremetal/src/drivers/mcg\mcg.c ****       (!(MCG_S & MCG_S_IREFST_MASK)) &&                               // check FLL ref is external 
 1103              		.loc 1 419 0
 1104 0012 9C79     		ldrb	r4, [r3, #6]
 418:D:/kuaipan/SEMG/MEMS_SEMG_KL25/KL25 Sample Code_I2c/KL25 Sample Code/kl25_sc_rev10/klxx-sc-baremetal/src/drivers/mcg\mcg.c ****   if (!((((MCG_S & MCG_S_CLKST_MASK) >> MCG_S_CLKST_SHIFT) == 0x2) && // check CLKS mux has selcted
 1105              		.loc 1 418 0
 1106 0014 E406     		lsl	r4, r4, #27
 1107 0016 FAD4     		bmi	.L193
 420:D:/kuaipan/SEMG/MEMS_SEMG_KL25/KL25 Sample Code_I2c/KL25 Sample Code/kl25_sc_rev10/klxx-sc-baremetal/src/drivers/mcg\mcg.c ****       (MCG_S & MCG_S_PLLST_MASK) &&                                   // check PLLS mux has selecte
 1108              		.loc 1 420 0
 1109 0018 9979     		ldrb	r1, [r3, #6]
 419:D:/kuaipan/SEMG/MEMS_SEMG_KL25/KL25 Sample Code_I2c/KL25 Sample Code/kl25_sc_rev10/klxx-sc-baremetal/src/drivers/mcg\mcg.c ****       (!(MCG_S & MCG_S_IREFST_MASK)) &&                               // check FLL ref is external 
 1110              		.loc 1 419 0
 1111 001a 8C06     		lsl	r4, r1, #26
 1112 001c F7D5     		bpl	.L193
 421:D:/kuaipan/SEMG/MEMS_SEMG_KL25/KL25 Sample Code_I2c/KL25 Sample Code/kl25_sc_rev10/klxx-sc-baremetal/src/drivers/mcg\mcg.c ****       (!(MCG_C2 & MCG_C2_LP_MASK))))                                  // check MCG_C2[LP] bit is no
 1113              		.loc 1 421 0
 1114 001e 5C78     		ldrb	r4, [r3, #1]
 418:D:/kuaipan/SEMG/MEMS_SEMG_KL25/KL25 Sample Code_I2c/KL25 Sample Code/kl25_sc_rev10/klxx-sc-baremetal/src/drivers/mcg\mcg.c ****   if (!((((MCG_S & MCG_S_CLKST_MASK) >> MCG_S_CLKST_SHIFT) == 0x2) && // check CLKS mux has selcted
 1115              		.loc 1 418 0
 1116 0020 2242     		tst	r2, r4
 1117 0022 F4D1     		bne	.L193
 429:D:/kuaipan/SEMG/MEMS_SEMG_KL25/KL25 Sample Code_I2c/KL25 Sample Code/kl25_sc_rev10/klxx-sc-baremetal/src/drivers/mcg\mcg.c ****   MCG_C6 &= ~MCG_C6_PLLS_MASK; // clear PLLS to disable PLL, still clocked from ext ref clk
 1118              		.loc 1 429 0
 1119 0024 5A79     		ldrb	r2, [r3, #5]
 1120 0026 4021     		mov	r1, #64
 1121 0028 8A43     		bic	r2, r1
 1122 002a FA24     		mov	r4, #250
 1123 002c 5A71     		strb	r2, [r3, #5]
 1124              	.LVL91:
 434:D:/kuaipan/SEMG/MEMS_SEMG_KL25/KL25 Sample Code_I2c/KL25 Sample Code/kl25_sc_rev10/klxx-sc-baremetal/src/drivers/mcg\mcg.c ****     if (!(MCG_S & MCG_S_PLLST_MASK)) break; // jump out early if PLLST clears before loop finishes
 1125              		.loc 1 434 0
 1126 002e 2021     		mov	r1, #32
 429:D:/kuaipan/SEMG/MEMS_SEMG_KL25/KL25 Sample Code_I2c/KL25 Sample Code/kl25_sc_rev10/klxx-sc-baremetal/src/drivers/mcg\mcg.c ****   MCG_C6 &= ~MCG_C6_PLLS_MASK; // clear PLLS to disable PLL, still clocked from ext ref clk
 1127              		.loc 1 429 0
 1128 0030 E200     		lsl	r2, r4, #3
 1129 0032 08E0     		b	.L189
 1130              	.LVL92:
 1131              	.L205:
 434:D:/kuaipan/SEMG/MEMS_SEMG_KL25/KL25 Sample Code_I2c/KL25 Sample Code/kl25_sc_rev10/klxx-sc-baremetal/src/drivers/mcg\mcg.c ****     if (!(MCG_S & MCG_S_PLLST_MASK)) break; // jump out early if PLLST clears before loop finishes
 1132              		.loc 1 434 0
 1133 0034 9C79     		ldrb	r4, [r3, #6]
 1134 0036 013A     		sub	r2, r2, #1
 1135 0038 92B2     		uxth	r2, r2
 1136 003a 2142     		tst	r1, r4
 1137 003c 06D0     		beq	.L188
 1138 003e 013A     		sub	r2, r2, #1
 1139 0040 92B2     		uxth	r2, r2
 432:D:/kuaipan/SEMG/MEMS_SEMG_KL25/KL25 Sample Code_I2c/KL25 Sample Code/kl25_sc_rev10/klxx-sc-baremetal/src/drivers/mcg\mcg.c ****   for (i = 0 ; i < 2000 ; i++)
 1140              		.loc 1 432 0
 1141 0042 002A     		cmp	r2, #0
 1142 0044 02D0     		beq	.L188
 1143              	.L189:
 434:D:/kuaipan/SEMG/MEMS_SEMG_KL25/KL25 Sample Code_I2c/KL25 Sample Code/kl25_sc_rev10/klxx-sc-baremetal/src/drivers/mcg\mcg.c ****     if (!(MCG_S & MCG_S_PLLST_MASK)) break; // jump out early if PLLST clears before loop finishes
 1144              		.loc 1 434 0
 1145 0046 9C79     		ldrb	r4, [r3, #6]
 1146 0048 2142     		tst	r1, r4
 1147 004a F3D1     		bne	.L205
 1148              	.L188:
 436:D:/kuaipan/SEMG/MEMS_SEMG_KL25/KL25 Sample Code_I2c/KL25 Sample Code/kl25_sc_rev10/klxx-sc-baremetal/src/drivers/mcg\mcg.c ****   if (MCG_S & MCG_S_PLLST_MASK) return 0x15; // check bit is really clear and return with error if 
 1149              		.loc 1 436 0
 1150 004c 024B     		ldr	r3, .L206
 1151 004e 9979     		ldrb	r1, [r3, #6]
 1152 0050 8A06     		lsl	r2, r1, #26
 1153 0052 DDD5     		bpl	.L187
 1154 0054 1520     		mov	r0, #21
 1155              	.LVL93:
 1156 0056 DBE7     		b	.L187
 1157              	.L207:
 1158              		.align	2
 1159              	.L206:
 1160 0058 00400640 		.word	1074151424
 1161              		.cfi_endproc
 1162              	.LFE4:
 1164              		.section	.text.fbe_pbe,"ax",%progbits
 1165              		.align	2
 1166              		.global	fbe_pbe
 1167              		.code	16
 1168              		.thumb_func
 1170              	fbe_pbe:
 1171              	.LFB5:
 441:D:/kuaipan/SEMG/MEMS_SEMG_KL25/KL25 Sample Code_I2c/KL25 Sample Code/kl25_sc_rev10/klxx-sc-baremetal/src/drivers/mcg\mcg.c **** 
 442:D:/kuaipan/SEMG/MEMS_SEMG_KL25/KL25 Sample Code_I2c/KL25 Sample Code/kl25_sc_rev10/klxx-sc-baremetal/src/drivers/mcg\mcg.c **** 
 443:D:/kuaipan/SEMG/MEMS_SEMG_KL25/KL25 Sample Code_I2c/KL25 Sample Code/kl25_sc_rev10/klxx-sc-baremetal/src/drivers/mcg\mcg.c **** /********************************************************************/
 444:D:/kuaipan/SEMG/MEMS_SEMG_KL25/KL25 Sample Code_I2c/KL25 Sample Code/kl25_sc_rev10/klxx-sc-baremetal/src/drivers/mcg\mcg.c **** /* Functon name : fbe_pbe
 445:D:/kuaipan/SEMG/MEMS_SEMG_KL25/KL25 Sample Code_I2c/KL25 Sample Code/kl25_sc_rev10/klxx-sc-baremetal/src/drivers/mcg\mcg.c ****  *
 446:D:/kuaipan/SEMG/MEMS_SEMG_KL25/KL25 Sample Code_I2c/KL25 Sample Code/kl25_sc_rev10/klxx-sc-baremetal/src/drivers/mcg\mcg.c ****  * Mode transition: FBE to PBE mode
 447:D:/kuaipan/SEMG/MEMS_SEMG_KL25/KL25 Sample Code_I2c/KL25 Sample Code/kl25_sc_rev10/klxx-sc-baremetal/src/drivers/mcg\mcg.c ****  *
 448:D:/kuaipan/SEMG/MEMS_SEMG_KL25/KL25 Sample Code_I2c/KL25 Sample Code/kl25_sc_rev10/klxx-sc-baremetal/src/drivers/mcg\mcg.c ****  * This function transitions the MCG from FBE mode to PBE mode. 
 449:D:/kuaipan/SEMG/MEMS_SEMG_KL25/KL25 Sample Code_I2c/KL25 Sample Code/kl25_sc_rev10/klxx-sc-baremetal/src/drivers/mcg\mcg.c ****  * This function presently only supports OSC0 and PLL0. Support for OSC1 and PLL1 will be added soo
 450:D:/kuaipan/SEMG/MEMS_SEMG_KL25/KL25 Sample Code_I2c/KL25 Sample Code/kl25_sc_rev10/klxx-sc-baremetal/src/drivers/mcg\mcg.c ****  * The function requires the desired OSC and PLL be passed in to it for compatibility with the
 451:D:/kuaipan/SEMG/MEMS_SEMG_KL25/KL25 Sample Code_I2c/KL25 Sample Code/kl25_sc_rev10/klxx-sc-baremetal/src/drivers/mcg\mcg.c ****  * future support of OSC/PLL selection
 452:D:/kuaipan/SEMG/MEMS_SEMG_KL25/KL25 Sample Code_I2c/KL25 Sample Code/kl25_sc_rev10/klxx-sc-baremetal/src/drivers/mcg\mcg.c ****  *
 453:D:/kuaipan/SEMG/MEMS_SEMG_KL25/KL25 Sample Code_I2c/KL25 Sample Code/kl25_sc_rev10/klxx-sc-baremetal/src/drivers/mcg\mcg.c ****  * Parameters: crystal_val - external clock frequency in Hz
 454:D:/kuaipan/SEMG/MEMS_SEMG_KL25/KL25 Sample Code_I2c/KL25 Sample Code/kl25_sc_rev10/klxx-sc-baremetal/src/drivers/mcg\mcg.c ****  *             prdiv_val   - value to divide the external clock source by to create the desired
 455:D:/kuaipan/SEMG/MEMS_SEMG_KL25/KL25 Sample Code_I2c/KL25 Sample Code/kl25_sc_rev10/klxx-sc-baremetal/src/drivers/mcg\mcg.c ****  *                           PLL reference clock frequency
 456:D:/kuaipan/SEMG/MEMS_SEMG_KL25/KL25 Sample Code_I2c/KL25 Sample Code/kl25_sc_rev10/klxx-sc-baremetal/src/drivers/mcg\mcg.c ****  *             vdiv_val    - value to multiply the PLL reference clock frequency by
 457:D:/kuaipan/SEMG/MEMS_SEMG_KL25/KL25 Sample Code_I2c/KL25 Sample Code/kl25_sc_rev10/klxx-sc-baremetal/src/drivers/mcg\mcg.c ****  *
 458:D:/kuaipan/SEMG/MEMS_SEMG_KL25/KL25 Sample Code_I2c/KL25 Sample Code/kl25_sc_rev10/klxx-sc-baremetal/src/drivers/mcg\mcg.c ****  * Return value : MCGCLKOUT frequency (Hz) or error code
 459:D:/kuaipan/SEMG/MEMS_SEMG_KL25/KL25 Sample Code_I2c/KL25 Sample Code/kl25_sc_rev10/klxx-sc-baremetal/src/drivers/mcg\mcg.c ****  */
 460:D:/kuaipan/SEMG/MEMS_SEMG_KL25/KL25 Sample Code_I2c/KL25 Sample Code/kl25_sc_rev10/klxx-sc-baremetal/src/drivers/mcg\mcg.c **** int fbe_pbe(int crystal_val, signed char prdiv_val, signed char vdiv_val)
 461:D:/kuaipan/SEMG/MEMS_SEMG_KL25/KL25 Sample Code_I2c/KL25 Sample Code/kl25_sc_rev10/klxx-sc-baremetal/src/drivers/mcg\mcg.c **** {
 1172              		.loc 1 461 0
 1173              		.cfi_startproc
 1174              	.LVL94:
 1175 0000 F0B5     		push	{r4, r5, r6, r7, lr}
 1176              	.LCFI7:
 1177              		.cfi_def_cfa_offset 20
 1178              		.cfi_offset 4, -20
 1179              		.cfi_offset 5, -16
 1180              		.cfi_offset 6, -12
 1181              		.cfi_offset 7, -8
 1182              		.cfi_offset 14, -4
 1183 0002 4746     		mov	r7, r8
 1184 0004 80B4     		push	{r7}
 1185              	.LCFI8:
 1186              		.cfi_def_cfa_offset 24
 1187              		.cfi_offset 8, -24
 462:D:/kuaipan/SEMG/MEMS_SEMG_KL25/KL25 Sample Code_I2c/KL25 Sample Code/kl25_sc_rev10/klxx-sc-baremetal/src/drivers/mcg\mcg.c ****   unsigned char temp_reg;
 463:D:/kuaipan/SEMG/MEMS_SEMG_KL25/KL25 Sample Code_I2c/KL25 Sample Code/kl25_sc_rev10/klxx-sc-baremetal/src/drivers/mcg\mcg.c ****   short i;
 464:D:/kuaipan/SEMG/MEMS_SEMG_KL25/KL25 Sample Code_I2c/KL25 Sample Code/kl25_sc_rev10/klxx-sc-baremetal/src/drivers/mcg\mcg.c ****   int pll_freq;
 465:D:/kuaipan/SEMG/MEMS_SEMG_KL25/KL25 Sample Code_I2c/KL25 Sample Code/kl25_sc_rev10/klxx-sc-baremetal/src/drivers/mcg\mcg.c ****   
 466:D:/kuaipan/SEMG/MEMS_SEMG_KL25/KL25 Sample Code_I2c/KL25 Sample Code/kl25_sc_rev10/klxx-sc-baremetal/src/drivers/mcg\mcg.c **** // Check MCG is in FBE mode
 467:D:/kuaipan/SEMG/MEMS_SEMG_KL25/KL25 Sample Code_I2c/KL25 Sample Code/kl25_sc_rev10/klxx-sc-baremetal/src/drivers/mcg\mcg.c ****   if (!((((MCG_S & MCG_S_CLKST_MASK) >> MCG_S_CLKST_SHIFT) == 0x2) && // check CLKS mux has selcted
 1188              		.loc 1 467 0
 1189 0006 354D     		ldr	r5, .L235
 461:D:/kuaipan/SEMG/MEMS_SEMG_KL25/KL25 Sample Code_I2c/KL25 Sample Code/kl25_sc_rev10/klxx-sc-baremetal/src/drivers/mcg\mcg.c **** {
 1190              		.loc 1 461 0
 1191 0008 041C     		mov	r4, r0
 1192              		.loc 1 467 0
 1193 000a AB79     		ldrb	r3, [r5, #6]
 461:D:/kuaipan/SEMG/MEMS_SEMG_KL25/KL25 Sample Code_I2c/KL25 Sample Code/kl25_sc_rev10/klxx-sc-baremetal/src/drivers/mcg\mcg.c **** {
 1194              		.loc 1 461 0
 1195 000c 161C     		mov	r6, r2
 1196              		.loc 1 467 0
 1197 000e 1807     		lsl	r0, r3, #28
 1198              	.LVL95:
 1199 0010 870F     		lsr	r7, r0, #30
 1200 0012 022F     		cmp	r7, #2
 1201 0014 04D0     		beq	.L227
 1202              	.LVL96:
 1203              	.L217:
 468:D:/kuaipan/SEMG/MEMS_SEMG_KL25/KL25 Sample Code_I2c/KL25 Sample Code/kl25_sc_rev10/klxx-sc-baremetal/src/drivers/mcg\mcg.c ****       (!(MCG_S & MCG_S_IREFST_MASK)) &&                               // check FLL ref is external 
 469:D:/kuaipan/SEMG/MEMS_SEMG_KL25/KL25 Sample Code_I2c/KL25 Sample Code/kl25_sc_rev10/klxx-sc-baremetal/src/drivers/mcg\mcg.c ****       (!(MCG_S & MCG_S_PLLST_MASK)) &&                                // check PLLS mux has selecte
 470:D:/kuaipan/SEMG/MEMS_SEMG_KL25/KL25 Sample Code_I2c/KL25 Sample Code/kl25_sc_rev10/klxx-sc-baremetal/src/drivers/mcg\mcg.c ****       (!(MCG_C2 & MCG_C2_LP_MASK))))                                  // check MCG_C2[LP] bit is no
 471:D:/kuaipan/SEMG/MEMS_SEMG_KL25/KL25 Sample Code_I2c/KL25 Sample Code/kl25_sc_rev10/klxx-sc-baremetal/src/drivers/mcg\mcg.c ****   {
 472:D:/kuaipan/SEMG/MEMS_SEMG_KL25/KL25 Sample Code_I2c/KL25 Sample Code/kl25_sc_rev10/klxx-sc-baremetal/src/drivers/mcg\mcg.c ****     return 0x4;                                                       // return error code
 1204              		.loc 1 472 0
 1205 0016 0424     		mov	r4, #4
 1206              	.LVL97:
 1207              	.L209:
 473:D:/kuaipan/SEMG/MEMS_SEMG_KL25/KL25 Sample Code_I2c/KL25 Sample Code/kl25_sc_rev10/klxx-sc-baremetal/src/drivers/mcg\mcg.c ****   }
 474:D:/kuaipan/SEMG/MEMS_SEMG_KL25/KL25 Sample Code_I2c/KL25 Sample Code/kl25_sc_rev10/klxx-sc-baremetal/src/drivers/mcg\mcg.c ****   
 475:D:/kuaipan/SEMG/MEMS_SEMG_KL25/KL25 Sample Code_I2c/KL25 Sample Code/kl25_sc_rev10/klxx-sc-baremetal/src/drivers/mcg\mcg.c **** // As the external frequency has already been checked when FBE mode was enterred it is not checked 
 476:D:/kuaipan/SEMG/MEMS_SEMG_KL25/KL25 Sample Code_I2c/KL25 Sample Code/kl25_sc_rev10/klxx-sc-baremetal/src/drivers/mcg\mcg.c **** 
 477:D:/kuaipan/SEMG/MEMS_SEMG_KL25/KL25 Sample Code_I2c/KL25 Sample Code/kl25_sc_rev10/klxx-sc-baremetal/src/drivers/mcg\mcg.c **** // Check PLL divider settings are within spec.
 478:D:/kuaipan/SEMG/MEMS_SEMG_KL25/KL25 Sample Code_I2c/KL25 Sample Code/kl25_sc_rev10/klxx-sc-baremetal/src/drivers/mcg\mcg.c ****   if ((prdiv_val < 1) || (prdiv_val > 25)) {return 0x41;}
 479:D:/kuaipan/SEMG/MEMS_SEMG_KL25/KL25 Sample Code_I2c/KL25 Sample Code/kl25_sc_rev10/klxx-sc-baremetal/src/drivers/mcg\mcg.c ****   if ((vdiv_val < 24) || (vdiv_val > 50)) {return 0x42;} 
 480:D:/kuaipan/SEMG/MEMS_SEMG_KL25/KL25 Sample Code_I2c/KL25 Sample Code/kl25_sc_rev10/klxx-sc-baremetal/src/drivers/mcg\mcg.c ****   
 481:D:/kuaipan/SEMG/MEMS_SEMG_KL25/KL25 Sample Code_I2c/KL25 Sample Code/kl25_sc_rev10/klxx-sc-baremetal/src/drivers/mcg\mcg.c **** // Check PLL reference clock frequency is within spec.
 482:D:/kuaipan/SEMG/MEMS_SEMG_KL25/KL25 Sample Code_I2c/KL25 Sample Code/kl25_sc_rev10/klxx-sc-baremetal/src/drivers/mcg\mcg.c ****   if (((crystal_val / prdiv_val) < 2000000) || ((crystal_val / prdiv_val) > 4000000)) {return 0x43;
 483:D:/kuaipan/SEMG/MEMS_SEMG_KL25/KL25 Sample Code_I2c/KL25 Sample Code/kl25_sc_rev10/klxx-sc-baremetal/src/drivers/mcg\mcg.c ****        
 484:D:/kuaipan/SEMG/MEMS_SEMG_KL25/KL25 Sample Code_I2c/KL25 Sample Code/kl25_sc_rev10/klxx-sc-baremetal/src/drivers/mcg\mcg.c **** // Check PLL output frequency is within spec.
 485:D:/kuaipan/SEMG/MEMS_SEMG_KL25/KL25 Sample Code_I2c/KL25 Sample Code/kl25_sc_rev10/klxx-sc-baremetal/src/drivers/mcg\mcg.c ****   pll_freq = (crystal_val / prdiv_val) * vdiv_val;
 486:D:/kuaipan/SEMG/MEMS_SEMG_KL25/KL25 Sample Code_I2c/KL25 Sample Code/kl25_sc_rev10/klxx-sc-baremetal/src/drivers/mcg\mcg.c ****   if ((pll_freq < 48000000) || (pll_freq > 100000000)) {return 0x45;}
 487:D:/kuaipan/SEMG/MEMS_SEMG_KL25/KL25 Sample Code_I2c/KL25 Sample Code/kl25_sc_rev10/klxx-sc-baremetal/src/drivers/mcg\mcg.c **** 
 488:D:/kuaipan/SEMG/MEMS_SEMG_KL25/KL25 Sample Code_I2c/KL25 Sample Code/kl25_sc_rev10/klxx-sc-baremetal/src/drivers/mcg\mcg.c ****   // Configure MCG_C5
 489:D:/kuaipan/SEMG/MEMS_SEMG_KL25/KL25 Sample Code_I2c/KL25 Sample Code/kl25_sc_rev10/klxx-sc-baremetal/src/drivers/mcg\mcg.c ****   // If the PLL is to run in STOP mode then the PLLSTEN bit needs to be OR'ed in here or in user co
 490:D:/kuaipan/SEMG/MEMS_SEMG_KL25/KL25 Sample Code_I2c/KL25 Sample Code/kl25_sc_rev10/klxx-sc-baremetal/src/drivers/mcg\mcg.c ****   temp_reg = MCG_C5;
 491:D:/kuaipan/SEMG/MEMS_SEMG_KL25/KL25 Sample Code_I2c/KL25 Sample Code/kl25_sc_rev10/klxx-sc-baremetal/src/drivers/mcg\mcg.c ****   temp_reg &= ~MCG_C5_PRDIV0_MASK;
 492:D:/kuaipan/SEMG/MEMS_SEMG_KL25/KL25 Sample Code_I2c/KL25 Sample Code/kl25_sc_rev10/klxx-sc-baremetal/src/drivers/mcg\mcg.c ****   temp_reg |= MCG_C5_PRDIV0(prdiv_val - 1);    //set PLL ref divider
 493:D:/kuaipan/SEMG/MEMS_SEMG_KL25/KL25 Sample Code_I2c/KL25 Sample Code/kl25_sc_rev10/klxx-sc-baremetal/src/drivers/mcg\mcg.c ****   MCG_C5 = temp_reg;
 494:D:/kuaipan/SEMG/MEMS_SEMG_KL25/KL25 Sample Code_I2c/KL25 Sample Code/kl25_sc_rev10/klxx-sc-baremetal/src/drivers/mcg\mcg.c **** 
 495:D:/kuaipan/SEMG/MEMS_SEMG_KL25/KL25 Sample Code_I2c/KL25 Sample Code/kl25_sc_rev10/klxx-sc-baremetal/src/drivers/mcg\mcg.c ****   // Configure MCG_C6
 496:D:/kuaipan/SEMG/MEMS_SEMG_KL25/KL25 Sample Code_I2c/KL25 Sample Code/kl25_sc_rev10/klxx-sc-baremetal/src/drivers/mcg\mcg.c ****   // The PLLS bit is set to enable the PLL, MCGOUT still sourced from ext ref clk 
 497:D:/kuaipan/SEMG/MEMS_SEMG_KL25/KL25 Sample Code_I2c/KL25 Sample Code/kl25_sc_rev10/klxx-sc-baremetal/src/drivers/mcg\mcg.c ****   // The clock monitor is not enabled here as it has likely been enabled previously and so the valu
 498:D:/kuaipan/SEMG/MEMS_SEMG_KL25/KL25 Sample Code_I2c/KL25 Sample Code/kl25_sc_rev10/klxx-sc-baremetal/src/drivers/mcg\mcg.c ****   // is not altered here.
 499:D:/kuaipan/SEMG/MEMS_SEMG_KL25/KL25 Sample Code_I2c/KL25 Sample Code/kl25_sc_rev10/klxx-sc-baremetal/src/drivers/mcg\mcg.c ****   // The loss of lock interrupt can be enabled by seperately OR'ing in the LOLIE bit in MCG_C6
 500:D:/kuaipan/SEMG/MEMS_SEMG_KL25/KL25 Sample Code_I2c/KL25 Sample Code/kl25_sc_rev10/klxx-sc-baremetal/src/drivers/mcg\mcg.c ****   temp_reg = MCG_C6; // store present C6 value
 501:D:/kuaipan/SEMG/MEMS_SEMG_KL25/KL25 Sample Code_I2c/KL25 Sample Code/kl25_sc_rev10/klxx-sc-baremetal/src/drivers/mcg\mcg.c ****   temp_reg &= ~MCG_C6_VDIV0_MASK; // clear VDIV settings
 502:D:/kuaipan/SEMG/MEMS_SEMG_KL25/KL25 Sample Code_I2c/KL25 Sample Code/kl25_sc_rev10/klxx-sc-baremetal/src/drivers/mcg\mcg.c ****   temp_reg |= MCG_C6_PLLS_MASK | MCG_C6_VDIV0(vdiv_val - 24); // write new VDIV and enable PLL
 503:D:/kuaipan/SEMG/MEMS_SEMG_KL25/KL25 Sample Code_I2c/KL25 Sample Code/kl25_sc_rev10/klxx-sc-baremetal/src/drivers/mcg\mcg.c ****   MCG_C6 = temp_reg; // update MCG_C6
 504:D:/kuaipan/SEMG/MEMS_SEMG_KL25/KL25 Sample Code_I2c/KL25 Sample Code/kl25_sc_rev10/klxx-sc-baremetal/src/drivers/mcg\mcg.c ****   
 505:D:/kuaipan/SEMG/MEMS_SEMG_KL25/KL25 Sample Code_I2c/KL25 Sample Code/kl25_sc_rev10/klxx-sc-baremetal/src/drivers/mcg\mcg.c ****   // wait for PLLST status bit to set
 506:D:/kuaipan/SEMG/MEMS_SEMG_KL25/KL25 Sample Code_I2c/KL25 Sample Code/kl25_sc_rev10/klxx-sc-baremetal/src/drivers/mcg\mcg.c ****   for (i = 0 ; i < 2000 ; i++)
 507:D:/kuaipan/SEMG/MEMS_SEMG_KL25/KL25 Sample Code_I2c/KL25 Sample Code/kl25_sc_rev10/klxx-sc-baremetal/src/drivers/mcg\mcg.c ****   {
 508:D:/kuaipan/SEMG/MEMS_SEMG_KL25/KL25 Sample Code_I2c/KL25 Sample Code/kl25_sc_rev10/klxx-sc-baremetal/src/drivers/mcg\mcg.c ****     if (MCG_S & MCG_S_PLLST_MASK) break; // jump out early if PLLST sets before loop finishes
 509:D:/kuaipan/SEMG/MEMS_SEMG_KL25/KL25 Sample Code_I2c/KL25 Sample Code/kl25_sc_rev10/klxx-sc-baremetal/src/drivers/mcg\mcg.c ****   }
 510:D:/kuaipan/SEMG/MEMS_SEMG_KL25/KL25 Sample Code_I2c/KL25 Sample Code/kl25_sc_rev10/klxx-sc-baremetal/src/drivers/mcg\mcg.c ****   if (!(MCG_S & MCG_S_PLLST_MASK)) return 0x16; // check bit is really set and return with error if
 511:D:/kuaipan/SEMG/MEMS_SEMG_KL25/KL25 Sample Code_I2c/KL25 Sample Code/kl25_sc_rev10/klxx-sc-baremetal/src/drivers/mcg\mcg.c **** 
 512:D:/kuaipan/SEMG/MEMS_SEMG_KL25/KL25 Sample Code_I2c/KL25 Sample Code/kl25_sc_rev10/klxx-sc-baremetal/src/drivers/mcg\mcg.c ****   // Wait for LOCK bit to set
 513:D:/kuaipan/SEMG/MEMS_SEMG_KL25/KL25 Sample Code_I2c/KL25 Sample Code/kl25_sc_rev10/klxx-sc-baremetal/src/drivers/mcg\mcg.c ****   for (i = 0 ; i < 2000 ; i++)
 514:D:/kuaipan/SEMG/MEMS_SEMG_KL25/KL25 Sample Code_I2c/KL25 Sample Code/kl25_sc_rev10/klxx-sc-baremetal/src/drivers/mcg\mcg.c ****   {
 515:D:/kuaipan/SEMG/MEMS_SEMG_KL25/KL25 Sample Code_I2c/KL25 Sample Code/kl25_sc_rev10/klxx-sc-baremetal/src/drivers/mcg\mcg.c ****     if (MCG_S & MCG_S_LOCK0_MASK) break; // jump out early if LOCK sets before loop finishes
 516:D:/kuaipan/SEMG/MEMS_SEMG_KL25/KL25 Sample Code_I2c/KL25 Sample Code/kl25_sc_rev10/klxx-sc-baremetal/src/drivers/mcg\mcg.c ****   }
 517:D:/kuaipan/SEMG/MEMS_SEMG_KL25/KL25 Sample Code_I2c/KL25 Sample Code/kl25_sc_rev10/klxx-sc-baremetal/src/drivers/mcg\mcg.c ****   if (!(MCG_S & MCG_S_LOCK0_MASK)) return 0x44; // check bit is really set and return with error if
 518:D:/kuaipan/SEMG/MEMS_SEMG_KL25/KL25 Sample Code_I2c/KL25 Sample Code/kl25_sc_rev10/klxx-sc-baremetal/src/drivers/mcg\mcg.c ****     
 519:D:/kuaipan/SEMG/MEMS_SEMG_KL25/KL25 Sample Code_I2c/KL25 Sample Code/kl25_sc_rev10/klxx-sc-baremetal/src/drivers/mcg\mcg.c **** // now in PBE 
 520:D:/kuaipan/SEMG/MEMS_SEMG_KL25/KL25 Sample Code_I2c/KL25 Sample Code/kl25_sc_rev10/klxx-sc-baremetal/src/drivers/mcg\mcg.c ****   return crystal_val; // MCGOUT frequency equals external clock frequency
 521:D:/kuaipan/SEMG/MEMS_SEMG_KL25/KL25 Sample Code_I2c/KL25 Sample Code/kl25_sc_rev10/klxx-sc-baremetal/src/drivers/mcg\mcg.c **** } // fbe_pbe
 1208              		.loc 1 521 0
 1209 0018 201C     		mov	r0, r4
 1210              		@ sp needed for prologue
 1211 001a 04BC     		pop	{r2}
 1212 001c 9046     		mov	r8, r2
 1213 001e F0BD     		pop	{r4, r5, r6, r7, pc}
 1214              	.LVL98:
 1215              	.L227:
 468:D:/kuaipan/SEMG/MEMS_SEMG_KL25/KL25 Sample Code_I2c/KL25 Sample Code/kl25_sc_rev10/klxx-sc-baremetal/src/drivers/mcg\mcg.c ****       (!(MCG_S & MCG_S_IREFST_MASK)) &&                               // check FLL ref is external 
 1216              		.loc 1 468 0
 1217 0020 AA79     		ldrb	r2, [r5, #6]
 1218              	.LVL99:
 467:D:/kuaipan/SEMG/MEMS_SEMG_KL25/KL25 Sample Code_I2c/KL25 Sample Code/kl25_sc_rev10/klxx-sc-baremetal/src/drivers/mcg\mcg.c ****   if (!((((MCG_S & MCG_S_CLKST_MASK) >> MCG_S_CLKST_SHIFT) == 0x2) && // check CLKS mux has selcted
 1219              		.loc 1 467 0
 1220 0022 D006     		lsl	r0, r2, #27
 1221 0024 F7D4     		bmi	.L217
 469:D:/kuaipan/SEMG/MEMS_SEMG_KL25/KL25 Sample Code_I2c/KL25 Sample Code/kl25_sc_rev10/klxx-sc-baremetal/src/drivers/mcg\mcg.c ****       (!(MCG_S & MCG_S_PLLST_MASK)) &&                                // check PLLS mux has selecte
 1222              		.loc 1 469 0
 1223 0026 AB79     		ldrb	r3, [r5, #6]
 468:D:/kuaipan/SEMG/MEMS_SEMG_KL25/KL25 Sample Code_I2c/KL25 Sample Code/kl25_sc_rev10/klxx-sc-baremetal/src/drivers/mcg\mcg.c ****       (!(MCG_S & MCG_S_IREFST_MASK)) &&                               // check FLL ref is external 
 1224              		.loc 1 468 0
 1225 0028 9806     		lsl	r0, r3, #26
 1226 002a F4D4     		bmi	.L217
 470:D:/kuaipan/SEMG/MEMS_SEMG_KL25/KL25 Sample Code_I2c/KL25 Sample Code/kl25_sc_rev10/klxx-sc-baremetal/src/drivers/mcg\mcg.c ****       (!(MCG_C2 & MCG_C2_LP_MASK))))                                  // check MCG_C2[LP] bit is no
 1227              		.loc 1 470 0
 1228 002c 6878     		ldrb	r0, [r5, #1]
 467:D:/kuaipan/SEMG/MEMS_SEMG_KL25/KL25 Sample Code_I2c/KL25 Sample Code/kl25_sc_rev10/klxx-sc-baremetal/src/drivers/mcg\mcg.c ****   if (!((((MCG_S & MCG_S_CLKST_MASK) >> MCG_S_CLKST_SHIFT) == 0x2) && // check CLKS mux has selcted
 1229              		.loc 1 467 0
 1230 002e 0742     		tst	r7, r0
 1231 0030 F1D1     		bne	.L217
 478:D:/kuaipan/SEMG/MEMS_SEMG_KL25/KL25 Sample Code_I2c/KL25 Sample Code/kl25_sc_rev10/klxx-sc-baremetal/src/drivers/mcg\mcg.c ****   if ((prdiv_val < 1) || (prdiv_val > 25)) {return 0x41;}
 1232              		.loc 1 478 0
 1233 0032 4F1E     		sub	r7, r1, #1
 1234 0034 FFB2     		uxtb	r7, r7
 1235 0036 182F     		cmp	r7, #24
 1236 0038 01D9     		bls	.L228
 1237 003a 4124     		mov	r4, #65
 1238              	.LVL100:
 1239 003c ECE7     		b	.L209
 1240              	.LVL101:
 1241              	.L228:
 479:D:/kuaipan/SEMG/MEMS_SEMG_KL25/KL25 Sample Code_I2c/KL25 Sample Code/kl25_sc_rev10/klxx-sc-baremetal/src/drivers/mcg\mcg.c ****   if ((vdiv_val < 24) || (vdiv_val > 50)) {return 0x42;} 
 1242              		.loc 1 479 0
 1243 003e 321C     		mov	r2, r6
 1244 0040 183A     		sub	r2, r2, #24
 1245 0042 D3B2     		uxtb	r3, r2
 1246 0044 9846     		mov	r8, r3
 1247 0046 1A2B     		cmp	r3, #26
 1248 0048 01D9     		bls	.L229
 1249 004a 4224     		mov	r4, #66
 1250              	.LVL102:
 1251 004c E4E7     		b	.L209
 1252              	.LVL103:
 1253              	.L229:
 482:D:/kuaipan/SEMG/MEMS_SEMG_KL25/KL25 Sample Code_I2c/KL25 Sample Code/kl25_sc_rev10/klxx-sc-baremetal/src/drivers/mcg\mcg.c ****   if (((crystal_val / prdiv_val) < 2000000) || ((crystal_val / prdiv_val) > 4000000)) {return 0x43;
 1254              		.loc 1 482 0
 1255 004e 201C     		mov	r0, r4
 1256 0050 FFF7FEFF 		bl	__aeabi_idiv
 1257              	.LVL104:
 1258 0054 2249     		ldr	r1, .L235+4
 1259 0056 234B     		ldr	r3, .L235+8
 1260 0058 4218     		add	r2, r0, r1
 1261 005a 9A42     		cmp	r2, r3
 1262 005c 01D9     		bls	.L230
 1263 005e 4324     		mov	r4, #67
 1264              	.LVL105:
 1265 0060 DAE7     		b	.L209
 1266              	.LVL106:
 1267              	.L230:
 485:D:/kuaipan/SEMG/MEMS_SEMG_KL25/KL25 Sample Code_I2c/KL25 Sample Code/kl25_sc_rev10/klxx-sc-baremetal/src/drivers/mcg\mcg.c ****   pll_freq = (crystal_val / prdiv_val) * vdiv_val;
 1268              		.loc 1 485 0
 1269 0062 7043     		mul	r0, r6
 1270              	.LVL107:
 486:D:/kuaipan/SEMG/MEMS_SEMG_KL25/KL25 Sample Code_I2c/KL25 Sample Code/kl25_sc_rev10/klxx-sc-baremetal/src/drivers/mcg\mcg.c ****   if ((pll_freq < 48000000) || (pll_freq > 100000000)) {return 0x45;}
 1271              		.loc 1 486 0
 1272 0064 204E     		ldr	r6, .L235+12
 1273              	.LVL108:
 1274 0066 2149     		ldr	r1, .L235+16
 1275 0068 8019     		add	r0, r0, r6
 1276 006a 8842     		cmp	r0, r1
 1277 006c 01D9     		bls	.L231
 1278 006e 4524     		mov	r4, #69
 1279              	.LVL109:
 1280 0070 D2E7     		b	.L209
 1281              	.LVL110:
 1282              	.L231:
 490:D:/kuaipan/SEMG/MEMS_SEMG_KL25/KL25 Sample Code_I2c/KL25 Sample Code/kl25_sc_rev10/klxx-sc-baremetal/src/drivers/mcg\mcg.c ****   temp_reg = MCG_C5;
 1283              		.loc 1 490 0
 1284 0072 2A79     		ldrb	r2, [r5, #4]
 1285              	.LVL111:
 491:D:/kuaipan/SEMG/MEMS_SEMG_KL25/KL25 Sample Code_I2c/KL25 Sample Code/kl25_sc_rev10/klxx-sc-baremetal/src/drivers/mcg\mcg.c ****   temp_reg &= ~MCG_C5_PRDIV0_MASK;
 1286              		.loc 1 491 0
 1287 0074 1F23     		mov	r3, #31
 1288 0076 9A43     		bic	r2, r3
 1289              	.LVL112:
 492:D:/kuaipan/SEMG/MEMS_SEMG_KL25/KL25 Sample Code_I2c/KL25 Sample Code/kl25_sc_rev10/klxx-sc-baremetal/src/drivers/mcg\mcg.c ****   temp_reg |= MCG_C5_PRDIV0(prdiv_val - 1);    //set PLL ref divider
 1290              		.loc 1 492 0
 1291 0078 1743     		orr	r7, r2
 1292              	.LVL113:
 493:D:/kuaipan/SEMG/MEMS_SEMG_KL25/KL25 Sample Code_I2c/KL25 Sample Code/kl25_sc_rev10/klxx-sc-baremetal/src/drivers/mcg\mcg.c ****   MCG_C5 = temp_reg;
 1293              		.loc 1 493 0
 1294 007a 2F71     		strb	r7, [r5, #4]
 500:D:/kuaipan/SEMG/MEMS_SEMG_KL25/KL25 Sample Code_I2c/KL25 Sample Code/kl25_sc_rev10/klxx-sc-baremetal/src/drivers/mcg\mcg.c ****   temp_reg = MCG_C6; // store present C6 value
 1295              		.loc 1 500 0
 1296 007c 6F79     		ldrb	r7, [r5, #5]
 1297              	.LVL114:
 502:D:/kuaipan/SEMG/MEMS_SEMG_KL25/KL25 Sample Code_I2c/KL25 Sample Code/kl25_sc_rev10/klxx-sc-baremetal/src/drivers/mcg\mcg.c ****   temp_reg |= MCG_C6_PLLS_MASK | MCG_C6_VDIV0(vdiv_val - 24); // write new VDIV and enable PLL
 1298              		.loc 1 502 0
 1299 007e 4020     		mov	r0, #64
 501:D:/kuaipan/SEMG/MEMS_SEMG_KL25/KL25 Sample Code_I2c/KL25 Sample Code/kl25_sc_rev10/klxx-sc-baremetal/src/drivers/mcg\mcg.c ****   temp_reg &= ~MCG_C6_VDIV0_MASK; // clear VDIV settings
 1300              		.loc 1 501 0
 1301 0080 9F43     		bic	r7, r3
 1302              	.LVL115:
 1303 0082 3E1C     		mov	r6, r7
 502:D:/kuaipan/SEMG/MEMS_SEMG_KL25/KL25 Sample Code_I2c/KL25 Sample Code/kl25_sc_rev10/klxx-sc-baremetal/src/drivers/mcg\mcg.c ****   temp_reg |= MCG_C6_PLLS_MASK | MCG_C6_VDIV0(vdiv_val - 24); // write new VDIV and enable PLL
 1304              		.loc 1 502 0
 1305 0084 4146     		mov	r1, r8
 1306 0086 0643     		orr	r6, r0
 1307 0088 0E43     		orr	r6, r1
 1308              	.LVL116:
 503:D:/kuaipan/SEMG/MEMS_SEMG_KL25/KL25 Sample Code_I2c/KL25 Sample Code/kl25_sc_rev10/klxx-sc-baremetal/src/drivers/mcg\mcg.c ****   MCG_C6 = temp_reg; // update MCG_C6
 1309              		.loc 1 503 0
 1310 008a FA22     		mov	r2, #250
 1311 008c 6E71     		strb	r6, [r5, #5]
 1312              	.LVL117:
 1313 008e D100     		lsl	r1, r2, #3
 508:D:/kuaipan/SEMG/MEMS_SEMG_KL25/KL25 Sample Code_I2c/KL25 Sample Code/kl25_sc_rev10/klxx-sc-baremetal/src/drivers/mcg\mcg.c ****     if (MCG_S & MCG_S_PLLST_MASK) break; // jump out early if PLLST sets before loop finishes
 1314              		.loc 1 508 0
 1315 0090 2027     		mov	r7, #32
 1316 0092 08E0     		b	.L211
 1317              	.LVL118:
 1318              	.L232:
 1319 0094 A879     		ldrb	r0, [r5, #6]
 1320 0096 0139     		sub	r1, r1, #1
 1321 0098 8BB2     		uxth	r3, r1
 1322 009a 0742     		tst	r7, r0
 1323 009c 06D1     		bne	.L210
 1324 009e 013B     		sub	r3, r3, #1
 1325 00a0 99B2     		uxth	r1, r3
 506:D:/kuaipan/SEMG/MEMS_SEMG_KL25/KL25 Sample Code_I2c/KL25 Sample Code/kl25_sc_rev10/klxx-sc-baremetal/src/drivers/mcg\mcg.c ****   for (i = 0 ; i < 2000 ; i++)
 1326              		.loc 1 506 0
 1327 00a2 0029     		cmp	r1, #0
 1328 00a4 02D0     		beq	.L210
 1329              	.L211:
 508:D:/kuaipan/SEMG/MEMS_SEMG_KL25/KL25 Sample Code_I2c/KL25 Sample Code/kl25_sc_rev10/klxx-sc-baremetal/src/drivers/mcg\mcg.c ****     if (MCG_S & MCG_S_PLLST_MASK) break; // jump out early if PLLST sets before loop finishes
 1330              		.loc 1 508 0
 1331 00a6 AE79     		ldrb	r6, [r5, #6]
 1332 00a8 3742     		tst	r7, r6
 1333 00aa F3D0     		beq	.L232
 1334              	.L210:
 510:D:/kuaipan/SEMG/MEMS_SEMG_KL25/KL25 Sample Code_I2c/KL25 Sample Code/kl25_sc_rev10/klxx-sc-baremetal/src/drivers/mcg\mcg.c ****   if (!(MCG_S & MCG_S_PLLST_MASK)) return 0x16; // check bit is really set and return with error if
 1335              		.loc 1 510 0
 1336 00ac 0B4D     		ldr	r5, .L235
 1337 00ae AA79     		ldrb	r2, [r5, #6]
 1338 00b0 9106     		lsl	r1, r2, #26
 1339 00b2 01D4     		bmi	.L233
 1340 00b4 1624     		mov	r4, #22
 1341              	.LVL119:
 1342 00b6 AFE7     		b	.L209
 1343              	.LVL120:
 1344              	.L233:
 1345 00b8 FA27     		mov	r7, #250
 1346 00ba FB00     		lsl	r3, r7, #3
 515:D:/kuaipan/SEMG/MEMS_SEMG_KL25/KL25 Sample Code_I2c/KL25 Sample Code/kl25_sc_rev10/klxx-sc-baremetal/src/drivers/mcg\mcg.c ****     if (MCG_S & MCG_S_LOCK0_MASK) break; // jump out early if LOCK sets before loop finishes
 1347              		.loc 1 515 0
 1348 00bc 4026     		mov	r6, #64
 1349 00be 03E0     		b	.L213
 1350              	.L234:
 1351 00c0 013B     		sub	r3, r3, #1
 1352 00c2 9BB2     		uxth	r3, r3
 513:D:/kuaipan/SEMG/MEMS_SEMG_KL25/KL25 Sample Code_I2c/KL25 Sample Code/kl25_sc_rev10/klxx-sc-baremetal/src/drivers/mcg\mcg.c ****   for (i = 0 ; i < 2000 ; i++)
 1353              		.loc 1 513 0
 1354 00c4 002B     		cmp	r3, #0
 1355 00c6 02D0     		beq	.L212
 1356              	.L213:
 515:D:/kuaipan/SEMG/MEMS_SEMG_KL25/KL25 Sample Code_I2c/KL25 Sample Code/kl25_sc_rev10/klxx-sc-baremetal/src/drivers/mcg\mcg.c ****     if (MCG_S & MCG_S_LOCK0_MASK) break; // jump out early if LOCK sets before loop finishes
 1357              		.loc 1 515 0
 1358 00c8 A879     		ldrb	r0, [r5, #6]
 1359 00ca 3042     		tst	r0, r6
 1360 00cc F8D0     		beq	.L234
 1361              	.L212:
 517:D:/kuaipan/SEMG/MEMS_SEMG_KL25/KL25 Sample Code_I2c/KL25 Sample Code/kl25_sc_rev10/klxx-sc-baremetal/src/drivers/mcg\mcg.c ****   if (!(MCG_S & MCG_S_LOCK0_MASK)) return 0x44; // check bit is really set and return with error if
 1362              		.loc 1 517 0
 1363 00ce 0349     		ldr	r1, .L235
 1364 00d0 8D79     		ldrb	r5, [r1, #6]
 1365 00d2 6A06     		lsl	r2, r5, #25
 1366 00d4 A0D4     		bmi	.L209
 1367 00d6 4424     		mov	r4, #68
 1368              	.LVL121:
 1369 00d8 9EE7     		b	.L209
 1370              	.L236:
 1371 00da C046     		.align	2
 1372              	.L235:
 1373 00dc 00400640 		.word	1074151424
 1374 00e0 807BE1FF 		.word	-2000000
 1375 00e4 80841E00 		.word	2000000
 1376 00e8 009423FD 		.word	-48000000
 1377 00ec 00751903 		.word	52000000
 1378              		.cfi_endproc
 1379              	.LFE5:
 1381              		.section	.text.pbe_blpe,"ax",%progbits
 1382              		.align	2
 1383              		.global	pbe_blpe
 1384              		.code	16
 1385              		.thumb_func
 1387              	pbe_blpe:
 1388              	.LFB6:
 522:D:/kuaipan/SEMG/MEMS_SEMG_KL25/KL25 Sample Code_I2c/KL25 Sample Code/kl25_sc_rev10/klxx-sc-baremetal/src/drivers/mcg\mcg.c **** 
 523:D:/kuaipan/SEMG/MEMS_SEMG_KL25/KL25 Sample Code_I2c/KL25 Sample Code/kl25_sc_rev10/klxx-sc-baremetal/src/drivers/mcg\mcg.c **** 
 524:D:/kuaipan/SEMG/MEMS_SEMG_KL25/KL25 Sample Code_I2c/KL25 Sample Code/kl25_sc_rev10/klxx-sc-baremetal/src/drivers/mcg\mcg.c **** int pbe_blpe(int crystal_val)
 525:D:/kuaipan/SEMG/MEMS_SEMG_KL25/KL25 Sample Code_I2c/KL25 Sample Code/kl25_sc_rev10/klxx-sc-baremetal/src/drivers/mcg\mcg.c **** {
 1389              		.loc 1 525 0
 1390              		.cfi_startproc
 1391              	.LVL122:
 1392 0000 10B5     		push	{r4, lr}
 1393              	.LCFI9:
 1394              		.cfi_def_cfa_offset 8
 1395              		.cfi_offset 4, -8
 1396              		.cfi_offset 14, -4
 526:D:/kuaipan/SEMG/MEMS_SEMG_KL25/KL25 Sample Code_I2c/KL25 Sample Code/kl25_sc_rev10/klxx-sc-baremetal/src/drivers/mcg\mcg.c **** // Check MCG is in PBE mode
 527:D:/kuaipan/SEMG/MEMS_SEMG_KL25/KL25 Sample Code_I2c/KL25 Sample Code/kl25_sc_rev10/klxx-sc-baremetal/src/drivers/mcg\mcg.c ****   if (!((((MCG_S & MCG_S_CLKST_MASK) >> MCG_S_CLKST_SHIFT) == 0x2) && // check CLKS mux has selcted
 1397              		.loc 1 527 0
 1398 0002 0B4B     		ldr	r3, .L244
 1399 0004 9A79     		ldrb	r2, [r3, #6]
 1400 0006 1107     		lsl	r1, r2, #28
 1401 0008 8A0F     		lsr	r2, r1, #30
 1402 000a 022A     		cmp	r2, #2
 1403 000c 01D0     		beq	.L243
 1404              	.L242:
 528:D:/kuaipan/SEMG/MEMS_SEMG_KL25/KL25 Sample Code_I2c/KL25 Sample Code/kl25_sc_rev10/klxx-sc-baremetal/src/drivers/mcg\mcg.c ****       (!(MCG_S & MCG_S_IREFST_MASK)) &&                               // check FLL ref is external 
 529:D:/kuaipan/SEMG/MEMS_SEMG_KL25/KL25 Sample Code_I2c/KL25 Sample Code/kl25_sc_rev10/klxx-sc-baremetal/src/drivers/mcg\mcg.c ****       (MCG_S & MCG_S_PLLST_MASK) &&                                   // check PLLS mux has selecte
 530:D:/kuaipan/SEMG/MEMS_SEMG_KL25/KL25 Sample Code_I2c/KL25 Sample Code/kl25_sc_rev10/klxx-sc-baremetal/src/drivers/mcg\mcg.c ****       (!(MCG_C2 & MCG_C2_LP_MASK))))                                  // check MCG_C2[LP] bit is no
 531:D:/kuaipan/SEMG/MEMS_SEMG_KL25/KL25 Sample Code_I2c/KL25 Sample Code/kl25_sc_rev10/klxx-sc-baremetal/src/drivers/mcg\mcg.c ****   {
 532:D:/kuaipan/SEMG/MEMS_SEMG_KL25/KL25 Sample Code_I2c/KL25 Sample Code/kl25_sc_rev10/klxx-sc-baremetal/src/drivers/mcg\mcg.c ****     return 0x7;                                                       // return error code
 1405              		.loc 1 532 0
 1406 000e 0720     		mov	r0, #7
 1407              	.LVL123:
 1408              	.L238:
 533:D:/kuaipan/SEMG/MEMS_SEMG_KL25/KL25 Sample Code_I2c/KL25 Sample Code/kl25_sc_rev10/klxx-sc-baremetal/src/drivers/mcg\mcg.c ****   }
 534:D:/kuaipan/SEMG/MEMS_SEMG_KL25/KL25 Sample Code_I2c/KL25 Sample Code/kl25_sc_rev10/klxx-sc-baremetal/src/drivers/mcg\mcg.c ****   
 535:D:/kuaipan/SEMG/MEMS_SEMG_KL25/KL25 Sample Code_I2c/KL25 Sample Code/kl25_sc_rev10/klxx-sc-baremetal/src/drivers/mcg\mcg.c **** // To enter BLPE mode the LP bit must be set, disabling the PLL  
 536:D:/kuaipan/SEMG/MEMS_SEMG_KL25/KL25 Sample Code_I2c/KL25 Sample Code/kl25_sc_rev10/klxx-sc-baremetal/src/drivers/mcg\mcg.c ****   MCG_C2 |= MCG_C2_LP_MASK;
 537:D:/kuaipan/SEMG/MEMS_SEMG_KL25/KL25 Sample Code_I2c/KL25 Sample Code/kl25_sc_rev10/klxx-sc-baremetal/src/drivers/mcg\mcg.c ****   
 538:D:/kuaipan/SEMG/MEMS_SEMG_KL25/KL25 Sample Code_I2c/KL25 Sample Code/kl25_sc_rev10/klxx-sc-baremetal/src/drivers/mcg\mcg.c **** // Now in BLPE mode
 539:D:/kuaipan/SEMG/MEMS_SEMG_KL25/KL25 Sample Code_I2c/KL25 Sample Code/kl25_sc_rev10/klxx-sc-baremetal/src/drivers/mcg\mcg.c ****   return crystal_val;  
 540:D:/kuaipan/SEMG/MEMS_SEMG_KL25/KL25 Sample Code_I2c/KL25 Sample Code/kl25_sc_rev10/klxx-sc-baremetal/src/drivers/mcg\mcg.c **** } // pbe_blpe
 1409              		.loc 1 540 0
 1410              		@ sp needed for prologue
 1411 0010 10BD     		pop	{r4, pc}
 1412              	.LVL124:
 1413              	.L243:
 528:D:/kuaipan/SEMG/MEMS_SEMG_KL25/KL25 Sample Code_I2c/KL25 Sample Code/kl25_sc_rev10/klxx-sc-baremetal/src/drivers/mcg\mcg.c ****       (!(MCG_S & MCG_S_IREFST_MASK)) &&                               // check FLL ref is external 
 1414              		.loc 1 528 0
 1415 0012 9C79     		ldrb	r4, [r3, #6]
 527:D:/kuaipan/SEMG/MEMS_SEMG_KL25/KL25 Sample Code_I2c/KL25 Sample Code/kl25_sc_rev10/klxx-sc-baremetal/src/drivers/mcg\mcg.c ****   if (!((((MCG_S & MCG_S_CLKST_MASK) >> MCG_S_CLKST_SHIFT) == 0x2) && // check CLKS mux has selcted
 1416              		.loc 1 527 0
 1417 0014 E406     		lsl	r4, r4, #27
 1418 0016 FAD4     		bmi	.L242
 529:D:/kuaipan/SEMG/MEMS_SEMG_KL25/KL25 Sample Code_I2c/KL25 Sample Code/kl25_sc_rev10/klxx-sc-baremetal/src/drivers/mcg\mcg.c ****       (MCG_S & MCG_S_PLLST_MASK) &&                                   // check PLLS mux has selecte
 1419              		.loc 1 529 0
 1420 0018 9979     		ldrb	r1, [r3, #6]
 528:D:/kuaipan/SEMG/MEMS_SEMG_KL25/KL25 Sample Code_I2c/KL25 Sample Code/kl25_sc_rev10/klxx-sc-baremetal/src/drivers/mcg\mcg.c ****       (!(MCG_S & MCG_S_IREFST_MASK)) &&                               // check FLL ref is external 
 1421              		.loc 1 528 0
 1422 001a 8C06     		lsl	r4, r1, #26
 1423 001c F7D5     		bpl	.L242
 530:D:/kuaipan/SEMG/MEMS_SEMG_KL25/KL25 Sample Code_I2c/KL25 Sample Code/kl25_sc_rev10/klxx-sc-baremetal/src/drivers/mcg\mcg.c ****       (!(MCG_C2 & MCG_C2_LP_MASK))))                                  // check MCG_C2[LP] bit is no
 1424              		.loc 1 530 0
 1425 001e 5C78     		ldrb	r4, [r3, #1]
 527:D:/kuaipan/SEMG/MEMS_SEMG_KL25/KL25 Sample Code_I2c/KL25 Sample Code/kl25_sc_rev10/klxx-sc-baremetal/src/drivers/mcg\mcg.c ****   if (!((((MCG_S & MCG_S_CLKST_MASK) >> MCG_S_CLKST_SHIFT) == 0x2) && // check CLKS mux has selcted
 1426              		.loc 1 527 0
 1427 0020 2242     		tst	r2, r4
 1428 0022 F4D1     		bne	.L242
 536:D:/kuaipan/SEMG/MEMS_SEMG_KL25/KL25 Sample Code_I2c/KL25 Sample Code/kl25_sc_rev10/klxx-sc-baremetal/src/drivers/mcg\mcg.c ****   MCG_C2 |= MCG_C2_LP_MASK;
 1429              		.loc 1 536 0
 1430 0024 5978     		ldrb	r1, [r3, #1]
 1431 0026 0A43     		orr	r2, r1
 1432 0028 D2B2     		uxtb	r2, r2
 1433 002a 5A70     		strb	r2, [r3, #1]
 539:D:/kuaipan/SEMG/MEMS_SEMG_KL25/KL25 Sample Code_I2c/KL25 Sample Code/kl25_sc_rev10/klxx-sc-baremetal/src/drivers/mcg\mcg.c ****   return crystal_val;  
 1434              		.loc 1 539 0
 1435 002c F0E7     		b	.L238
 1436              	.L245:
 1437 002e C046     		.align	2
 1438              	.L244:
 1439 0030 00400640 		.word	1074151424
 1440              		.cfi_endproc
 1441              	.LFE6:
 1443              		.section	.text.blpe_pbe,"ax",%progbits
 1444              		.align	2
 1445              		.global	blpe_pbe
 1446              		.code	16
 1447              		.thumb_func
 1449              	blpe_pbe:
 1450              	.LFB7:
 541:D:/kuaipan/SEMG/MEMS_SEMG_KL25/KL25 Sample Code_I2c/KL25 Sample Code/kl25_sc_rev10/klxx-sc-baremetal/src/drivers/mcg\mcg.c **** 
 542:D:/kuaipan/SEMG/MEMS_SEMG_KL25/KL25 Sample Code_I2c/KL25 Sample Code/kl25_sc_rev10/klxx-sc-baremetal/src/drivers/mcg\mcg.c **** 
 543:D:/kuaipan/SEMG/MEMS_SEMG_KL25/KL25 Sample Code_I2c/KL25 Sample Code/kl25_sc_rev10/klxx-sc-baremetal/src/drivers/mcg\mcg.c **** // ************************************************************************************************
 544:D:/kuaipan/SEMG/MEMS_SEMG_KL25/KL25 Sample Code_I2c/KL25 Sample Code/kl25_sc_rev10/klxx-sc-baremetal/src/drivers/mcg\mcg.c **** // Since PBE mode can be enterred via FBE -> BLPE modes, it cannot be assumed that the PLL has been
 545:D:/kuaipan/SEMG/MEMS_SEMG_KL25/KL25 Sample Code_I2c/KL25 Sample Code/kl25_sc_rev10/klxx-sc-baremetal/src/drivers/mcg\mcg.c **** // previously configured correctly. That is why this general purpose driver has the PLL settings as
 546:D:/kuaipan/SEMG/MEMS_SEMG_KL25/KL25 Sample Code_I2c/KL25 Sample Code/kl25_sc_rev10/klxx-sc-baremetal/src/drivers/mcg\mcg.c **** // passed parameters.
 547:D:/kuaipan/SEMG/MEMS_SEMG_KL25/KL25 Sample Code_I2c/KL25 Sample Code/kl25_sc_rev10/klxx-sc-baremetal/src/drivers/mcg\mcg.c **** // ************************************************************************************************
 548:D:/kuaipan/SEMG/MEMS_SEMG_KL25/KL25 Sample Code_I2c/KL25 Sample Code/kl25_sc_rev10/klxx-sc-baremetal/src/drivers/mcg\mcg.c **** int blpe_pbe(int crystal_val, signed char prdiv_val, signed char vdiv_val)
 549:D:/kuaipan/SEMG/MEMS_SEMG_KL25/KL25 Sample Code_I2c/KL25 Sample Code/kl25_sc_rev10/klxx-sc-baremetal/src/drivers/mcg\mcg.c **** {
 1451              		.loc 1 549 0
 1452              		.cfi_startproc
 1453              	.LVL125:
 1454 0000 F0B5     		push	{r4, r5, r6, r7, lr}
 1455              	.LCFI10:
 1456              		.cfi_def_cfa_offset 20
 1457              		.cfi_offset 4, -20
 1458              		.cfi_offset 5, -16
 1459              		.cfi_offset 6, -12
 1460              		.cfi_offset 7, -8
 1461              		.cfi_offset 14, -4
 1462 0002 4746     		mov	r7, r8
 1463 0004 80B4     		push	{r7}
 1464              	.LCFI11:
 1465              		.cfi_def_cfa_offset 24
 1466              		.cfi_offset 8, -24
 550:D:/kuaipan/SEMG/MEMS_SEMG_KL25/KL25 Sample Code_I2c/KL25 Sample Code/kl25_sc_rev10/klxx-sc-baremetal/src/drivers/mcg\mcg.c ****   unsigned char temp_reg;
 551:D:/kuaipan/SEMG/MEMS_SEMG_KL25/KL25 Sample Code_I2c/KL25 Sample Code/kl25_sc_rev10/klxx-sc-baremetal/src/drivers/mcg\mcg.c ****   short i;
 552:D:/kuaipan/SEMG/MEMS_SEMG_KL25/KL25 Sample Code_I2c/KL25 Sample Code/kl25_sc_rev10/klxx-sc-baremetal/src/drivers/mcg\mcg.c ****   
 553:D:/kuaipan/SEMG/MEMS_SEMG_KL25/KL25 Sample Code_I2c/KL25 Sample Code/kl25_sc_rev10/klxx-sc-baremetal/src/drivers/mcg\mcg.c **** // Check MCG is in BLPE mode
 554:D:/kuaipan/SEMG/MEMS_SEMG_KL25/KL25 Sample Code_I2c/KL25 Sample Code/kl25_sc_rev10/klxx-sc-baremetal/src/drivers/mcg\mcg.c ****   if (!((((MCG_S & MCG_S_CLKST_MASK) >> MCG_S_CLKST_SHIFT) == 0x2) && // check CLKS mux has selcted
 1467              		.loc 1 554 0
 1468 0006 324D     		ldr	r5, .L272
 549:D:/kuaipan/SEMG/MEMS_SEMG_KL25/KL25 Sample Code_I2c/KL25 Sample Code/kl25_sc_rev10/klxx-sc-baremetal/src/drivers/mcg\mcg.c **** {
 1469              		.loc 1 549 0
 1470 0008 041C     		mov	r4, r0
 1471              		.loc 1 554 0
 1472 000a AE79     		ldrb	r6, [r5, #6]
 1473 000c 3007     		lsl	r0, r6, #28
 1474              	.LVL126:
 1475 000e 860F     		lsr	r6, r0, #30
 1476 0010 022E     		cmp	r6, #2
 1477 0012 04D0     		beq	.L265
 1478              	.L254:
 555:D:/kuaipan/SEMG/MEMS_SEMG_KL25/KL25 Sample Code_I2c/KL25 Sample Code/kl25_sc_rev10/klxx-sc-baremetal/src/drivers/mcg\mcg.c ****       (!(MCG_S & MCG_S_IREFST_MASK)) &&                               // check FLL ref is external 
 556:D:/kuaipan/SEMG/MEMS_SEMG_KL25/KL25 Sample Code_I2c/KL25 Sample Code/kl25_sc_rev10/klxx-sc-baremetal/src/drivers/mcg\mcg.c ****       (MCG_C2 & MCG_C2_LP_MASK)))                                     // check MCG_C2[LP] bit is se
 557:D:/kuaipan/SEMG/MEMS_SEMG_KL25/KL25 Sample Code_I2c/KL25 Sample Code/kl25_sc_rev10/klxx-sc-baremetal/src/drivers/mcg\mcg.c ****   {
 558:D:/kuaipan/SEMG/MEMS_SEMG_KL25/KL25 Sample Code_I2c/KL25 Sample Code/kl25_sc_rev10/klxx-sc-baremetal/src/drivers/mcg\mcg.c ****     return 0x6;                                                       // return error code
 1479              		.loc 1 558 0
 1480 0014 0624     		mov	r4, #6
 1481              	.LVL127:
 1482              	.L247:
 559:D:/kuaipan/SEMG/MEMS_SEMG_KL25/KL25 Sample Code_I2c/KL25 Sample Code/kl25_sc_rev10/klxx-sc-baremetal/src/drivers/mcg\mcg.c ****   }
 560:D:/kuaipan/SEMG/MEMS_SEMG_KL25/KL25 Sample Code_I2c/KL25 Sample Code/kl25_sc_rev10/klxx-sc-baremetal/src/drivers/mcg\mcg.c ****   
 561:D:/kuaipan/SEMG/MEMS_SEMG_KL25/KL25 Sample Code_I2c/KL25 Sample Code/kl25_sc_rev10/klxx-sc-baremetal/src/drivers/mcg\mcg.c **** // As the external frequency has already been checked when FBE mode was enterred it is not checked 
 562:D:/kuaipan/SEMG/MEMS_SEMG_KL25/KL25 Sample Code_I2c/KL25 Sample Code/kl25_sc_rev10/klxx-sc-baremetal/src/drivers/mcg\mcg.c **** 
 563:D:/kuaipan/SEMG/MEMS_SEMG_KL25/KL25 Sample Code_I2c/KL25 Sample Code/kl25_sc_rev10/klxx-sc-baremetal/src/drivers/mcg\mcg.c **** // Check PLL divider settings are within spec.
 564:D:/kuaipan/SEMG/MEMS_SEMG_KL25/KL25 Sample Code_I2c/KL25 Sample Code/kl25_sc_rev10/klxx-sc-baremetal/src/drivers/mcg\mcg.c ****   if ((prdiv_val < 1) || (prdiv_val > 25)) {return 0x41;}
 565:D:/kuaipan/SEMG/MEMS_SEMG_KL25/KL25 Sample Code_I2c/KL25 Sample Code/kl25_sc_rev10/klxx-sc-baremetal/src/drivers/mcg\mcg.c ****   if ((vdiv_val < 24) || (vdiv_val > 50)) {return 0x42;} 
 566:D:/kuaipan/SEMG/MEMS_SEMG_KL25/KL25 Sample Code_I2c/KL25 Sample Code/kl25_sc_rev10/klxx-sc-baremetal/src/drivers/mcg\mcg.c ****   
 567:D:/kuaipan/SEMG/MEMS_SEMG_KL25/KL25 Sample Code_I2c/KL25 Sample Code/kl25_sc_rev10/klxx-sc-baremetal/src/drivers/mcg\mcg.c **** // Check PLL reference clock frequency is within spec.
 568:D:/kuaipan/SEMG/MEMS_SEMG_KL25/KL25 Sample Code_I2c/KL25 Sample Code/kl25_sc_rev10/klxx-sc-baremetal/src/drivers/mcg\mcg.c ****   if (((crystal_val / prdiv_val) < 2000000) || ((crystal_val / prdiv_val) > 4000000)) {return 0x43;
 569:D:/kuaipan/SEMG/MEMS_SEMG_KL25/KL25 Sample Code_I2c/KL25 Sample Code/kl25_sc_rev10/klxx-sc-baremetal/src/drivers/mcg\mcg.c ****        
 570:D:/kuaipan/SEMG/MEMS_SEMG_KL25/KL25 Sample Code_I2c/KL25 Sample Code/kl25_sc_rev10/klxx-sc-baremetal/src/drivers/mcg\mcg.c **** // If PRDIV, VDIV and the PLL ref clock are in spec. then the PLL frequency is within spec.
 571:D:/kuaipan/SEMG/MEMS_SEMG_KL25/KL25 Sample Code_I2c/KL25 Sample Code/kl25_sc_rev10/klxx-sc-baremetal/src/drivers/mcg\mcg.c **** 
 572:D:/kuaipan/SEMG/MEMS_SEMG_KL25/KL25 Sample Code_I2c/KL25 Sample Code/kl25_sc_rev10/klxx-sc-baremetal/src/drivers/mcg\mcg.c **** // Configure MCG_C5
 573:D:/kuaipan/SEMG/MEMS_SEMG_KL25/KL25 Sample Code_I2c/KL25 Sample Code/kl25_sc_rev10/klxx-sc-baremetal/src/drivers/mcg\mcg.c **** // If the PLL is to run in STOP mode then the PLLSTEN bit needs to be OR'ed in here or in user code
 574:D:/kuaipan/SEMG/MEMS_SEMG_KL25/KL25 Sample Code_I2c/KL25 Sample Code/kl25_sc_rev10/klxx-sc-baremetal/src/drivers/mcg\mcg.c ****   temp_reg = MCG_C5;
 575:D:/kuaipan/SEMG/MEMS_SEMG_KL25/KL25 Sample Code_I2c/KL25 Sample Code/kl25_sc_rev10/klxx-sc-baremetal/src/drivers/mcg\mcg.c ****   temp_reg &= ~MCG_C5_PRDIV0_MASK;
 576:D:/kuaipan/SEMG/MEMS_SEMG_KL25/KL25 Sample Code_I2c/KL25 Sample Code/kl25_sc_rev10/klxx-sc-baremetal/src/drivers/mcg\mcg.c ****   temp_reg |= MCG_C5_PRDIV0(prdiv_val - 1);    //set PLL ref divider
 577:D:/kuaipan/SEMG/MEMS_SEMG_KL25/KL25 Sample Code_I2c/KL25 Sample Code/kl25_sc_rev10/klxx-sc-baremetal/src/drivers/mcg\mcg.c ****   MCG_C5 = temp_reg;
 578:D:/kuaipan/SEMG/MEMS_SEMG_KL25/KL25 Sample Code_I2c/KL25 Sample Code/kl25_sc_rev10/klxx-sc-baremetal/src/drivers/mcg\mcg.c **** 
 579:D:/kuaipan/SEMG/MEMS_SEMG_KL25/KL25 Sample Code_I2c/KL25 Sample Code/kl25_sc_rev10/klxx-sc-baremetal/src/drivers/mcg\mcg.c **** // Configure MCG_C6
 580:D:/kuaipan/SEMG/MEMS_SEMG_KL25/KL25 Sample Code_I2c/KL25 Sample Code/kl25_sc_rev10/klxx-sc-baremetal/src/drivers/mcg\mcg.c **** // The PLLS bit is set to enable the PLL, MCGOUT still sourced from ext ref clk 
 581:D:/kuaipan/SEMG/MEMS_SEMG_KL25/KL25 Sample Code_I2c/KL25 Sample Code/kl25_sc_rev10/klxx-sc-baremetal/src/drivers/mcg\mcg.c **** // The clock monitor is not enabled here as it has likely been enabled previously and so the value 
 582:D:/kuaipan/SEMG/MEMS_SEMG_KL25/KL25 Sample Code_I2c/KL25 Sample Code/kl25_sc_rev10/klxx-sc-baremetal/src/drivers/mcg\mcg.c **** // is not altered here.
 583:D:/kuaipan/SEMG/MEMS_SEMG_KL25/KL25 Sample Code_I2c/KL25 Sample Code/kl25_sc_rev10/klxx-sc-baremetal/src/drivers/mcg\mcg.c **** // The loss of lock interrupt can be enabled by seperately OR'ing in the LOLIE bit in MCG_C6
 584:D:/kuaipan/SEMG/MEMS_SEMG_KL25/KL25 Sample Code_I2c/KL25 Sample Code/kl25_sc_rev10/klxx-sc-baremetal/src/drivers/mcg\mcg.c ****   temp_reg = MCG_C6; // store present C6 value
 585:D:/kuaipan/SEMG/MEMS_SEMG_KL25/KL25 Sample Code_I2c/KL25 Sample Code/kl25_sc_rev10/klxx-sc-baremetal/src/drivers/mcg\mcg.c ****   temp_reg &= ~MCG_C6_VDIV0_MASK; // clear VDIV settings
 586:D:/kuaipan/SEMG/MEMS_SEMG_KL25/KL25 Sample Code_I2c/KL25 Sample Code/kl25_sc_rev10/klxx-sc-baremetal/src/drivers/mcg\mcg.c ****   temp_reg |= MCG_C6_PLLS_MASK | MCG_C6_VDIV0(vdiv_val - 24); // write new VDIV and enable PLL
 587:D:/kuaipan/SEMG/MEMS_SEMG_KL25/KL25 Sample Code_I2c/KL25 Sample Code/kl25_sc_rev10/klxx-sc-baremetal/src/drivers/mcg\mcg.c ****   MCG_C6 = temp_reg; // update MCG_C6
 588:D:/kuaipan/SEMG/MEMS_SEMG_KL25/KL25 Sample Code_I2c/KL25 Sample Code/kl25_sc_rev10/klxx-sc-baremetal/src/drivers/mcg\mcg.c ****   
 589:D:/kuaipan/SEMG/MEMS_SEMG_KL25/KL25 Sample Code_I2c/KL25 Sample Code/kl25_sc_rev10/klxx-sc-baremetal/src/drivers/mcg\mcg.c **** // Now that PLL is configured, LP is cleared to enable the PLL
 590:D:/kuaipan/SEMG/MEMS_SEMG_KL25/KL25 Sample Code_I2c/KL25 Sample Code/kl25_sc_rev10/klxx-sc-baremetal/src/drivers/mcg\mcg.c ****   MCG_C2 &= ~MCG_C2_LP_MASK;
 591:D:/kuaipan/SEMG/MEMS_SEMG_KL25/KL25 Sample Code_I2c/KL25 Sample Code/kl25_sc_rev10/klxx-sc-baremetal/src/drivers/mcg\mcg.c ****   
 592:D:/kuaipan/SEMG/MEMS_SEMG_KL25/KL25 Sample Code_I2c/KL25 Sample Code/kl25_sc_rev10/klxx-sc-baremetal/src/drivers/mcg\mcg.c **** // wait for PLLST status bit to set
 593:D:/kuaipan/SEMG/MEMS_SEMG_KL25/KL25 Sample Code_I2c/KL25 Sample Code/kl25_sc_rev10/klxx-sc-baremetal/src/drivers/mcg\mcg.c ****   for (i = 0 ; i < 2000 ; i++)
 594:D:/kuaipan/SEMG/MEMS_SEMG_KL25/KL25 Sample Code_I2c/KL25 Sample Code/kl25_sc_rev10/klxx-sc-baremetal/src/drivers/mcg\mcg.c ****   {
 595:D:/kuaipan/SEMG/MEMS_SEMG_KL25/KL25 Sample Code_I2c/KL25 Sample Code/kl25_sc_rev10/klxx-sc-baremetal/src/drivers/mcg\mcg.c ****     if (MCG_S & MCG_S_PLLST_MASK) break; // jump out early if PLLST sets before loop finishes
 596:D:/kuaipan/SEMG/MEMS_SEMG_KL25/KL25 Sample Code_I2c/KL25 Sample Code/kl25_sc_rev10/klxx-sc-baremetal/src/drivers/mcg\mcg.c ****   }
 597:D:/kuaipan/SEMG/MEMS_SEMG_KL25/KL25 Sample Code_I2c/KL25 Sample Code/kl25_sc_rev10/klxx-sc-baremetal/src/drivers/mcg\mcg.c ****   if (!(MCG_S & MCG_S_PLLST_MASK)) return 0x16; // check bit is really set and return with error if
 598:D:/kuaipan/SEMG/MEMS_SEMG_KL25/KL25 Sample Code_I2c/KL25 Sample Code/kl25_sc_rev10/klxx-sc-baremetal/src/drivers/mcg\mcg.c **** 
 599:D:/kuaipan/SEMG/MEMS_SEMG_KL25/KL25 Sample Code_I2c/KL25 Sample Code/kl25_sc_rev10/klxx-sc-baremetal/src/drivers/mcg\mcg.c **** // Wait for LOCK bit to set
 600:D:/kuaipan/SEMG/MEMS_SEMG_KL25/KL25 Sample Code_I2c/KL25 Sample Code/kl25_sc_rev10/klxx-sc-baremetal/src/drivers/mcg\mcg.c ****   for (i = 0 ; i < 2000 ; i++)
 601:D:/kuaipan/SEMG/MEMS_SEMG_KL25/KL25 Sample Code_I2c/KL25 Sample Code/kl25_sc_rev10/klxx-sc-baremetal/src/drivers/mcg\mcg.c ****   {
 602:D:/kuaipan/SEMG/MEMS_SEMG_KL25/KL25 Sample Code_I2c/KL25 Sample Code/kl25_sc_rev10/klxx-sc-baremetal/src/drivers/mcg\mcg.c ****     if (MCG_S & MCG_S_LOCK0_MASK) break; // jump out early if LOCK sets before loop finishes
 603:D:/kuaipan/SEMG/MEMS_SEMG_KL25/KL25 Sample Code_I2c/KL25 Sample Code/kl25_sc_rev10/klxx-sc-baremetal/src/drivers/mcg\mcg.c ****   }
 604:D:/kuaipan/SEMG/MEMS_SEMG_KL25/KL25 Sample Code_I2c/KL25 Sample Code/kl25_sc_rev10/klxx-sc-baremetal/src/drivers/mcg\mcg.c ****   if (!(MCG_S & MCG_S_LOCK0_MASK)) return 0x44; // check bit is really set and return with error if
 605:D:/kuaipan/SEMG/MEMS_SEMG_KL25/KL25 Sample Code_I2c/KL25 Sample Code/kl25_sc_rev10/klxx-sc-baremetal/src/drivers/mcg\mcg.c **** 
 606:D:/kuaipan/SEMG/MEMS_SEMG_KL25/KL25 Sample Code_I2c/KL25 Sample Code/kl25_sc_rev10/klxx-sc-baremetal/src/drivers/mcg\mcg.c **** // now in PBE 
 607:D:/kuaipan/SEMG/MEMS_SEMG_KL25/KL25 Sample Code_I2c/KL25 Sample Code/kl25_sc_rev10/klxx-sc-baremetal/src/drivers/mcg\mcg.c ****   return crystal_val; // MCGOUT frequency equals external clock frequency  
 608:D:/kuaipan/SEMG/MEMS_SEMG_KL25/KL25 Sample Code_I2c/KL25 Sample Code/kl25_sc_rev10/klxx-sc-baremetal/src/drivers/mcg\mcg.c **** } // blpe_pbe
 1483              		.loc 1 608 0
 1484 0016 201C     		mov	r0, r4
 1485              		@ sp needed for prologue
 1486 0018 04BC     		pop	{r2}
 1487 001a 9046     		mov	r8, r2
 1488 001c F0BD     		pop	{r4, r5, r6, r7, pc}
 1489              	.LVL128:
 1490              	.L265:
 555:D:/kuaipan/SEMG/MEMS_SEMG_KL25/KL25 Sample Code_I2c/KL25 Sample Code/kl25_sc_rev10/klxx-sc-baremetal/src/drivers/mcg\mcg.c ****       (!(MCG_S & MCG_S_IREFST_MASK)) &&                               // check FLL ref is external 
 1491              		.loc 1 555 0
 1492 001e AB79     		ldrb	r3, [r5, #6]
 554:D:/kuaipan/SEMG/MEMS_SEMG_KL25/KL25 Sample Code_I2c/KL25 Sample Code/kl25_sc_rev10/klxx-sc-baremetal/src/drivers/mcg\mcg.c ****   if (!((((MCG_S & MCG_S_CLKST_MASK) >> MCG_S_CLKST_SHIFT) == 0x2) && // check CLKS mux has selcted
 1493              		.loc 1 554 0
 1494 0020 D806     		lsl	r0, r3, #27
 1495 0022 F7D4     		bmi	.L254
 556:D:/kuaipan/SEMG/MEMS_SEMG_KL25/KL25 Sample Code_I2c/KL25 Sample Code/kl25_sc_rev10/klxx-sc-baremetal/src/drivers/mcg\mcg.c ****       (MCG_C2 & MCG_C2_LP_MASK)))                                     // check MCG_C2[LP] bit is se
 1496              		.loc 1 556 0
 1497 0024 6F78     		ldrb	r7, [r5, #1]
 554:D:/kuaipan/SEMG/MEMS_SEMG_KL25/KL25 Sample Code_I2c/KL25 Sample Code/kl25_sc_rev10/klxx-sc-baremetal/src/drivers/mcg\mcg.c ****   if (!((((MCG_S & MCG_S_CLKST_MASK) >> MCG_S_CLKST_SHIFT) == 0x2) && // check CLKS mux has selcted
 1498              		.loc 1 554 0
 1499 0026 3E42     		tst	r6, r7
 1500 0028 F4D0     		beq	.L254
 564:D:/kuaipan/SEMG/MEMS_SEMG_KL25/KL25 Sample Code_I2c/KL25 Sample Code/kl25_sc_rev10/klxx-sc-baremetal/src/drivers/mcg\mcg.c ****   if ((prdiv_val < 1) || (prdiv_val > 25)) {return 0x41;}
 1501              		.loc 1 564 0
 1502 002a 481E     		sub	r0, r1, #1
 1503 002c C7B2     		uxtb	r7, r0
 1504 002e 182F     		cmp	r7, #24
 1505 0030 01D9     		bls	.L266
 1506 0032 4124     		mov	r4, #65
 1507              	.LVL129:
 1508 0034 EFE7     		b	.L247
 1509              	.LVL130:
 1510              	.L266:
 565:D:/kuaipan/SEMG/MEMS_SEMG_KL25/KL25 Sample Code_I2c/KL25 Sample Code/kl25_sc_rev10/klxx-sc-baremetal/src/drivers/mcg\mcg.c ****   if ((vdiv_val < 24) || (vdiv_val > 50)) {return 0x42;} 
 1511              		.loc 1 565 0
 1512 0036 183A     		sub	r2, r2, #24
 1513              	.LVL131:
 1514 0038 D2B2     		uxtb	r2, r2
 1515 003a 9046     		mov	r8, r2
 1516 003c 1A2A     		cmp	r2, #26
 1517 003e 01D9     		bls	.L267
 1518 0040 4224     		mov	r4, #66
 1519              	.LVL132:
 1520 0042 E8E7     		b	.L247
 1521              	.LVL133:
 1522              	.L267:
 568:D:/kuaipan/SEMG/MEMS_SEMG_KL25/KL25 Sample Code_I2c/KL25 Sample Code/kl25_sc_rev10/klxx-sc-baremetal/src/drivers/mcg\mcg.c ****   if (((crystal_val / prdiv_val) < 2000000) || ((crystal_val / prdiv_val) > 4000000)) {return 0x43;
 1523              		.loc 1 568 0
 1524 0044 201C     		mov	r0, r4
 1525 0046 FFF7FEFF 		bl	__aeabi_idiv
 1526              	.LVL134:
 1527 004a 2249     		ldr	r1, .L272+4
 1528 004c 224B     		ldr	r3, .L272+8
 1529 004e 4018     		add	r0, r0, r1
 1530 0050 9842     		cmp	r0, r3
 1531 0052 01D9     		bls	.L268
 1532 0054 4324     		mov	r4, #67
 1533              	.LVL135:
 1534 0056 DEE7     		b	.L247
 1535              	.LVL136:
 1536              	.L268:
 574:D:/kuaipan/SEMG/MEMS_SEMG_KL25/KL25 Sample Code_I2c/KL25 Sample Code/kl25_sc_rev10/klxx-sc-baremetal/src/drivers/mcg\mcg.c ****   temp_reg = MCG_C5;
 1537              		.loc 1 574 0
 1538 0058 2A79     		ldrb	r2, [r5, #4]
 1539              	.LVL137:
 575:D:/kuaipan/SEMG/MEMS_SEMG_KL25/KL25 Sample Code_I2c/KL25 Sample Code/kl25_sc_rev10/klxx-sc-baremetal/src/drivers/mcg\mcg.c ****   temp_reg &= ~MCG_C5_PRDIV0_MASK;
 1540              		.loc 1 575 0
 1541 005a 1F21     		mov	r1, #31
 1542 005c 8A43     		bic	r2, r1
 1543              	.LVL138:
 576:D:/kuaipan/SEMG/MEMS_SEMG_KL25/KL25 Sample Code_I2c/KL25 Sample Code/kl25_sc_rev10/klxx-sc-baremetal/src/drivers/mcg\mcg.c ****   temp_reg |= MCG_C5_PRDIV0(prdiv_val - 1);    //set PLL ref divider
 1544              		.loc 1 576 0
 1545 005e 1743     		orr	r7, r2
 1546              	.LVL139:
 577:D:/kuaipan/SEMG/MEMS_SEMG_KL25/KL25 Sample Code_I2c/KL25 Sample Code/kl25_sc_rev10/klxx-sc-baremetal/src/drivers/mcg\mcg.c ****   MCG_C5 = temp_reg;
 1547              		.loc 1 577 0
 1548 0060 2F71     		strb	r7, [r5, #4]
 584:D:/kuaipan/SEMG/MEMS_SEMG_KL25/KL25 Sample Code_I2c/KL25 Sample Code/kl25_sc_rev10/klxx-sc-baremetal/src/drivers/mcg\mcg.c ****   temp_reg = MCG_C6; // store present C6 value
 1549              		.loc 1 584 0
 1550 0062 6F79     		ldrb	r7, [r5, #5]
 1551              	.LVL140:
 586:D:/kuaipan/SEMG/MEMS_SEMG_KL25/KL25 Sample Code_I2c/KL25 Sample Code/kl25_sc_rev10/klxx-sc-baremetal/src/drivers/mcg\mcg.c ****   temp_reg |= MCG_C6_PLLS_MASK | MCG_C6_VDIV0(vdiv_val - 24); // write new VDIV and enable PLL
 1552              		.loc 1 586 0
 1553 0064 4023     		mov	r3, #64
 585:D:/kuaipan/SEMG/MEMS_SEMG_KL25/KL25 Sample Code_I2c/KL25 Sample Code/kl25_sc_rev10/klxx-sc-baremetal/src/drivers/mcg\mcg.c ****   temp_reg &= ~MCG_C6_VDIV0_MASK; // clear VDIV settings
 1554              		.loc 1 585 0
 1555 0066 8F43     		bic	r7, r1
 1556              	.LVL141:
 1557 0068 381C     		mov	r0, r7
 586:D:/kuaipan/SEMG/MEMS_SEMG_KL25/KL25 Sample Code_I2c/KL25 Sample Code/kl25_sc_rev10/klxx-sc-baremetal/src/drivers/mcg\mcg.c ****   temp_reg |= MCG_C6_PLLS_MASK | MCG_C6_VDIV0(vdiv_val - 24); // write new VDIV and enable PLL
 1558              		.loc 1 586 0
 1559 006a 1843     		orr	r0, r3
 1560 006c 4246     		mov	r2, r8
 1561 006e 1043     		orr	r0, r2
 1562              	.LVL142:
 587:D:/kuaipan/SEMG/MEMS_SEMG_KL25/KL25 Sample Code_I2c/KL25 Sample Code/kl25_sc_rev10/klxx-sc-baremetal/src/drivers/mcg\mcg.c ****   MCG_C6 = temp_reg; // update MCG_C6
 1563              		.loc 1 587 0
 1564 0070 6871     		strb	r0, [r5, #5]
 590:D:/kuaipan/SEMG/MEMS_SEMG_KL25/KL25 Sample Code_I2c/KL25 Sample Code/kl25_sc_rev10/klxx-sc-baremetal/src/drivers/mcg\mcg.c ****   MCG_C2 &= ~MCG_C2_LP_MASK;
 1565              		.loc 1 590 0
 1566 0072 6978     		ldrb	r1, [r5, #1]
 595:D:/kuaipan/SEMG/MEMS_SEMG_KL25/KL25 Sample Code_I2c/KL25 Sample Code/kl25_sc_rev10/klxx-sc-baremetal/src/drivers/mcg\mcg.c ****     if (MCG_S & MCG_S_PLLST_MASK) break; // jump out early if PLLST sets before loop finishes
 1567              		.loc 1 595 0
 1568 0074 2027     		mov	r7, #32
 590:D:/kuaipan/SEMG/MEMS_SEMG_KL25/KL25 Sample Code_I2c/KL25 Sample Code/kl25_sc_rev10/klxx-sc-baremetal/src/drivers/mcg\mcg.c ****   MCG_C2 &= ~MCG_C2_LP_MASK;
 1569              		.loc 1 590 0
 1570 0076 B143     		bic	r1, r6
 1571 0078 FA26     		mov	r6, #250
 1572 007a 6970     		strb	r1, [r5, #1]
 1573              	.LVL143:
 1574 007c F100     		lsl	r1, r6, #3
 1575 007e 08E0     		b	.L249
 1576              	.LVL144:
 1577              	.L269:
 595:D:/kuaipan/SEMG/MEMS_SEMG_KL25/KL25 Sample Code_I2c/KL25 Sample Code/kl25_sc_rev10/klxx-sc-baremetal/src/drivers/mcg\mcg.c ****     if (MCG_S & MCG_S_PLLST_MASK) break; // jump out early if PLLST sets before loop finishes
 1578              		.loc 1 595 0
 1579 0080 AA79     		ldrb	r2, [r5, #6]
 1580 0082 0139     		sub	r1, r1, #1
 1581 0084 8BB2     		uxth	r3, r1
 1582 0086 1742     		tst	r7, r2
 1583 0088 06D1     		bne	.L248
 1584 008a 013B     		sub	r3, r3, #1
 1585 008c 99B2     		uxth	r1, r3
 593:D:/kuaipan/SEMG/MEMS_SEMG_KL25/KL25 Sample Code_I2c/KL25 Sample Code/kl25_sc_rev10/klxx-sc-baremetal/src/drivers/mcg\mcg.c ****   for (i = 0 ; i < 2000 ; i++)
 1586              		.loc 1 593 0
 1587 008e 0029     		cmp	r1, #0
 1588 0090 02D0     		beq	.L248
 1589              	.L249:
 595:D:/kuaipan/SEMG/MEMS_SEMG_KL25/KL25 Sample Code_I2c/KL25 Sample Code/kl25_sc_rev10/klxx-sc-baremetal/src/drivers/mcg\mcg.c ****     if (MCG_S & MCG_S_PLLST_MASK) break; // jump out early if PLLST sets before loop finishes
 1590              		.loc 1 595 0
 1591 0092 A879     		ldrb	r0, [r5, #6]
 1592 0094 0742     		tst	r7, r0
 1593 0096 F3D0     		beq	.L269
 1594              	.L248:
 597:D:/kuaipan/SEMG/MEMS_SEMG_KL25/KL25 Sample Code_I2c/KL25 Sample Code/kl25_sc_rev10/klxx-sc-baremetal/src/drivers/mcg\mcg.c ****   if (!(MCG_S & MCG_S_PLLST_MASK)) return 0x16; // check bit is really set and return with error if
 1595              		.loc 1 597 0
 1596 0098 0D4D     		ldr	r5, .L272
 1597 009a AE79     		ldrb	r6, [r5, #6]
 1598 009c B006     		lsl	r0, r6, #26
 1599 009e 01D4     		bmi	.L270
 1600 00a0 1624     		mov	r4, #22
 1601              	.LVL145:
 1602 00a2 B8E7     		b	.L247
 1603              	.LVL146:
 1604              	.L270:
 1605 00a4 FA27     		mov	r7, #250
 1606 00a6 FE00     		lsl	r6, r7, #3
 602:D:/kuaipan/SEMG/MEMS_SEMG_KL25/KL25 Sample Code_I2c/KL25 Sample Code/kl25_sc_rev10/klxx-sc-baremetal/src/drivers/mcg\mcg.c ****     if (MCG_S & MCG_S_LOCK0_MASK) break; // jump out early if LOCK sets before loop finishes
 1607              		.loc 1 602 0
 1608 00a8 4023     		mov	r3, #64
 1609 00aa 08E0     		b	.L251
 1610              	.L271:
 1611 00ac A979     		ldrb	r1, [r5, #6]
 1612 00ae 013E     		sub	r6, r6, #1
 1613 00b0 B2B2     		uxth	r2, r6
 1614 00b2 0B42     		tst	r3, r1
 1615 00b4 06D1     		bne	.L250
 1616 00b6 013A     		sub	r2, r2, #1
 1617 00b8 96B2     		uxth	r6, r2
 600:D:/kuaipan/SEMG/MEMS_SEMG_KL25/KL25 Sample Code_I2c/KL25 Sample Code/kl25_sc_rev10/klxx-sc-baremetal/src/drivers/mcg\mcg.c ****   for (i = 0 ; i < 2000 ; i++)
 1618              		.loc 1 600 0
 1619 00ba 002E     		cmp	r6, #0
 1620 00bc 02D0     		beq	.L250
 1621              	.L251:
 602:D:/kuaipan/SEMG/MEMS_SEMG_KL25/KL25 Sample Code_I2c/KL25 Sample Code/kl25_sc_rev10/klxx-sc-baremetal/src/drivers/mcg\mcg.c ****     if (MCG_S & MCG_S_LOCK0_MASK) break; // jump out early if LOCK sets before loop finishes
 1622              		.loc 1 602 0
 1623 00be A879     		ldrb	r0, [r5, #6]
 1624 00c0 0342     		tst	r3, r0
 1625 00c2 F3D0     		beq	.L271
 1626              	.L250:
 604:D:/kuaipan/SEMG/MEMS_SEMG_KL25/KL25 Sample Code_I2c/KL25 Sample Code/kl25_sc_rev10/klxx-sc-baremetal/src/drivers/mcg\mcg.c ****   if (!(MCG_S & MCG_S_LOCK0_MASK)) return 0x44; // check bit is really set and return with error if
 1627              		.loc 1 604 0
 1628 00c4 024D     		ldr	r5, .L272
 1629 00c6 AF79     		ldrb	r7, [r5, #6]
 1630 00c8 7906     		lsl	r1, r7, #25
 1631 00ca A4D4     		bmi	.L247
 1632 00cc 4424     		mov	r4, #68
 1633              	.LVL147:
 1634 00ce A2E7     		b	.L247
 1635              	.L273:
 1636              		.align	2
 1637              	.L272:
 1638 00d0 00400640 		.word	1074151424
 1639 00d4 807BE1FF 		.word	-2000000
 1640 00d8 80841E00 		.word	2000000
 1641              		.cfi_endproc
 1642              	.LFE7:
 1644              		.section	.text.blpe_fbe,"ax",%progbits
 1645              		.align	2
 1646              		.global	blpe_fbe
 1647              		.code	16
 1648              		.thumb_func
 1650              	blpe_fbe:
 1651              	.LFB8:
 609:D:/kuaipan/SEMG/MEMS_SEMG_KL25/KL25 Sample Code_I2c/KL25 Sample Code/kl25_sc_rev10/klxx-sc-baremetal/src/drivers/mcg\mcg.c **** 
 610:D:/kuaipan/SEMG/MEMS_SEMG_KL25/KL25 Sample Code_I2c/KL25 Sample Code/kl25_sc_rev10/klxx-sc-baremetal/src/drivers/mcg\mcg.c **** 
 611:D:/kuaipan/SEMG/MEMS_SEMG_KL25/KL25 Sample Code_I2c/KL25 Sample Code/kl25_sc_rev10/klxx-sc-baremetal/src/drivers/mcg\mcg.c **** int blpe_fbe(int crystal_val)
 612:D:/kuaipan/SEMG/MEMS_SEMG_KL25/KL25 Sample Code_I2c/KL25 Sample Code/kl25_sc_rev10/klxx-sc-baremetal/src/drivers/mcg\mcg.c **** {
 1652              		.loc 1 612 0
 1653              		.cfi_startproc
 1654              	.LVL148:
 1655 0000 10B5     		push	{r4, lr}
 1656              	.LCFI12:
 1657              		.cfi_def_cfa_offset 8
 1658              		.cfi_offset 4, -8
 1659              		.cfi_offset 14, -4
 613:D:/kuaipan/SEMG/MEMS_SEMG_KL25/KL25 Sample Code_I2c/KL25 Sample Code/kl25_sc_rev10/klxx-sc-baremetal/src/drivers/mcg\mcg.c ****   short i;
 614:D:/kuaipan/SEMG/MEMS_SEMG_KL25/KL25 Sample Code_I2c/KL25 Sample Code/kl25_sc_rev10/klxx-sc-baremetal/src/drivers/mcg\mcg.c ****   
 615:D:/kuaipan/SEMG/MEMS_SEMG_KL25/KL25 Sample Code_I2c/KL25 Sample Code/kl25_sc_rev10/klxx-sc-baremetal/src/drivers/mcg\mcg.c **** // Check MCG is in BLPE mode
 616:D:/kuaipan/SEMG/MEMS_SEMG_KL25/KL25 Sample Code_I2c/KL25 Sample Code/kl25_sc_rev10/klxx-sc-baremetal/src/drivers/mcg\mcg.c ****   if (!((((MCG_S & MCG_S_CLKST_MASK) >> MCG_S_CLKST_SHIFT) == 0x2) && // check CLKS mux has selcted
 1660              		.loc 1 616 0
 1661 0002 154B     		ldr	r3, .L293
 1662 0004 9A79     		ldrb	r2, [r3, #6]
 1663 0006 1107     		lsl	r1, r2, #28
 1664 0008 8A0F     		lsr	r2, r1, #30
 1665 000a 022A     		cmp	r2, #2
 1666 000c 01D0     		beq	.L291
 1667              	.L280:
 617:D:/kuaipan/SEMG/MEMS_SEMG_KL25/KL25 Sample Code_I2c/KL25 Sample Code/kl25_sc_rev10/klxx-sc-baremetal/src/drivers/mcg\mcg.c ****       (!(MCG_S & MCG_S_IREFST_MASK)) &&                               // check FLL ref is external 
 618:D:/kuaipan/SEMG/MEMS_SEMG_KL25/KL25 Sample Code_I2c/KL25 Sample Code/kl25_sc_rev10/klxx-sc-baremetal/src/drivers/mcg\mcg.c ****       (MCG_C2 & MCG_C2_LP_MASK)))                                     // check MCG_C2[LP] bit is se
 619:D:/kuaipan/SEMG/MEMS_SEMG_KL25/KL25 Sample Code_I2c/KL25 Sample Code/kl25_sc_rev10/klxx-sc-baremetal/src/drivers/mcg\mcg.c ****   {
 620:D:/kuaipan/SEMG/MEMS_SEMG_KL25/KL25 Sample Code_I2c/KL25 Sample Code/kl25_sc_rev10/klxx-sc-baremetal/src/drivers/mcg\mcg.c ****     return 0x6;                                                       // return error code
 1668              		.loc 1 620 0
 1669 000e 0620     		mov	r0, #6
 1670              	.LVL149:
 1671              	.L275:
 621:D:/kuaipan/SEMG/MEMS_SEMG_KL25/KL25 Sample Code_I2c/KL25 Sample Code/kl25_sc_rev10/klxx-sc-baremetal/src/drivers/mcg\mcg.c ****   }
 622:D:/kuaipan/SEMG/MEMS_SEMG_KL25/KL25 Sample Code_I2c/KL25 Sample Code/kl25_sc_rev10/klxx-sc-baremetal/src/drivers/mcg\mcg.c ****  
 623:D:/kuaipan/SEMG/MEMS_SEMG_KL25/KL25 Sample Code_I2c/KL25 Sample Code/kl25_sc_rev10/klxx-sc-baremetal/src/drivers/mcg\mcg.c **** // To move from BLPE to FBE the PLLS mux be set to select the FLL output and the LP bit must be cle
 624:D:/kuaipan/SEMG/MEMS_SEMG_KL25/KL25 Sample Code_I2c/KL25 Sample Code/kl25_sc_rev10/klxx-sc-baremetal/src/drivers/mcg\mcg.c ****   MCG_C6 &= ~MCG_C6_PLLS_MASK; // clear PLLS to select the FLL
 625:D:/kuaipan/SEMG/MEMS_SEMG_KL25/KL25 Sample Code_I2c/KL25 Sample Code/kl25_sc_rev10/klxx-sc-baremetal/src/drivers/mcg\mcg.c ****   MCG_C2 &= ~MCG_C2_LP_MASK; // clear LP bit  
 626:D:/kuaipan/SEMG/MEMS_SEMG_KL25/KL25 Sample Code_I2c/KL25 Sample Code/kl25_sc_rev10/klxx-sc-baremetal/src/drivers/mcg\mcg.c **** 
 627:D:/kuaipan/SEMG/MEMS_SEMG_KL25/KL25 Sample Code_I2c/KL25 Sample Code/kl25_sc_rev10/klxx-sc-baremetal/src/drivers/mcg\mcg.c **** // wait for PLLST status bit to clear
 628:D:/kuaipan/SEMG/MEMS_SEMG_KL25/KL25 Sample Code_I2c/KL25 Sample Code/kl25_sc_rev10/klxx-sc-baremetal/src/drivers/mcg\mcg.c ****   for (i = 0 ; i < 2000 ; i++)
 629:D:/kuaipan/SEMG/MEMS_SEMG_KL25/KL25 Sample Code_I2c/KL25 Sample Code/kl25_sc_rev10/klxx-sc-baremetal/src/drivers/mcg\mcg.c ****   {
 630:D:/kuaipan/SEMG/MEMS_SEMG_KL25/KL25 Sample Code_I2c/KL25 Sample Code/kl25_sc_rev10/klxx-sc-baremetal/src/drivers/mcg\mcg.c ****     if (!(MCG_S & MCG_S_PLLST_MASK)) break; // jump out early if PLLST clears before loop finishes
 631:D:/kuaipan/SEMG/MEMS_SEMG_KL25/KL25 Sample Code_I2c/KL25 Sample Code/kl25_sc_rev10/klxx-sc-baremetal/src/drivers/mcg\mcg.c ****   }
 632:D:/kuaipan/SEMG/MEMS_SEMG_KL25/KL25 Sample Code_I2c/KL25 Sample Code/kl25_sc_rev10/klxx-sc-baremetal/src/drivers/mcg\mcg.c ****   if (MCG_S & MCG_S_PLLST_MASK) return 0x15; // check bit is really clear and return with error if 
 633:D:/kuaipan/SEMG/MEMS_SEMG_KL25/KL25 Sample Code_I2c/KL25 Sample Code/kl25_sc_rev10/klxx-sc-baremetal/src/drivers/mcg\mcg.c ****   
 634:D:/kuaipan/SEMG/MEMS_SEMG_KL25/KL25 Sample Code_I2c/KL25 Sample Code/kl25_sc_rev10/klxx-sc-baremetal/src/drivers/mcg\mcg.c **** // now in FBE mode
 635:D:/kuaipan/SEMG/MEMS_SEMG_KL25/KL25 Sample Code_I2c/KL25 Sample Code/kl25_sc_rev10/klxx-sc-baremetal/src/drivers/mcg\mcg.c ****   return crystal_val; // MCGOUT frequency equals external clock frequency     
 636:D:/kuaipan/SEMG/MEMS_SEMG_KL25/KL25 Sample Code_I2c/KL25 Sample Code/kl25_sc_rev10/klxx-sc-baremetal/src/drivers/mcg\mcg.c **** } // blpe_fbe
 1672              		.loc 1 636 0
 1673              		@ sp needed for prologue
 1674 0010 10BD     		pop	{r4, pc}
 1675              	.LVL150:
 1676              	.L291:
 617:D:/kuaipan/SEMG/MEMS_SEMG_KL25/KL25 Sample Code_I2c/KL25 Sample Code/kl25_sc_rev10/klxx-sc-baremetal/src/drivers/mcg\mcg.c ****       (!(MCG_S & MCG_S_IREFST_MASK)) &&                               // check FLL ref is external 
 1677              		.loc 1 617 0
 1678 0012 9C79     		ldrb	r4, [r3, #6]
 616:D:/kuaipan/SEMG/MEMS_SEMG_KL25/KL25 Sample Code_I2c/KL25 Sample Code/kl25_sc_rev10/klxx-sc-baremetal/src/drivers/mcg\mcg.c ****   if (!((((MCG_S & MCG_S_CLKST_MASK) >> MCG_S_CLKST_SHIFT) == 0x2) && // check CLKS mux has selcted
 1679              		.loc 1 616 0
 1680 0014 E406     		lsl	r4, r4, #27
 1681 0016 FAD4     		bmi	.L280
 618:D:/kuaipan/SEMG/MEMS_SEMG_KL25/KL25 Sample Code_I2c/KL25 Sample Code/kl25_sc_rev10/klxx-sc-baremetal/src/drivers/mcg\mcg.c ****       (MCG_C2 & MCG_C2_LP_MASK)))                                     // check MCG_C2[LP] bit is se
 1682              		.loc 1 618 0
 1683 0018 5978     		ldrb	r1, [r3, #1]
 616:D:/kuaipan/SEMG/MEMS_SEMG_KL25/KL25 Sample Code_I2c/KL25 Sample Code/kl25_sc_rev10/klxx-sc-baremetal/src/drivers/mcg\mcg.c ****   if (!((((MCG_S & MCG_S_CLKST_MASK) >> MCG_S_CLKST_SHIFT) == 0x2) && // check CLKS mux has selcted
 1684              		.loc 1 616 0
 1685 001a 0A42     		tst	r2, r1
 1686 001c F7D0     		beq	.L280
 624:D:/kuaipan/SEMG/MEMS_SEMG_KL25/KL25 Sample Code_I2c/KL25 Sample Code/kl25_sc_rev10/klxx-sc-baremetal/src/drivers/mcg\mcg.c ****   MCG_C6 &= ~MCG_C6_PLLS_MASK; // clear PLLS to select the FLL
 1687              		.loc 1 624 0
 1688 001e 5979     		ldrb	r1, [r3, #5]
 1689 0020 4024     		mov	r4, #64
 1690 0022 A143     		bic	r1, r4
 1691 0024 5971     		strb	r1, [r3, #5]
 625:D:/kuaipan/SEMG/MEMS_SEMG_KL25/KL25 Sample Code_I2c/KL25 Sample Code/kl25_sc_rev10/klxx-sc-baremetal/src/drivers/mcg\mcg.c ****   MCG_C2 &= ~MCG_C2_LP_MASK; // clear LP bit  
 1692              		.loc 1 625 0
 1693 0026 5978     		ldrb	r1, [r3, #1]
 1694 0028 FA24     		mov	r4, #250
 1695 002a 9143     		bic	r1, r2
 1696 002c 5970     		strb	r1, [r3, #1]
 1697              	.LVL151:
 1698 002e E200     		lsl	r2, r4, #3
 630:D:/kuaipan/SEMG/MEMS_SEMG_KL25/KL25 Sample Code_I2c/KL25 Sample Code/kl25_sc_rev10/klxx-sc-baremetal/src/drivers/mcg\mcg.c ****     if (!(MCG_S & MCG_S_PLLST_MASK)) break; // jump out early if PLLST clears before loop finishes
 1699              		.loc 1 630 0
 1700 0030 2021     		mov	r1, #32
 1701 0032 08E0     		b	.L277
 1702              	.LVL152:
 1703              	.L292:
 1704 0034 9C79     		ldrb	r4, [r3, #6]
 1705 0036 013A     		sub	r2, r2, #1
 1706 0038 92B2     		uxth	r2, r2
 1707 003a 2142     		tst	r1, r4
 1708 003c 06D0     		beq	.L276
 1709 003e 013A     		sub	r2, r2, #1
 1710 0040 92B2     		uxth	r2, r2
 628:D:/kuaipan/SEMG/MEMS_SEMG_KL25/KL25 Sample Code_I2c/KL25 Sample Code/kl25_sc_rev10/klxx-sc-baremetal/src/drivers/mcg\mcg.c ****   for (i = 0 ; i < 2000 ; i++)
 1711              		.loc 1 628 0
 1712 0042 002A     		cmp	r2, #0
 1713 0044 02D0     		beq	.L276
 1714              	.L277:
 630:D:/kuaipan/SEMG/MEMS_SEMG_KL25/KL25 Sample Code_I2c/KL25 Sample Code/kl25_sc_rev10/klxx-sc-baremetal/src/drivers/mcg\mcg.c ****     if (!(MCG_S & MCG_S_PLLST_MASK)) break; // jump out early if PLLST clears before loop finishes
 1715              		.loc 1 630 0
 1716 0046 9C79     		ldrb	r4, [r3, #6]
 1717 0048 2142     		tst	r1, r4
 1718 004a F3D1     		bne	.L292
 1719              	.L276:
 632:D:/kuaipan/SEMG/MEMS_SEMG_KL25/KL25 Sample Code_I2c/KL25 Sample Code/kl25_sc_rev10/klxx-sc-baremetal/src/drivers/mcg\mcg.c ****   if (MCG_S & MCG_S_PLLST_MASK) return 0x15; // check bit is really clear and return with error if 
 1720              		.loc 1 632 0
 1721 004c 024B     		ldr	r3, .L293
 1722 004e 9979     		ldrb	r1, [r3, #6]
 1723 0050 8A06     		lsl	r2, r1, #26
 1724 0052 DDD5     		bpl	.L275
 1725 0054 1520     		mov	r0, #21
 1726              	.LVL153:
 1727 0056 DBE7     		b	.L275
 1728              	.L294:
 1729              		.align	2
 1730              	.L293:
 1731 0058 00400640 		.word	1074151424
 1732              		.cfi_endproc
 1733              	.LFE8:
 1735              		.section	.text.fbe_blpe,"ax",%progbits
 1736              		.align	2
 1737              		.global	fbe_blpe
 1738              		.code	16
 1739              		.thumb_func
 1741              	fbe_blpe:
 1742              	.LFB9:
 637:D:/kuaipan/SEMG/MEMS_SEMG_KL25/KL25 Sample Code_I2c/KL25 Sample Code/kl25_sc_rev10/klxx-sc-baremetal/src/drivers/mcg\mcg.c **** 
 638:D:/kuaipan/SEMG/MEMS_SEMG_KL25/KL25 Sample Code_I2c/KL25 Sample Code/kl25_sc_rev10/klxx-sc-baremetal/src/drivers/mcg\mcg.c **** 
 639:D:/kuaipan/SEMG/MEMS_SEMG_KL25/KL25 Sample Code_I2c/KL25 Sample Code/kl25_sc_rev10/klxx-sc-baremetal/src/drivers/mcg\mcg.c **** int fbe_blpe(int crystal_val)
 640:D:/kuaipan/SEMG/MEMS_SEMG_KL25/KL25 Sample Code_I2c/KL25 Sample Code/kl25_sc_rev10/klxx-sc-baremetal/src/drivers/mcg\mcg.c **** {
 1743              		.loc 1 640 0
 1744              		.cfi_startproc
 1745              	.LVL154:
 1746 0000 10B5     		push	{r4, lr}
 1747              	.LCFI13:
 1748              		.cfi_def_cfa_offset 8
 1749              		.cfi_offset 4, -8
 1750              		.cfi_offset 14, -4
 641:D:/kuaipan/SEMG/MEMS_SEMG_KL25/KL25 Sample Code_I2c/KL25 Sample Code/kl25_sc_rev10/klxx-sc-baremetal/src/drivers/mcg\mcg.c **** // Check MCG is in FBE mode
 642:D:/kuaipan/SEMG/MEMS_SEMG_KL25/KL25 Sample Code_I2c/KL25 Sample Code/kl25_sc_rev10/klxx-sc-baremetal/src/drivers/mcg\mcg.c ****   if (!((((MCG_S & MCG_S_CLKST_MASK) >> MCG_S_CLKST_SHIFT) == 0x2) && // check CLKS mux has selcted
 1751              		.loc 1 642 0
 1752 0002 0B4B     		ldr	r3, .L302
 1753 0004 9A79     		ldrb	r2, [r3, #6]
 1754 0006 1107     		lsl	r1, r2, #28
 1755 0008 8A0F     		lsr	r2, r1, #30
 1756 000a 022A     		cmp	r2, #2
 1757 000c 01D0     		beq	.L301
 1758              	.L300:
 643:D:/kuaipan/SEMG/MEMS_SEMG_KL25/KL25 Sample Code_I2c/KL25 Sample Code/kl25_sc_rev10/klxx-sc-baremetal/src/drivers/mcg\mcg.c ****       (!(MCG_S & MCG_S_IREFST_MASK)) &&                               // check FLL ref is external 
 644:D:/kuaipan/SEMG/MEMS_SEMG_KL25/KL25 Sample Code_I2c/KL25 Sample Code/kl25_sc_rev10/klxx-sc-baremetal/src/drivers/mcg\mcg.c ****       (!(MCG_S & MCG_S_PLLST_MASK)) &&                                // check PLLS mux has selecte
 645:D:/kuaipan/SEMG/MEMS_SEMG_KL25/KL25 Sample Code_I2c/KL25 Sample Code/kl25_sc_rev10/klxx-sc-baremetal/src/drivers/mcg\mcg.c ****       (!(MCG_C2 & MCG_C2_LP_MASK))))                                  // check MCG_C2[LP] bit is no
 646:D:/kuaipan/SEMG/MEMS_SEMG_KL25/KL25 Sample Code_I2c/KL25 Sample Code/kl25_sc_rev10/klxx-sc-baremetal/src/drivers/mcg\mcg.c ****   {
 647:D:/kuaipan/SEMG/MEMS_SEMG_KL25/KL25 Sample Code_I2c/KL25 Sample Code/kl25_sc_rev10/klxx-sc-baremetal/src/drivers/mcg\mcg.c ****     return 0x4;                                                       // return error code
 1759              		.loc 1 647 0
 1760 000e 0420     		mov	r0, #4
 1761              	.LVL155:
 1762              	.L296:
 648:D:/kuaipan/SEMG/MEMS_SEMG_KL25/KL25 Sample Code_I2c/KL25 Sample Code/kl25_sc_rev10/klxx-sc-baremetal/src/drivers/mcg\mcg.c ****   }
 649:D:/kuaipan/SEMG/MEMS_SEMG_KL25/KL25 Sample Code_I2c/KL25 Sample Code/kl25_sc_rev10/klxx-sc-baremetal/src/drivers/mcg\mcg.c ****  
 650:D:/kuaipan/SEMG/MEMS_SEMG_KL25/KL25 Sample Code_I2c/KL25 Sample Code/kl25_sc_rev10/klxx-sc-baremetal/src/drivers/mcg\mcg.c **** // To move from FBE to BLPE the LP bit must be set
 651:D:/kuaipan/SEMG/MEMS_SEMG_KL25/KL25 Sample Code_I2c/KL25 Sample Code/kl25_sc_rev10/klxx-sc-baremetal/src/drivers/mcg\mcg.c ****   MCG_C2 |= MCG_C2_LP_MASK; // set LP bit  
 652:D:/kuaipan/SEMG/MEMS_SEMG_KL25/KL25 Sample Code_I2c/KL25 Sample Code/kl25_sc_rev10/klxx-sc-baremetal/src/drivers/mcg\mcg.c ****  
 653:D:/kuaipan/SEMG/MEMS_SEMG_KL25/KL25 Sample Code_I2c/KL25 Sample Code/kl25_sc_rev10/klxx-sc-baremetal/src/drivers/mcg\mcg.c **** // now in FBE mode
 654:D:/kuaipan/SEMG/MEMS_SEMG_KL25/KL25 Sample Code_I2c/KL25 Sample Code/kl25_sc_rev10/klxx-sc-baremetal/src/drivers/mcg\mcg.c ****   return crystal_val; // MCGOUT frequency equals external clock frequency     
 655:D:/kuaipan/SEMG/MEMS_SEMG_KL25/KL25 Sample Code_I2c/KL25 Sample Code/kl25_sc_rev10/klxx-sc-baremetal/src/drivers/mcg\mcg.c **** } // fbe_blpe
 1763              		.loc 1 655 0
 1764              		@ sp needed for prologue
 1765 0010 10BD     		pop	{r4, pc}
 1766              	.LVL156:
 1767              	.L301:
 643:D:/kuaipan/SEMG/MEMS_SEMG_KL25/KL25 Sample Code_I2c/KL25 Sample Code/kl25_sc_rev10/klxx-sc-baremetal/src/drivers/mcg\mcg.c ****       (!(MCG_S & MCG_S_IREFST_MASK)) &&                               // check FLL ref is external 
 1768              		.loc 1 643 0
 1769 0012 9C79     		ldrb	r4, [r3, #6]
 642:D:/kuaipan/SEMG/MEMS_SEMG_KL25/KL25 Sample Code_I2c/KL25 Sample Code/kl25_sc_rev10/klxx-sc-baremetal/src/drivers/mcg\mcg.c ****   if (!((((MCG_S & MCG_S_CLKST_MASK) >> MCG_S_CLKST_SHIFT) == 0x2) && // check CLKS mux has selcted
 1770              		.loc 1 642 0
 1771 0014 E406     		lsl	r4, r4, #27
 1772 0016 FAD4     		bmi	.L300
 644:D:/kuaipan/SEMG/MEMS_SEMG_KL25/KL25 Sample Code_I2c/KL25 Sample Code/kl25_sc_rev10/klxx-sc-baremetal/src/drivers/mcg\mcg.c ****       (!(MCG_S & MCG_S_PLLST_MASK)) &&                                // check PLLS mux has selecte
 1773              		.loc 1 644 0
 1774 0018 9979     		ldrb	r1, [r3, #6]
 643:D:/kuaipan/SEMG/MEMS_SEMG_KL25/KL25 Sample Code_I2c/KL25 Sample Code/kl25_sc_rev10/klxx-sc-baremetal/src/drivers/mcg\mcg.c ****       (!(MCG_S & MCG_S_IREFST_MASK)) &&                               // check FLL ref is external 
 1775              		.loc 1 643 0
 1776 001a 8C06     		lsl	r4, r1, #26
 1777 001c F7D4     		bmi	.L300
 645:D:/kuaipan/SEMG/MEMS_SEMG_KL25/KL25 Sample Code_I2c/KL25 Sample Code/kl25_sc_rev10/klxx-sc-baremetal/src/drivers/mcg\mcg.c ****       (!(MCG_C2 & MCG_C2_LP_MASK))))                                  // check MCG_C2[LP] bit is no
 1778              		.loc 1 645 0
 1779 001e 5C78     		ldrb	r4, [r3, #1]
 642:D:/kuaipan/SEMG/MEMS_SEMG_KL25/KL25 Sample Code_I2c/KL25 Sample Code/kl25_sc_rev10/klxx-sc-baremetal/src/drivers/mcg\mcg.c ****   if (!((((MCG_S & MCG_S_CLKST_MASK) >> MCG_S_CLKST_SHIFT) == 0x2) && // check CLKS mux has selcted
 1780              		.loc 1 642 0
 1781 0020 2242     		tst	r2, r4
 1782 0022 F4D1     		bne	.L300
 651:D:/kuaipan/SEMG/MEMS_SEMG_KL25/KL25 Sample Code_I2c/KL25 Sample Code/kl25_sc_rev10/klxx-sc-baremetal/src/drivers/mcg\mcg.c ****   MCG_C2 |= MCG_C2_LP_MASK; // set LP bit  
 1783              		.loc 1 651 0
 1784 0024 5978     		ldrb	r1, [r3, #1]
 1785 0026 0A43     		orr	r2, r1
 1786 0028 D2B2     		uxtb	r2, r2
 1787 002a 5A70     		strb	r2, [r3, #1]
 654:D:/kuaipan/SEMG/MEMS_SEMG_KL25/KL25 Sample Code_I2c/KL25 Sample Code/kl25_sc_rev10/klxx-sc-baremetal/src/drivers/mcg\mcg.c ****   return crystal_val; // MCGOUT frequency equals external clock frequency     
 1788              		.loc 1 654 0
 1789 002c F0E7     		b	.L296
 1790              	.L303:
 1791 002e C046     		.align	2
 1792              	.L302:
 1793 0030 00400640 		.word	1074151424
 1794              		.cfi_endproc
 1795              	.LFE9:
 1797              		.section	.text.fei_fbe,"ax",%progbits
 1798              		.align	2
 1799              		.global	fei_fbe
 1800              		.code	16
 1801              		.thumb_func
 1803              	fei_fbe:
 1804              	.LFB11:
 656:D:/kuaipan/SEMG/MEMS_SEMG_KL25/KL25 Sample Code_I2c/KL25 Sample Code/kl25_sc_rev10/klxx-sc-baremetal/src/drivers/mcg\mcg.c **** 
 657:D:/kuaipan/SEMG/MEMS_SEMG_KL25/KL25 Sample Code_I2c/KL25 Sample Code/kl25_sc_rev10/klxx-sc-baremetal/src/drivers/mcg\mcg.c **** 
 658:D:/kuaipan/SEMG/MEMS_SEMG_KL25/KL25 Sample Code_I2c/KL25 Sample Code/kl25_sc_rev10/klxx-sc-baremetal/src/drivers/mcg\mcg.c **** int fbe_fei(int slow_irc_freq)
 659:D:/kuaipan/SEMG/MEMS_SEMG_KL25/KL25 Sample Code_I2c/KL25 Sample Code/kl25_sc_rev10/klxx-sc-baremetal/src/drivers/mcg\mcg.c **** {
 660:D:/kuaipan/SEMG/MEMS_SEMG_KL25/KL25 Sample Code_I2c/KL25 Sample Code/kl25_sc_rev10/klxx-sc-baremetal/src/drivers/mcg\mcg.c ****   unsigned char temp_reg;
 661:D:/kuaipan/SEMG/MEMS_SEMG_KL25/KL25 Sample Code_I2c/KL25 Sample Code/kl25_sc_rev10/klxx-sc-baremetal/src/drivers/mcg\mcg.c ****   short i;
 662:D:/kuaipan/SEMG/MEMS_SEMG_KL25/KL25 Sample Code_I2c/KL25 Sample Code/kl25_sc_rev10/klxx-sc-baremetal/src/drivers/mcg\mcg.c ****   int mcg_out;
 663:D:/kuaipan/SEMG/MEMS_SEMG_KL25/KL25 Sample Code_I2c/KL25 Sample Code/kl25_sc_rev10/klxx-sc-baremetal/src/drivers/mcg\mcg.c ****   
 664:D:/kuaipan/SEMG/MEMS_SEMG_KL25/KL25 Sample Code_I2c/KL25 Sample Code/kl25_sc_rev10/klxx-sc-baremetal/src/drivers/mcg\mcg.c **** // Check MCG is in FBE mode
 665:D:/kuaipan/SEMG/MEMS_SEMG_KL25/KL25 Sample Code_I2c/KL25 Sample Code/kl25_sc_rev10/klxx-sc-baremetal/src/drivers/mcg\mcg.c ****   if (!((((MCG_S & MCG_S_CLKST_MASK) >> MCG_S_CLKST_SHIFT) == 0x2) && // check CLKS mux has selcted
 666:D:/kuaipan/SEMG/MEMS_SEMG_KL25/KL25 Sample Code_I2c/KL25 Sample Code/kl25_sc_rev10/klxx-sc-baremetal/src/drivers/mcg\mcg.c ****       (!(MCG_S & MCG_S_IREFST_MASK)) &&                               // check FLL ref is external 
 667:D:/kuaipan/SEMG/MEMS_SEMG_KL25/KL25 Sample Code_I2c/KL25 Sample Code/kl25_sc_rev10/klxx-sc-baremetal/src/drivers/mcg\mcg.c ****       (!(MCG_S & MCG_S_PLLST_MASK)) &&                                // check PLLS mux has selecte
 668:D:/kuaipan/SEMG/MEMS_SEMG_KL25/KL25 Sample Code_I2c/KL25 Sample Code/kl25_sc_rev10/klxx-sc-baremetal/src/drivers/mcg\mcg.c ****       (!(MCG_C2 & MCG_C2_LP_MASK))))                                  // check MCG_C2[LP] bit is no
 669:D:/kuaipan/SEMG/MEMS_SEMG_KL25/KL25 Sample Code_I2c/KL25 Sample Code/kl25_sc_rev10/klxx-sc-baremetal/src/drivers/mcg\mcg.c ****   {
 670:D:/kuaipan/SEMG/MEMS_SEMG_KL25/KL25 Sample Code_I2c/KL25 Sample Code/kl25_sc_rev10/klxx-sc-baremetal/src/drivers/mcg\mcg.c ****     return 0x4;                                                       // return error code
 671:D:/kuaipan/SEMG/MEMS_SEMG_KL25/KL25 Sample Code_I2c/KL25 Sample Code/kl25_sc_rev10/klxx-sc-baremetal/src/drivers/mcg\mcg.c ****   }
 672:D:/kuaipan/SEMG/MEMS_SEMG_KL25/KL25 Sample Code_I2c/KL25 Sample Code/kl25_sc_rev10/klxx-sc-baremetal/src/drivers/mcg\mcg.c **** 
 673:D:/kuaipan/SEMG/MEMS_SEMG_KL25/KL25 Sample Code_I2c/KL25 Sample Code/kl25_sc_rev10/klxx-sc-baremetal/src/drivers/mcg\mcg.c **** // Check IRC frequency is within spec.
 674:D:/kuaipan/SEMG/MEMS_SEMG_KL25/KL25 Sample Code_I2c/KL25 Sample Code/kl25_sc_rev10/klxx-sc-baremetal/src/drivers/mcg\mcg.c ****   if ((slow_irc_freq < 31250) || (slow_irc_freq > 39063))
 675:D:/kuaipan/SEMG/MEMS_SEMG_KL25/KL25 Sample Code_I2c/KL25 Sample Code/kl25_sc_rev10/klxx-sc-baremetal/src/drivers/mcg\mcg.c ****   {
 676:D:/kuaipan/SEMG/MEMS_SEMG_KL25/KL25 Sample Code_I2c/KL25 Sample Code/kl25_sc_rev10/klxx-sc-baremetal/src/drivers/mcg\mcg.c ****     return 0x31;
 677:D:/kuaipan/SEMG/MEMS_SEMG_KL25/KL25 Sample Code_I2c/KL25 Sample Code/kl25_sc_rev10/klxx-sc-baremetal/src/drivers/mcg\mcg.c ****   }
 678:D:/kuaipan/SEMG/MEMS_SEMG_KL25/KL25 Sample Code_I2c/KL25 Sample Code/kl25_sc_rev10/klxx-sc-baremetal/src/drivers/mcg\mcg.c ****   
 679:D:/kuaipan/SEMG/MEMS_SEMG_KL25/KL25 Sample Code_I2c/KL25 Sample Code/kl25_sc_rev10/klxx-sc-baremetal/src/drivers/mcg\mcg.c **** // Check resulting FLL frequency 
 680:D:/kuaipan/SEMG/MEMS_SEMG_KL25/KL25 Sample Code_I2c/KL25 Sample Code/kl25_sc_rev10/klxx-sc-baremetal/src/drivers/mcg\mcg.c ****   mcg_out = fll_freq(slow_irc_freq); 
 681:D:/kuaipan/SEMG/MEMS_SEMG_KL25/KL25 Sample Code_I2c/KL25 Sample Code/kl25_sc_rev10/klxx-sc-baremetal/src/drivers/mcg\mcg.c ****   if (mcg_out < 0x3C) {return mcg_out;} // If error code returned, return the code to calling funct
 682:D:/kuaipan/SEMG/MEMS_SEMG_KL25/KL25 Sample Code_I2c/KL25 Sample Code/kl25_sc_rev10/klxx-sc-baremetal/src/drivers/mcg\mcg.c **** 
 683:D:/kuaipan/SEMG/MEMS_SEMG_KL25/KL25 Sample Code_I2c/KL25 Sample Code/kl25_sc_rev10/klxx-sc-baremetal/src/drivers/mcg\mcg.c **** // Need to make sure the clockmonitor is disabled before moving to an "internal" clock mode
 684:D:/kuaipan/SEMG/MEMS_SEMG_KL25/KL25 Sample Code_I2c/KL25 Sample Code/kl25_sc_rev10/klxx-sc-baremetal/src/drivers/mcg\mcg.c ****   MCG_C6 &= ~MCG_C6_CME0_MASK; //This assumes OSC0 is used as the external clock source
 685:D:/kuaipan/SEMG/MEMS_SEMG_KL25/KL25 Sample Code_I2c/KL25 Sample Code/kl25_sc_rev10/klxx-sc-baremetal/src/drivers/mcg\mcg.c ****   
 686:D:/kuaipan/SEMG/MEMS_SEMG_KL25/KL25 Sample Code_I2c/KL25 Sample Code/kl25_sc_rev10/klxx-sc-baremetal/src/drivers/mcg\mcg.c **** // Move to FEI by setting CLKS to 0 and enabling the slow IRC as the FLL reference clock
 687:D:/kuaipan/SEMG/MEMS_SEMG_KL25/KL25 Sample Code_I2c/KL25 Sample Code/kl25_sc_rev10/klxx-sc-baremetal/src/drivers/mcg\mcg.c ****   temp_reg = MCG_C1;
 688:D:/kuaipan/SEMG/MEMS_SEMG_KL25/KL25 Sample Code_I2c/KL25 Sample Code/kl25_sc_rev10/klxx-sc-baremetal/src/drivers/mcg\mcg.c ****   temp_reg &= ~MCG_C1_CLKS_MASK; // clear CLKS to select FLL output
 689:D:/kuaipan/SEMG/MEMS_SEMG_KL25/KL25 Sample Code_I2c/KL25 Sample Code/kl25_sc_rev10/klxx-sc-baremetal/src/drivers/mcg\mcg.c ****   temp_reg |= MCG_C1_IREFS_MASK; // select internal reference clock
 690:D:/kuaipan/SEMG/MEMS_SEMG_KL25/KL25 Sample Code_I2c/KL25 Sample Code/kl25_sc_rev10/klxx-sc-baremetal/src/drivers/mcg\mcg.c ****   MCG_C1 = temp_reg; // update MCG_C1 
 691:D:/kuaipan/SEMG/MEMS_SEMG_KL25/KL25 Sample Code_I2c/KL25 Sample Code/kl25_sc_rev10/klxx-sc-baremetal/src/drivers/mcg\mcg.c ****   
 692:D:/kuaipan/SEMG/MEMS_SEMG_KL25/KL25 Sample Code_I2c/KL25 Sample Code/kl25_sc_rev10/klxx-sc-baremetal/src/drivers/mcg\mcg.c **** // wait for Reference clock Status bit to set
 693:D:/kuaipan/SEMG/MEMS_SEMG_KL25/KL25 Sample Code_I2c/KL25 Sample Code/kl25_sc_rev10/klxx-sc-baremetal/src/drivers/mcg\mcg.c ****   for (i = 0 ; i < 2000 ; i++)
 694:D:/kuaipan/SEMG/MEMS_SEMG_KL25/KL25 Sample Code_I2c/KL25 Sample Code/kl25_sc_rev10/klxx-sc-baremetal/src/drivers/mcg\mcg.c ****   {
 695:D:/kuaipan/SEMG/MEMS_SEMG_KL25/KL25 Sample Code_I2c/KL25 Sample Code/kl25_sc_rev10/klxx-sc-baremetal/src/drivers/mcg\mcg.c ****     if (MCG_S & MCG_S_IREFST_MASK) break; // jump out early if IREFST sets before loop finishes
 696:D:/kuaipan/SEMG/MEMS_SEMG_KL25/KL25 Sample Code_I2c/KL25 Sample Code/kl25_sc_rev10/klxx-sc-baremetal/src/drivers/mcg\mcg.c ****   }
 697:D:/kuaipan/SEMG/MEMS_SEMG_KL25/KL25 Sample Code_I2c/KL25 Sample Code/kl25_sc_rev10/klxx-sc-baremetal/src/drivers/mcg\mcg.c ****   if (!(MCG_S & MCG_S_IREFST_MASK)) return 0x12; // check bit is really set and return with error i
 698:D:/kuaipan/SEMG/MEMS_SEMG_KL25/KL25 Sample Code_I2c/KL25 Sample Code/kl25_sc_rev10/klxx-sc-baremetal/src/drivers/mcg\mcg.c ****   
 699:D:/kuaipan/SEMG/MEMS_SEMG_KL25/KL25 Sample Code_I2c/KL25 Sample Code/kl25_sc_rev10/klxx-sc-baremetal/src/drivers/mcg\mcg.c **** // Wait for clock status bits to show clock source is ext ref clk
 700:D:/kuaipan/SEMG/MEMS_SEMG_KL25/KL25 Sample Code_I2c/KL25 Sample Code/kl25_sc_rev10/klxx-sc-baremetal/src/drivers/mcg\mcg.c ****   for (i = 0 ; i < 2000 ; i++)
 701:D:/kuaipan/SEMG/MEMS_SEMG_KL25/KL25 Sample Code_I2c/KL25 Sample Code/kl25_sc_rev10/klxx-sc-baremetal/src/drivers/mcg\mcg.c ****   {
 702:D:/kuaipan/SEMG/MEMS_SEMG_KL25/KL25 Sample Code_I2c/KL25 Sample Code/kl25_sc_rev10/klxx-sc-baremetal/src/drivers/mcg\mcg.c ****     if (((MCG_S & MCG_S_CLKST_MASK) >> MCG_S_CLKST_SHIFT) == 0x0) break; // jump out early if CLKST
 703:D:/kuaipan/SEMG/MEMS_SEMG_KL25/KL25 Sample Code_I2c/KL25 Sample Code/kl25_sc_rev10/klxx-sc-baremetal/src/drivers/mcg\mcg.c ****   }
 704:D:/kuaipan/SEMG/MEMS_SEMG_KL25/KL25 Sample Code_I2c/KL25 Sample Code/kl25_sc_rev10/klxx-sc-baremetal/src/drivers/mcg\mcg.c ****   if (((MCG_S & MCG_S_CLKST_MASK) >> MCG_S_CLKST_SHIFT) != 0x0) return 0x18; // check EXT CLK is re
 705:D:/kuaipan/SEMG/MEMS_SEMG_KL25/KL25 Sample Code_I2c/KL25 Sample Code/kl25_sc_rev10/klxx-sc-baremetal/src/drivers/mcg\mcg.c **** 
 706:D:/kuaipan/SEMG/MEMS_SEMG_KL25/KL25 Sample Code_I2c/KL25 Sample Code/kl25_sc_rev10/klxx-sc-baremetal/src/drivers/mcg\mcg.c **** // Now in FEI mode
 707:D:/kuaipan/SEMG/MEMS_SEMG_KL25/KL25 Sample Code_I2c/KL25 Sample Code/kl25_sc_rev10/klxx-sc-baremetal/src/drivers/mcg\mcg.c ****   return mcg_out;
 708:D:/kuaipan/SEMG/MEMS_SEMG_KL25/KL25 Sample Code_I2c/KL25 Sample Code/kl25_sc_rev10/klxx-sc-baremetal/src/drivers/mcg\mcg.c **** } // fbe_fei
 709:D:/kuaipan/SEMG/MEMS_SEMG_KL25/KL25 Sample Code_I2c/KL25 Sample Code/kl25_sc_rev10/klxx-sc-baremetal/src/drivers/mcg\mcg.c **** 
 710:D:/kuaipan/SEMG/MEMS_SEMG_KL25/KL25 Sample Code_I2c/KL25 Sample Code/kl25_sc_rev10/klxx-sc-baremetal/src/drivers/mcg\mcg.c **** 
 711:D:/kuaipan/SEMG/MEMS_SEMG_KL25/KL25 Sample Code_I2c/KL25 Sample Code/kl25_sc_rev10/klxx-sc-baremetal/src/drivers/mcg\mcg.c **** /********************************************************************/
 712:D:/kuaipan/SEMG/MEMS_SEMG_KL25/KL25 Sample Code_I2c/KL25 Sample Code/kl25_sc_rev10/klxx-sc-baremetal/src/drivers/mcg\mcg.c **** /* Functon name : fei_fbe
 713:D:/kuaipan/SEMG/MEMS_SEMG_KL25/KL25 Sample Code_I2c/KL25 Sample Code/kl25_sc_rev10/klxx-sc-baremetal/src/drivers/mcg\mcg.c ****  *
 714:D:/kuaipan/SEMG/MEMS_SEMG_KL25/KL25 Sample Code_I2c/KL25 Sample Code/kl25_sc_rev10/klxx-sc-baremetal/src/drivers/mcg\mcg.c ****  * Mode transition: FEI to FBE mode
 715:D:/kuaipan/SEMG/MEMS_SEMG_KL25/KL25 Sample Code_I2c/KL25 Sample Code/kl25_sc_rev10/klxx-sc-baremetal/src/drivers/mcg\mcg.c ****  *
 716:D:/kuaipan/SEMG/MEMS_SEMG_KL25/KL25 Sample Code_I2c/KL25 Sample Code/kl25_sc_rev10/klxx-sc-baremetal/src/drivers/mcg\mcg.c ****  * This function transitions the MCG from FEI mode to FBE mode. This is
 717:D:/kuaipan/SEMG/MEMS_SEMG_KL25/KL25 Sample Code_I2c/KL25 Sample Code/kl25_sc_rev10/klxx-sc-baremetal/src/drivers/mcg\mcg.c ****  * achieved by setting the MCG_C2[LP] bit. There is no status bit to 
 718:D:/kuaipan/SEMG/MEMS_SEMG_KL25/KL25 Sample Code_I2c/KL25 Sample Code/kl25_sc_rev10/klxx-sc-baremetal/src/drivers/mcg\mcg.c ****  * check so 0 is always returned if the function was called with the MCG
 719:D:/kuaipan/SEMG/MEMS_SEMG_KL25/KL25 Sample Code_I2c/KL25 Sample Code/kl25_sc_rev10/klxx-sc-baremetal/src/drivers/mcg\mcg.c ****  * in FBI mode. The MCGCLKOUT frequency does not change
 720:D:/kuaipan/SEMG/MEMS_SEMG_KL25/KL25 Sample Code_I2c/KL25 Sample Code/kl25_sc_rev10/klxx-sc-baremetal/src/drivers/mcg\mcg.c ****  *
 721:D:/kuaipan/SEMG/MEMS_SEMG_KL25/KL25 Sample Code_I2c/KL25 Sample Code/kl25_sc_rev10/klxx-sc-baremetal/src/drivers/mcg\mcg.c ****  * Parameters: crystal_val - external clock frequency in Hz
 722:D:/kuaipan/SEMG/MEMS_SEMG_KL25/KL25 Sample Code_I2c/KL25 Sample Code/kl25_sc_rev10/klxx-sc-baremetal/src/drivers/mcg\mcg.c ****  *             hgo_val     - selects whether low power or high gain mode is selected
 723:D:/kuaipan/SEMG/MEMS_SEMG_KL25/KL25 Sample Code_I2c/KL25 Sample Code/kl25_sc_rev10/klxx-sc-baremetal/src/drivers/mcg\mcg.c ****  *                           for the crystal oscillator. This has no meaning if an 
 724:D:/kuaipan/SEMG/MEMS_SEMG_KL25/KL25 Sample Code_I2c/KL25 Sample Code/kl25_sc_rev10/klxx-sc-baremetal/src/drivers/mcg\mcg.c ****  *                           external clock is used.
 725:D:/kuaipan/SEMG/MEMS_SEMG_KL25/KL25 Sample Code_I2c/KL25 Sample Code/kl25_sc_rev10/klxx-sc-baremetal/src/drivers/mcg\mcg.c ****  *             erefs_val   - selects external clock (=0) or crystal osc (=1)
 726:D:/kuaipan/SEMG/MEMS_SEMG_KL25/KL25 Sample Code_I2c/KL25 Sample Code/kl25_sc_rev10/klxx-sc-baremetal/src/drivers/mcg\mcg.c ****  *
 727:D:/kuaipan/SEMG/MEMS_SEMG_KL25/KL25 Sample Code_I2c/KL25 Sample Code/kl25_sc_rev10/klxx-sc-baremetal/src/drivers/mcg\mcg.c ****  * Return value : MCGCLKOUT frequency (Hz) or error code
 728:D:/kuaipan/SEMG/MEMS_SEMG_KL25/KL25 Sample Code_I2c/KL25 Sample Code/kl25_sc_rev10/klxx-sc-baremetal/src/drivers/mcg\mcg.c ****  */
 729:D:/kuaipan/SEMG/MEMS_SEMG_KL25/KL25 Sample Code_I2c/KL25 Sample Code/kl25_sc_rev10/klxx-sc-baremetal/src/drivers/mcg\mcg.c **** int fei_fbe(int crystal_val, unsigned char hgo_val, unsigned char erefs_val)
 730:D:/kuaipan/SEMG/MEMS_SEMG_KL25/KL25 Sample Code_I2c/KL25 Sample Code/kl25_sc_rev10/klxx-sc-baremetal/src/drivers/mcg\mcg.c **** {
 1805              		.loc 1 730 0
 1806              		.cfi_startproc
 1807              	.LVL157:
 1808 0000 70B5     		push	{r4, r5, r6, lr}
 1809              	.LCFI14:
 1810              		.cfi_def_cfa_offset 16
 1811              		.cfi_offset 4, -16
 1812              		.cfi_offset 5, -12
 1813              		.cfi_offset 6, -8
 1814              		.cfi_offset 14, -4
 731:D:/kuaipan/SEMG/MEMS_SEMG_KL25/KL25 Sample Code_I2c/KL25 Sample Code/kl25_sc_rev10/klxx-sc-baremetal/src/drivers/mcg\mcg.c ****   unsigned char frdiv_val;
 732:D:/kuaipan/SEMG/MEMS_SEMG_KL25/KL25 Sample Code_I2c/KL25 Sample Code/kl25_sc_rev10/klxx-sc-baremetal/src/drivers/mcg\mcg.c ****   unsigned char temp_reg;
 733:D:/kuaipan/SEMG/MEMS_SEMG_KL25/KL25 Sample Code_I2c/KL25 Sample Code/kl25_sc_rev10/klxx-sc-baremetal/src/drivers/mcg\mcg.c ****   short i;
 734:D:/kuaipan/SEMG/MEMS_SEMG_KL25/KL25 Sample Code_I2c/KL25 Sample Code/kl25_sc_rev10/klxx-sc-baremetal/src/drivers/mcg\mcg.c ****   
 735:D:/kuaipan/SEMG/MEMS_SEMG_KL25/KL25 Sample Code_I2c/KL25 Sample Code/kl25_sc_rev10/klxx-sc-baremetal/src/drivers/mcg\mcg.c **** // check if in FEI mode
 736:D:/kuaipan/SEMG/MEMS_SEMG_KL25/KL25 Sample Code_I2c/KL25 Sample Code/kl25_sc_rev10/klxx-sc-baremetal/src/drivers/mcg\mcg.c ****   if (!((((MCG_S & MCG_S_CLKST_MASK) >> MCG_S_CLKST_SHIFT) == 0x0) && // check CLKS mux has selcted
 1815              		.loc 1 736 0
 1816 0002 5C4B     		ldr	r3, .L371
 1817 0004 9C79     		ldrb	r4, [r3, #6]
 1818 0006 2507     		lsl	r5, r4, #28
 1819 0008 AE0F     		lsr	r6, r5, #30
 1820 000a 0AD1     		bne	.L319
 737:D:/kuaipan/SEMG/MEMS_SEMG_KL25/KL25 Sample Code_I2c/KL25 Sample Code/kl25_sc_rev10/klxx-sc-baremetal/src/drivers/mcg\mcg.c ****       (MCG_S & MCG_S_IREFST_MASK) &&                                  // check FLL ref is internal 
 1821              		.loc 1 737 0
 1822 000c 9C79     		ldrb	r4, [r3, #6]
 736:D:/kuaipan/SEMG/MEMS_SEMG_KL25/KL25 Sample Code_I2c/KL25 Sample Code/kl25_sc_rev10/klxx-sc-baremetal/src/drivers/mcg\mcg.c ****   if (!((((MCG_S & MCG_S_CLKST_MASK) >> MCG_S_CLKST_SHIFT) == 0x0) && // check CLKS mux has selcted
 1823              		.loc 1 736 0
 1824 000e E506     		lsl	r5, r4, #27
 1825 0010 07D5     		bpl	.L319
 738:D:/kuaipan/SEMG/MEMS_SEMG_KL25/KL25 Sample Code_I2c/KL25 Sample Code/kl25_sc_rev10/klxx-sc-baremetal/src/drivers/mcg\mcg.c ****       (!(MCG_S & MCG_S_PLLST_MASK))))                                 // check PLLS mux has selecte
 1826              		.loc 1 738 0
 1827 0012 9B79     		ldrb	r3, [r3, #6]
 736:D:/kuaipan/SEMG/MEMS_SEMG_KL25/KL25 Sample Code_I2c/KL25 Sample Code/kl25_sc_rev10/klxx-sc-baremetal/src/drivers/mcg\mcg.c ****   if (!((((MCG_S & MCG_S_CLKST_MASK) >> MCG_S_CLKST_SHIFT) == 0x0) && // check CLKS mux has selcted
 1828              		.loc 1 736 0
 1829 0014 9C06     		lsl	r4, r3, #26
 1830 0016 04D4     		bmi	.L319
 739:D:/kuaipan/SEMG/MEMS_SEMG_KL25/KL25 Sample Code_I2c/KL25 Sample Code/kl25_sc_rev10/klxx-sc-baremetal/src/drivers/mcg\mcg.c ****   {
 740:D:/kuaipan/SEMG/MEMS_SEMG_KL25/KL25 Sample Code_I2c/KL25 Sample Code/kl25_sc_rev10/klxx-sc-baremetal/src/drivers/mcg\mcg.c ****     return 0x1;                                                     // return error code
 741:D:/kuaipan/SEMG/MEMS_SEMG_KL25/KL25 Sample Code_I2c/KL25 Sample Code/kl25_sc_rev10/klxx-sc-baremetal/src/drivers/mcg\mcg.c ****   }
 742:D:/kuaipan/SEMG/MEMS_SEMG_KL25/KL25 Sample Code_I2c/KL25 Sample Code/kl25_sc_rev10/klxx-sc-baremetal/src/drivers/mcg\mcg.c **** 
 743:D:/kuaipan/SEMG/MEMS_SEMG_KL25/KL25 Sample Code_I2c/KL25 Sample Code/kl25_sc_rev10/klxx-sc-baremetal/src/drivers/mcg\mcg.c **** // check external frequency is less than the maximum frequency
 744:D:/kuaipan/SEMG/MEMS_SEMG_KL25/KL25 Sample Code_I2c/KL25 Sample Code/kl25_sc_rev10/klxx-sc-baremetal/src/drivers/mcg\mcg.c ****   if  (crystal_val > 50000000) {return 0x21;}
 1831              		.loc 1 744 0
 1832 0018 574D     		ldr	r5, .L371+4
 1833 001a A842     		cmp	r0, r5
 1834 001c 03DD     		ble	.L363
 1835 001e 2120     		mov	r0, #33
 1836              	.LVL158:
 1837 0020 00E0     		b	.L305
 1838              	.LVL159:
 1839              	.L319:
 740:D:/kuaipan/SEMG/MEMS_SEMG_KL25/KL25 Sample Code_I2c/KL25 Sample Code/kl25_sc_rev10/klxx-sc-baremetal/src/drivers/mcg\mcg.c ****     return 0x1;                                                     // return error code
 1840              		.loc 1 740 0
 1841 0022 0120     		mov	r0, #1
 1842              	.LVL160:
 1843              	.L305:
 745:D:/kuaipan/SEMG/MEMS_SEMG_KL25/KL25 Sample Code_I2c/KL25 Sample Code/kl25_sc_rev10/klxx-sc-baremetal/src/drivers/mcg\mcg.c ****   
 746:D:/kuaipan/SEMG/MEMS_SEMG_KL25/KL25 Sample Code_I2c/KL25 Sample Code/kl25_sc_rev10/klxx-sc-baremetal/src/drivers/mcg\mcg.c **** // check crystal frequency is within spec. if crystal osc is being used
