   1              		.cpu cortex-m0
   2              		.fpu softvfp
   3              		.eabi_attribute 20, 1
   4              		.eabi_attribute 21, 1
   5              		.eabi_attribute 23, 3
   6              		.eabi_attribute 24, 1
   7              		.eabi_attribute 25, 1
   8              		.eabi_attribute 26, 1
   9              		.eabi_attribute 30, 2
  10              		.eabi_attribute 34, 0
  11              		.eabi_attribute 18, 4
  12              		.code	16
  13              		.file	"printf.c"
  14              		.text
  15              	.Ltext0:
  16              		.cfi_sections	.debug_frame
  17              		.section	.text.printk_putc,"ax",%progbits
  18              		.align	2
  19              		.code	16
  20              		.thumb_func
  22              	printk_putc:
  23              	.LFB0:
  24              		.file 1 "D:/kuaipan/SEMG/MEMS_SEMG_KL25/KL25 Sample Code_I2c/KL25 Sample Code/kl25_sc_rev10/klxx-s
   1:D:/kuaipan/SEMG/MEMS_SEMG_KL25/KL25 Sample Code_I2c/KL25 Sample Code/kl25_sc_rev10/klxx-sc-baremetal/src/common\printf.c **** /*
   2:D:/kuaipan/SEMG/MEMS_SEMG_KL25/KL25 Sample Code_I2c/KL25 Sample Code/kl25_sc_rev10/klxx-sc-baremetal/src/common\printf.c ****  * File:        printk.c
   3:D:/kuaipan/SEMG/MEMS_SEMG_KL25/KL25 Sample Code_I2c/KL25 Sample Code/kl25_sc_rev10/klxx-sc-baremetal/src/common\printf.c ****  * Purpose:     The standard C library routine printf()
   4:D:/kuaipan/SEMG/MEMS_SEMG_KL25/KL25 Sample Code_I2c/KL25 Sample Code/kl25_sc_rev10/klxx-sc-baremetal/src/common\printf.c ****  */
   5:D:/kuaipan/SEMG/MEMS_SEMG_KL25/KL25 Sample Code_I2c/KL25 Sample Code/kl25_sc_rev10/klxx-sc-baremetal/src/common\printf.c **** 
   6:D:/kuaipan/SEMG/MEMS_SEMG_KL25/KL25 Sample Code_I2c/KL25 Sample Code/kl25_sc_rev10/klxx-sc-baremetal/src/common\printf.c **** #include "common.h"
   7:D:/kuaipan/SEMG/MEMS_SEMG_KL25/KL25 Sample Code_I2c/KL25 Sample Code/kl25_sc_rev10/klxx-sc-baremetal/src/common\printf.c **** #include "stdio.h"
   8:D:/kuaipan/SEMG/MEMS_SEMG_KL25/KL25 Sample Code_I2c/KL25 Sample Code/kl25_sc_rev10/klxx-sc-baremetal/src/common\printf.c **** #include <stdarg.h>
   9:D:/kuaipan/SEMG/MEMS_SEMG_KL25/KL25 Sample Code_I2c/KL25 Sample Code/kl25_sc_rev10/klxx-sc-baremetal/src/common\printf.c **** 
  10:D:/kuaipan/SEMG/MEMS_SEMG_KL25/KL25 Sample Code_I2c/KL25 Sample Code/kl25_sc_rev10/klxx-sc-baremetal/src/common\printf.c **** /********************************************************************/
  11:D:/kuaipan/SEMG/MEMS_SEMG_KL25/KL25 Sample Code_I2c/KL25 Sample Code/kl25_sc_rev10/klxx-sc-baremetal/src/common\printf.c **** 
  12:D:/kuaipan/SEMG/MEMS_SEMG_KL25/KL25 Sample Code_I2c/KL25 Sample Code/kl25_sc_rev10/klxx-sc-baremetal/src/common\printf.c **** typedef struct
  13:D:/kuaipan/SEMG/MEMS_SEMG_KL25/KL25 Sample Code_I2c/KL25 Sample Code/kl25_sc_rev10/klxx-sc-baremetal/src/common\printf.c **** {
  14:D:/kuaipan/SEMG/MEMS_SEMG_KL25/KL25 Sample Code_I2c/KL25 Sample Code/kl25_sc_rev10/klxx-sc-baremetal/src/common\printf.c ****     int dest;
  15:D:/kuaipan/SEMG/MEMS_SEMG_KL25/KL25 Sample Code_I2c/KL25 Sample Code/kl25_sc_rev10/klxx-sc-baremetal/src/common\printf.c ****     void (*func)(char);
  16:D:/kuaipan/SEMG/MEMS_SEMG_KL25/KL25 Sample Code_I2c/KL25 Sample Code/kl25_sc_rev10/klxx-sc-baremetal/src/common\printf.c ****     char *loc;
  17:D:/kuaipan/SEMG/MEMS_SEMG_KL25/KL25 Sample Code_I2c/KL25 Sample Code/kl25_sc_rev10/klxx-sc-baremetal/src/common\printf.c **** } PRINTK_INFO;
  18:D:/kuaipan/SEMG/MEMS_SEMG_KL25/KL25 Sample Code_I2c/KL25 Sample Code/kl25_sc_rev10/klxx-sc-baremetal/src/common\printf.c **** 
  19:D:/kuaipan/SEMG/MEMS_SEMG_KL25/KL25 Sample Code_I2c/KL25 Sample Code/kl25_sc_rev10/klxx-sc-baremetal/src/common\printf.c **** int 
  20:D:/kuaipan/SEMG/MEMS_SEMG_KL25/KL25 Sample Code_I2c/KL25 Sample Code/kl25_sc_rev10/klxx-sc-baremetal/src/common\printf.c **** printk (PRINTK_INFO *, const char *, va_list);
  21:D:/kuaipan/SEMG/MEMS_SEMG_KL25/KL25 Sample Code_I2c/KL25 Sample Code/kl25_sc_rev10/klxx-sc-baremetal/src/common\printf.c **** 
  22:D:/kuaipan/SEMG/MEMS_SEMG_KL25/KL25 Sample Code_I2c/KL25 Sample Code/kl25_sc_rev10/klxx-sc-baremetal/src/common\printf.c **** /********************************************************************/
  23:D:/kuaipan/SEMG/MEMS_SEMG_KL25/KL25 Sample Code_I2c/KL25 Sample Code/kl25_sc_rev10/klxx-sc-baremetal/src/common\printf.c **** 
  24:D:/kuaipan/SEMG/MEMS_SEMG_KL25/KL25 Sample Code_I2c/KL25 Sample Code/kl25_sc_rev10/klxx-sc-baremetal/src/common\printf.c **** #define DEST_CONSOLE    (1)
  25:D:/kuaipan/SEMG/MEMS_SEMG_KL25/KL25 Sample Code_I2c/KL25 Sample Code/kl25_sc_rev10/klxx-sc-baremetal/src/common\printf.c **** #define DEST_STRING     (2)
  26:D:/kuaipan/SEMG/MEMS_SEMG_KL25/KL25 Sample Code_I2c/KL25 Sample Code/kl25_sc_rev10/klxx-sc-baremetal/src/common\printf.c **** 
  27:D:/kuaipan/SEMG/MEMS_SEMG_KL25/KL25 Sample Code_I2c/KL25 Sample Code/kl25_sc_rev10/klxx-sc-baremetal/src/common\printf.c **** #define FLAGS_MINUS     (0x01)
  28:D:/kuaipan/SEMG/MEMS_SEMG_KL25/KL25 Sample Code_I2c/KL25 Sample Code/kl25_sc_rev10/klxx-sc-baremetal/src/common\printf.c **** #define FLAGS_PLUS      (0x02)
  29:D:/kuaipan/SEMG/MEMS_SEMG_KL25/KL25 Sample Code_I2c/KL25 Sample Code/kl25_sc_rev10/klxx-sc-baremetal/src/common\printf.c **** #define FLAGS_SPACE     (0x04)
  30:D:/kuaipan/SEMG/MEMS_SEMG_KL25/KL25 Sample Code_I2c/KL25 Sample Code/kl25_sc_rev10/klxx-sc-baremetal/src/common\printf.c **** #define FLAGS_ZERO      (0x08)
  31:D:/kuaipan/SEMG/MEMS_SEMG_KL25/KL25 Sample Code_I2c/KL25 Sample Code/kl25_sc_rev10/klxx-sc-baremetal/src/common\printf.c **** #define FLAGS_POUND     (0x10)
  32:D:/kuaipan/SEMG/MEMS_SEMG_KL25/KL25 Sample Code_I2c/KL25 Sample Code/kl25_sc_rev10/klxx-sc-baremetal/src/common\printf.c **** 
  33:D:/kuaipan/SEMG/MEMS_SEMG_KL25/KL25 Sample Code_I2c/KL25 Sample Code/kl25_sc_rev10/klxx-sc-baremetal/src/common\printf.c **** #define IS_FLAG_MINUS(a)    (a & FLAGS_MINUS)
  34:D:/kuaipan/SEMG/MEMS_SEMG_KL25/KL25 Sample Code_I2c/KL25 Sample Code/kl25_sc_rev10/klxx-sc-baremetal/src/common\printf.c **** #define IS_FLAG_PLUS(a)     (a & FLAGS_PLUS)
  35:D:/kuaipan/SEMG/MEMS_SEMG_KL25/KL25 Sample Code_I2c/KL25 Sample Code/kl25_sc_rev10/klxx-sc-baremetal/src/common\printf.c **** #define IS_FLAG_SPACE(a)    (a & FLAGS_SPACE)
  36:D:/kuaipan/SEMG/MEMS_SEMG_KL25/KL25 Sample Code_I2c/KL25 Sample Code/kl25_sc_rev10/klxx-sc-baremetal/src/common\printf.c **** #define IS_FLAG_ZERO(a)     (a & FLAGS_ZERO)
  37:D:/kuaipan/SEMG/MEMS_SEMG_KL25/KL25 Sample Code_I2c/KL25 Sample Code/kl25_sc_rev10/klxx-sc-baremetal/src/common\printf.c **** #define IS_FLAG_POUND(a)    (a & FLAGS_POUND)
  38:D:/kuaipan/SEMG/MEMS_SEMG_KL25/KL25 Sample Code_I2c/KL25 Sample Code/kl25_sc_rev10/klxx-sc-baremetal/src/common\printf.c **** 
  39:D:/kuaipan/SEMG/MEMS_SEMG_KL25/KL25 Sample Code_I2c/KL25 Sample Code/kl25_sc_rev10/klxx-sc-baremetal/src/common\printf.c **** #define LENMOD_h        (0x01)
  40:D:/kuaipan/SEMG/MEMS_SEMG_KL25/KL25 Sample Code_I2c/KL25 Sample Code/kl25_sc_rev10/klxx-sc-baremetal/src/common\printf.c **** #define LENMOD_l        (0x02)
  41:D:/kuaipan/SEMG/MEMS_SEMG_KL25/KL25 Sample Code_I2c/KL25 Sample Code/kl25_sc_rev10/klxx-sc-baremetal/src/common\printf.c **** #define LENMOD_L        (0x04)
  42:D:/kuaipan/SEMG/MEMS_SEMG_KL25/KL25 Sample Code_I2c/KL25 Sample Code/kl25_sc_rev10/klxx-sc-baremetal/src/common\printf.c **** 
  43:D:/kuaipan/SEMG/MEMS_SEMG_KL25/KL25 Sample Code_I2c/KL25 Sample Code/kl25_sc_rev10/klxx-sc-baremetal/src/common\printf.c **** #define IS_LENMOD_h(a)  (a & LENMOD_h)
  44:D:/kuaipan/SEMG/MEMS_SEMG_KL25/KL25 Sample Code_I2c/KL25 Sample Code/kl25_sc_rev10/klxx-sc-baremetal/src/common\printf.c **** #define IS_LENMOD_l(a)  (a & LENMOD_l)
  45:D:/kuaipan/SEMG/MEMS_SEMG_KL25/KL25 Sample Code_I2c/KL25 Sample Code/kl25_sc_rev10/klxx-sc-baremetal/src/common\printf.c **** #define IS_LENMOD_L(a)  (a & LENMOD_L)
  46:D:/kuaipan/SEMG/MEMS_SEMG_KL25/KL25 Sample Code_I2c/KL25 Sample Code/kl25_sc_rev10/klxx-sc-baremetal/src/common\printf.c **** 
  47:D:/kuaipan/SEMG/MEMS_SEMG_KL25/KL25 Sample Code_I2c/KL25 Sample Code/kl25_sc_rev10/klxx-sc-baremetal/src/common\printf.c **** #define FMT_d   (0x0001)
  48:D:/kuaipan/SEMG/MEMS_SEMG_KL25/KL25 Sample Code_I2c/KL25 Sample Code/kl25_sc_rev10/klxx-sc-baremetal/src/common\printf.c **** #define FMT_o   (0x0002)
  49:D:/kuaipan/SEMG/MEMS_SEMG_KL25/KL25 Sample Code_I2c/KL25 Sample Code/kl25_sc_rev10/klxx-sc-baremetal/src/common\printf.c **** #define FMT_x   (0x0004)
  50:D:/kuaipan/SEMG/MEMS_SEMG_KL25/KL25 Sample Code_I2c/KL25 Sample Code/kl25_sc_rev10/klxx-sc-baremetal/src/common\printf.c **** #define FMT_X   (0x0008)
  51:D:/kuaipan/SEMG/MEMS_SEMG_KL25/KL25 Sample Code_I2c/KL25 Sample Code/kl25_sc_rev10/klxx-sc-baremetal/src/common\printf.c **** #define FMT_u   (0x0010)
  52:D:/kuaipan/SEMG/MEMS_SEMG_KL25/KL25 Sample Code_I2c/KL25 Sample Code/kl25_sc_rev10/klxx-sc-baremetal/src/common\printf.c **** #define FMT_c   (0x0020)
  53:D:/kuaipan/SEMG/MEMS_SEMG_KL25/KL25 Sample Code_I2c/KL25 Sample Code/kl25_sc_rev10/klxx-sc-baremetal/src/common\printf.c **** #define FMT_s   (0x0040)
  54:D:/kuaipan/SEMG/MEMS_SEMG_KL25/KL25 Sample Code_I2c/KL25 Sample Code/kl25_sc_rev10/klxx-sc-baremetal/src/common\printf.c **** #define FMT_p   (0x0080)
  55:D:/kuaipan/SEMG/MEMS_SEMG_KL25/KL25 Sample Code_I2c/KL25 Sample Code/kl25_sc_rev10/klxx-sc-baremetal/src/common\printf.c **** #define FMT_n   (0x0100)
  56:D:/kuaipan/SEMG/MEMS_SEMG_KL25/KL25 Sample Code_I2c/KL25 Sample Code/kl25_sc_rev10/klxx-sc-baremetal/src/common\printf.c **** 
  57:D:/kuaipan/SEMG/MEMS_SEMG_KL25/KL25 Sample Code_I2c/KL25 Sample Code/kl25_sc_rev10/klxx-sc-baremetal/src/common\printf.c **** #define IS_FMT_d(a)     (a & FMT_d)
  58:D:/kuaipan/SEMG/MEMS_SEMG_KL25/KL25 Sample Code_I2c/KL25 Sample Code/kl25_sc_rev10/klxx-sc-baremetal/src/common\printf.c **** #define IS_FMT_o(a)     (a & FMT_o)
  59:D:/kuaipan/SEMG/MEMS_SEMG_KL25/KL25 Sample Code_I2c/KL25 Sample Code/kl25_sc_rev10/klxx-sc-baremetal/src/common\printf.c **** #define IS_FMT_x(a)     (a & FMT_x)
  60:D:/kuaipan/SEMG/MEMS_SEMG_KL25/KL25 Sample Code_I2c/KL25 Sample Code/kl25_sc_rev10/klxx-sc-baremetal/src/common\printf.c **** #define IS_FMT_X(a)     (a & FMT_X)
  61:D:/kuaipan/SEMG/MEMS_SEMG_KL25/KL25 Sample Code_I2c/KL25 Sample Code/kl25_sc_rev10/klxx-sc-baremetal/src/common\printf.c **** #define IS_FMT_u(a)     (a & FMT_u)
  62:D:/kuaipan/SEMG/MEMS_SEMG_KL25/KL25 Sample Code_I2c/KL25 Sample Code/kl25_sc_rev10/klxx-sc-baremetal/src/common\printf.c **** #define IS_FMT_c(a)     (a & FMT_c)
  63:D:/kuaipan/SEMG/MEMS_SEMG_KL25/KL25 Sample Code_I2c/KL25 Sample Code/kl25_sc_rev10/klxx-sc-baremetal/src/common\printf.c **** #define IS_FMT_s(a)     (a & FMT_s)
  64:D:/kuaipan/SEMG/MEMS_SEMG_KL25/KL25 Sample Code_I2c/KL25 Sample Code/kl25_sc_rev10/klxx-sc-baremetal/src/common\printf.c **** #define IS_FMT_p(a)     (a & FMT_p)
  65:D:/kuaipan/SEMG/MEMS_SEMG_KL25/KL25 Sample Code_I2c/KL25 Sample Code/kl25_sc_rev10/klxx-sc-baremetal/src/common\printf.c **** #define IS_FMT_n(a)     (a & FMT_n)
  66:D:/kuaipan/SEMG/MEMS_SEMG_KL25/KL25 Sample Code_I2c/KL25 Sample Code/kl25_sc_rev10/klxx-sc-baremetal/src/common\printf.c **** 
  67:D:/kuaipan/SEMG/MEMS_SEMG_KL25/KL25 Sample Code_I2c/KL25 Sample Code/kl25_sc_rev10/klxx-sc-baremetal/src/common\printf.c **** /********************************************************************/
  68:D:/kuaipan/SEMG/MEMS_SEMG_KL25/KL25 Sample Code_I2c/KL25 Sample Code/kl25_sc_rev10/klxx-sc-baremetal/src/common\printf.c **** static void
  69:D:/kuaipan/SEMG/MEMS_SEMG_KL25/KL25 Sample Code_I2c/KL25 Sample Code/kl25_sc_rev10/klxx-sc-baremetal/src/common\printf.c **** printk_putc (int c, int *count, PRINTK_INFO *info)
  70:D:/kuaipan/SEMG/MEMS_SEMG_KL25/KL25 Sample Code_I2c/KL25 Sample Code/kl25_sc_rev10/klxx-sc-baremetal/src/common\printf.c **** {
  25              		.loc 1 70 0
  26              		.cfi_startproc
  27              	.LVL0:
  71:D:/kuaipan/SEMG/MEMS_SEMG_KL25/KL25 Sample Code_I2c/KL25 Sample Code/kl25_sc_rev10/klxx-sc-baremetal/src/common\printf.c ****     switch (info->dest)
  28              		.loc 1 71 0
  29 0000 1368     		ldr	r3, [r2]
  70:D:/kuaipan/SEMG/MEMS_SEMG_KL25/KL25 Sample Code_I2c/KL25 Sample Code/kl25_sc_rev10/klxx-sc-baremetal/src/common\printf.c **** {
  30              		.loc 1 70 0
  31 0002 10B5     		push	{r4, lr}
  32              	.LCFI0:
  33              		.cfi_def_cfa_offset 8
  34              		.cfi_offset 4, -8
  35              		.cfi_offset 14, -4
  70:D:/kuaipan/SEMG/MEMS_SEMG_KL25/KL25 Sample Code_I2c/KL25 Sample Code/kl25_sc_rev10/klxx-sc-baremetal/src/common\printf.c **** {
  36              		.loc 1 70 0
  37 0004 0C1C     		mov	r4, r1
  38              		.loc 1 71 0
  39 0006 012B     		cmp	r3, #1
  40 0008 0AD0     		beq	.L3
  41 000a 022B     		cmp	r3, #2
  42 000c 04D1     		bne	.L2
  72:D:/kuaipan/SEMG/MEMS_SEMG_KL25/KL25 Sample Code_I2c/KL25 Sample Code/kl25_sc_rev10/klxx-sc-baremetal/src/common\printf.c ****     {
  73:D:/kuaipan/SEMG/MEMS_SEMG_KL25/KL25 Sample Code_I2c/KL25 Sample Code/kl25_sc_rev10/klxx-sc-baremetal/src/common\printf.c ****         case DEST_CONSOLE:
  74:D:/kuaipan/SEMG/MEMS_SEMG_KL25/KL25 Sample Code_I2c/KL25 Sample Code/kl25_sc_rev10/klxx-sc-baremetal/src/common\printf.c ****             info->func((char)c);
  75:D:/kuaipan/SEMG/MEMS_SEMG_KL25/KL25 Sample Code_I2c/KL25 Sample Code/kl25_sc_rev10/klxx-sc-baremetal/src/common\printf.c ****             break;
  76:D:/kuaipan/SEMG/MEMS_SEMG_KL25/KL25 Sample Code_I2c/KL25 Sample Code/kl25_sc_rev10/klxx-sc-baremetal/src/common\printf.c ****         case DEST_STRING:
  77:D:/kuaipan/SEMG/MEMS_SEMG_KL25/KL25 Sample Code_I2c/KL25 Sample Code/kl25_sc_rev10/klxx-sc-baremetal/src/common\printf.c ****             *(info->loc) = (unsigned char)c;
  43              		.loc 1 77 0
  44 000e 9168     		ldr	r1, [r2, #8]
  45              	.LVL1:
  46 0010 0870     		strb	r0, [r1]
  78:D:/kuaipan/SEMG/MEMS_SEMG_KL25/KL25 Sample Code_I2c/KL25 Sample Code/kl25_sc_rev10/klxx-sc-baremetal/src/common\printf.c ****             ++(info->loc);
  47              		.loc 1 78 0
  48 0012 9068     		ldr	r0, [r2, #8]
  49              	.LVL2:
  50 0014 0130     		add	r0, r0, #1
  51 0016 9060     		str	r0, [r2, #8]
  52              	.LVL3:
  53              	.L2:
  79:D:/kuaipan/SEMG/MEMS_SEMG_KL25/KL25 Sample Code_I2c/KL25 Sample Code/kl25_sc_rev10/klxx-sc-baremetal/src/common\printf.c ****             break;
  80:D:/kuaipan/SEMG/MEMS_SEMG_KL25/KL25 Sample Code_I2c/KL25 Sample Code/kl25_sc_rev10/klxx-sc-baremetal/src/common\printf.c ****         default:
  81:D:/kuaipan/SEMG/MEMS_SEMG_KL25/KL25 Sample Code_I2c/KL25 Sample Code/kl25_sc_rev10/klxx-sc-baremetal/src/common\printf.c ****             break;
  82:D:/kuaipan/SEMG/MEMS_SEMG_KL25/KL25 Sample Code_I2c/KL25 Sample Code/kl25_sc_rev10/klxx-sc-baremetal/src/common\printf.c ****     }
  83:D:/kuaipan/SEMG/MEMS_SEMG_KL25/KL25 Sample Code_I2c/KL25 Sample Code/kl25_sc_rev10/klxx-sc-baremetal/src/common\printf.c ****     *count += 1;
  54              		.loc 1 83 0
  55 0018 2368     		ldr	r3, [r4]
  84:D:/kuaipan/SEMG/MEMS_SEMG_KL25/KL25 Sample Code_I2c/KL25 Sample Code/kl25_sc_rev10/klxx-sc-baremetal/src/common\printf.c **** }
  56              		.loc 1 84 0
  57              		@ sp needed for prologue
  83:D:/kuaipan/SEMG/MEMS_SEMG_KL25/KL25 Sample Code_I2c/KL25 Sample Code/kl25_sc_rev10/klxx-sc-baremetal/src/common\printf.c ****     *count += 1;
  58              		.loc 1 83 0
  59 001a 0133     		add	r3, r3, #1
  60 001c 2360     		str	r3, [r4]
  61              	.LVL4:
  62              		.loc 1 84 0
  63 001e 10BD     		pop	{r4, pc}
  64              	.LVL5:
  65              	.L3:
  74:D:/kuaipan/SEMG/MEMS_SEMG_KL25/KL25 Sample Code_I2c/KL25 Sample Code/kl25_sc_rev10/klxx-sc-baremetal/src/common\printf.c ****             info->func((char)c);
  66              		.loc 1 74 0
  67 0020 C0B2     		uxtb	r0, r0
  68              	.LVL6:
  69 0022 5268     		ldr	r2, [r2, #4]
  70              	.LVL7:
  71 0024 9047     		blx	r2
  72              	.LVL8:
  75:D:/kuaipan/SEMG/MEMS_SEMG_KL25/KL25 Sample Code_I2c/KL25 Sample Code/kl25_sc_rev10/klxx-sc-baremetal/src/common\printf.c ****             break;
  73              		.loc 1 75 0
  74 0026 F7E7     		b	.L2
  75              		.cfi_endproc
  76              	.LFE0:
  78              		.global	__aeabi_idiv
  79              		.global	__aeabi_uidiv
  80              		.section	.text.printk_mknumstr,"ax",%progbits
  81              		.align	2
  82              		.code	16
  83              		.thumb_func
  85              	printk_mknumstr:
  86              	.LFB1:
  85:D:/kuaipan/SEMG/MEMS_SEMG_KL25/KL25 Sample Code_I2c/KL25 Sample Code/kl25_sc_rev10/klxx-sc-baremetal/src/common\printf.c **** 
  86:D:/kuaipan/SEMG/MEMS_SEMG_KL25/KL25 Sample Code_I2c/KL25 Sample Code/kl25_sc_rev10/klxx-sc-baremetal/src/common\printf.c **** /********************************************************************/
  87:D:/kuaipan/SEMG/MEMS_SEMG_KL25/KL25 Sample Code_I2c/KL25 Sample Code/kl25_sc_rev10/klxx-sc-baremetal/src/common\printf.c **** static int
  88:D:/kuaipan/SEMG/MEMS_SEMG_KL25/KL25 Sample Code_I2c/KL25 Sample Code/kl25_sc_rev10/klxx-sc-baremetal/src/common\printf.c **** printk_mknumstr (char *numstr, void *nump, int neg, int radix)
  89:D:/kuaipan/SEMG/MEMS_SEMG_KL25/KL25 Sample Code_I2c/KL25 Sample Code/kl25_sc_rev10/klxx-sc-baremetal/src/common\printf.c **** {
  87              		.loc 1 89 0
  88              		.cfi_startproc
  89              	.LVL9:
  90 0000 F0B5     		push	{r4, r5, r6, r7, lr}
  91              	.LCFI1:
  92              		.cfi_def_cfa_offset 20
  93              		.cfi_offset 4, -20
  94              		.cfi_offset 5, -16
  95              		.cfi_offset 6, -12
  96              		.cfi_offset 7, -8
  97              		.cfi_offset 14, -4
  98 0002 4746     		mov	r7, r8
  99 0004 1C1C     		mov	r4, r3
  90:D:/kuaipan/SEMG/MEMS_SEMG_KL25/KL25 Sample Code_I2c/KL25 Sample Code/kl25_sc_rev10/klxx-sc-baremetal/src/common\printf.c ****     int a,b,c;
  91:D:/kuaipan/SEMG/MEMS_SEMG_KL25/KL25 Sample Code_I2c/KL25 Sample Code/kl25_sc_rev10/klxx-sc-baremetal/src/common\printf.c ****     unsigned int ua,ub,uc;
  92:D:/kuaipan/SEMG/MEMS_SEMG_KL25/KL25 Sample Code_I2c/KL25 Sample Code/kl25_sc_rev10/klxx-sc-baremetal/src/common\printf.c **** 
  93:D:/kuaipan/SEMG/MEMS_SEMG_KL25/KL25 Sample Code_I2c/KL25 Sample Code/kl25_sc_rev10/klxx-sc-baremetal/src/common\printf.c ****     int nlen;
  94:D:/kuaipan/SEMG/MEMS_SEMG_KL25/KL25 Sample Code_I2c/KL25 Sample Code/kl25_sc_rev10/klxx-sc-baremetal/src/common\printf.c ****     char *nstrp;
  95:D:/kuaipan/SEMG/MEMS_SEMG_KL25/KL25 Sample Code_I2c/KL25 Sample Code/kl25_sc_rev10/klxx-sc-baremetal/src/common\printf.c **** 
  96:D:/kuaipan/SEMG/MEMS_SEMG_KL25/KL25 Sample Code_I2c/KL25 Sample Code/kl25_sc_rev10/klxx-sc-baremetal/src/common\printf.c ****     nlen = 0;
  97:D:/kuaipan/SEMG/MEMS_SEMG_KL25/KL25 Sample Code_I2c/KL25 Sample Code/kl25_sc_rev10/klxx-sc-baremetal/src/common\printf.c ****     nstrp = numstr;
  98:D:/kuaipan/SEMG/MEMS_SEMG_KL25/KL25 Sample Code_I2c/KL25 Sample Code/kl25_sc_rev10/klxx-sc-baremetal/src/common\printf.c ****     *nstrp++ = '\0';
 100              		.loc 1 98 0
 101 0006 0023     		mov	r3, #0
 102              	.LVL10:
  89:D:/kuaipan/SEMG/MEMS_SEMG_KL25/KL25 Sample Code_I2c/KL25 Sample Code/kl25_sc_rev10/klxx-sc-baremetal/src/common\printf.c **** {
 103              		.loc 1 89 0
 104 0008 80B4     		push	{r7}
 105              	.LCFI2:
 106              		.cfi_def_cfa_offset 24
 107              		.cfi_offset 8, -24
 108              		.loc 1 98 0
 109 000a 0370     		strb	r3, [r0]
  89:D:/kuaipan/SEMG/MEMS_SEMG_KL25/KL25 Sample Code_I2c/KL25 Sample Code/kl25_sc_rev10/klxx-sc-baremetal/src/common\printf.c **** {
 110              		.loc 1 89 0
 111 000c 071C     		mov	r7, r0
 112              	.LVL11:
  99:D:/kuaipan/SEMG/MEMS_SEMG_KL25/KL25 Sample Code_I2c/KL25 Sample Code/kl25_sc_rev10/klxx-sc-baremetal/src/common\printf.c **** 
 100:D:/kuaipan/SEMG/MEMS_SEMG_KL25/KL25 Sample Code_I2c/KL25 Sample Code/kl25_sc_rev10/klxx-sc-baremetal/src/common\printf.c ****     if (neg)
 101:D:/kuaipan/SEMG/MEMS_SEMG_KL25/KL25 Sample Code_I2c/KL25 Sample Code/kl25_sc_rev10/klxx-sc-baremetal/src/common\printf.c ****     {
 102:D:/kuaipan/SEMG/MEMS_SEMG_KL25/KL25 Sample Code_I2c/KL25 Sample Code/kl25_sc_rev10/klxx-sc-baremetal/src/common\printf.c ****         a = *(int *)nump;
 113              		.loc 1 102 0
 114 000e 0D68     		ldr	r5, [r1]
 115              	.LVL12:
 103:D:/kuaipan/SEMG/MEMS_SEMG_KL25/KL25 Sample Code_I2c/KL25 Sample Code/kl25_sc_rev10/klxx-sc-baremetal/src/common\printf.c ****         if (a == 0)
 116              		.loc 1 103 0
 117 0010 0126     		mov	r6, #1
 100:D:/kuaipan/SEMG/MEMS_SEMG_KL25/KL25 Sample Code_I2c/KL25 Sample Code/kl25_sc_rev10/klxx-sc-baremetal/src/common\printf.c ****     if (neg)
 118              		.loc 1 100 0
 119 0012 002A     		cmp	r2, #0
 120 0014 1ED0     		beq	.L7
 104:D:/kuaipan/SEMG/MEMS_SEMG_KL25/KL25 Sample Code_I2c/KL25 Sample Code/kl25_sc_rev10/klxx-sc-baremetal/src/common\printf.c ****         {
 105:D:/kuaipan/SEMG/MEMS_SEMG_KL25/KL25 Sample Code_I2c/KL25 Sample Code/kl25_sc_rev10/klxx-sc-baremetal/src/common\printf.c ****             *nstrp = '0';
 106:D:/kuaipan/SEMG/MEMS_SEMG_KL25/KL25 Sample Code_I2c/KL25 Sample Code/kl25_sc_rev10/klxx-sc-baremetal/src/common\printf.c ****             ++nlen;
 107:D:/kuaipan/SEMG/MEMS_SEMG_KL25/KL25 Sample Code_I2c/KL25 Sample Code/kl25_sc_rev10/klxx-sc-baremetal/src/common\printf.c ****             goto done;
 108:D:/kuaipan/SEMG/MEMS_SEMG_KL25/KL25 Sample Code_I2c/KL25 Sample Code/kl25_sc_rev10/klxx-sc-baremetal/src/common\printf.c ****         }
 109:D:/kuaipan/SEMG/MEMS_SEMG_KL25/KL25 Sample Code_I2c/KL25 Sample Code/kl25_sc_rev10/klxx-sc-baremetal/src/common\printf.c ****         while (a != 0)
 110:D:/kuaipan/SEMG/MEMS_SEMG_KL25/KL25 Sample Code_I2c/KL25 Sample Code/kl25_sc_rev10/klxx-sc-baremetal/src/common\printf.c ****         {
 111:D:/kuaipan/SEMG/MEMS_SEMG_KL25/KL25 Sample Code_I2c/KL25 Sample Code/kl25_sc_rev10/klxx-sc-baremetal/src/common\printf.c ****             b = (int)a / (int)radix;
 112:D:/kuaipan/SEMG/MEMS_SEMG_KL25/KL25 Sample Code_I2c/KL25 Sample Code/kl25_sc_rev10/klxx-sc-baremetal/src/common\printf.c ****             c = (int)a - ((int)b * (int)radix);
 113:D:/kuaipan/SEMG/MEMS_SEMG_KL25/KL25 Sample Code_I2c/KL25 Sample Code/kl25_sc_rev10/klxx-sc-baremetal/src/common\printf.c ****             if (c < 0)
 114:D:/kuaipan/SEMG/MEMS_SEMG_KL25/KL25 Sample Code_I2c/KL25 Sample Code/kl25_sc_rev10/klxx-sc-baremetal/src/common\printf.c ****             {
 115:D:/kuaipan/SEMG/MEMS_SEMG_KL25/KL25 Sample Code_I2c/KL25 Sample Code/kl25_sc_rev10/klxx-sc-baremetal/src/common\printf.c ****                 c = ~c + 1 + '0';
 121              		.loc 1 115 0
 122 0016 3020     		mov	r0, #48
 123              	.LVL13:
 124 0018 8046     		mov	r8, r0
 103:D:/kuaipan/SEMG/MEMS_SEMG_KL25/KL25 Sample Code_I2c/KL25 Sample Code/kl25_sc_rev10/klxx-sc-baremetal/src/common\printf.c ****         if (a == 0)
 125              		.loc 1 103 0
 126 001a 002D     		cmp	r5, #0
 127 001c 0ED1     		bne	.L17
 128              	.L21:
 116:D:/kuaipan/SEMG/MEMS_SEMG_KL25/KL25 Sample Code_I2c/KL25 Sample Code/kl25_sc_rev10/klxx-sc-baremetal/src/common\printf.c ****             }
 117:D:/kuaipan/SEMG/MEMS_SEMG_KL25/KL25 Sample Code_I2c/KL25 Sample Code/kl25_sc_rev10/klxx-sc-baremetal/src/common\printf.c ****             else
 118:D:/kuaipan/SEMG/MEMS_SEMG_KL25/KL25 Sample Code_I2c/KL25 Sample Code/kl25_sc_rev10/klxx-sc-baremetal/src/common\printf.c ****             {
 119:D:/kuaipan/SEMG/MEMS_SEMG_KL25/KL25 Sample Code_I2c/KL25 Sample Code/kl25_sc_rev10/klxx-sc-baremetal/src/common\printf.c ****                 c = c + '0';
 120:D:/kuaipan/SEMG/MEMS_SEMG_KL25/KL25 Sample Code_I2c/KL25 Sample Code/kl25_sc_rev10/klxx-sc-baremetal/src/common\printf.c ****             }
 121:D:/kuaipan/SEMG/MEMS_SEMG_KL25/KL25 Sample Code_I2c/KL25 Sample Code/kl25_sc_rev10/klxx-sc-baremetal/src/common\printf.c ****             a = b;
 122:D:/kuaipan/SEMG/MEMS_SEMG_KL25/KL25 Sample Code_I2c/KL25 Sample Code/kl25_sc_rev10/klxx-sc-baremetal/src/common\printf.c ****             *nstrp++ = (char)c;
 123:D:/kuaipan/SEMG/MEMS_SEMG_KL25/KL25 Sample Code_I2c/KL25 Sample Code/kl25_sc_rev10/klxx-sc-baremetal/src/common\printf.c ****             ++nlen;
 124:D:/kuaipan/SEMG/MEMS_SEMG_KL25/KL25 Sample Code_I2c/KL25 Sample Code/kl25_sc_rev10/klxx-sc-baremetal/src/common\printf.c ****         }
 125:D:/kuaipan/SEMG/MEMS_SEMG_KL25/KL25 Sample Code_I2c/KL25 Sample Code/kl25_sc_rev10/klxx-sc-baremetal/src/common\printf.c ****     }
 126:D:/kuaipan/SEMG/MEMS_SEMG_KL25/KL25 Sample Code_I2c/KL25 Sample Code/kl25_sc_rev10/klxx-sc-baremetal/src/common\printf.c ****     else
 127:D:/kuaipan/SEMG/MEMS_SEMG_KL25/KL25 Sample Code_I2c/KL25 Sample Code/kl25_sc_rev10/klxx-sc-baremetal/src/common\printf.c ****     {
 128:D:/kuaipan/SEMG/MEMS_SEMG_KL25/KL25 Sample Code_I2c/KL25 Sample Code/kl25_sc_rev10/klxx-sc-baremetal/src/common\printf.c ****         ua = *(unsigned int *)nump;
 129:D:/kuaipan/SEMG/MEMS_SEMG_KL25/KL25 Sample Code_I2c/KL25 Sample Code/kl25_sc_rev10/klxx-sc-baremetal/src/common\printf.c ****         if (ua == 0)
 130:D:/kuaipan/SEMG/MEMS_SEMG_KL25/KL25 Sample Code_I2c/KL25 Sample Code/kl25_sc_rev10/klxx-sc-baremetal/src/common\printf.c ****         {
 131:D:/kuaipan/SEMG/MEMS_SEMG_KL25/KL25 Sample Code_I2c/KL25 Sample Code/kl25_sc_rev10/klxx-sc-baremetal/src/common\printf.c ****             *nstrp = '0';
 129              		.loc 1 131 0
 130 001e 3024     		mov	r4, #48
 131              	.LVL14:
 132 0020 7C70     		strb	r4, [r7, #1]
 133              	.LVL15:
 132:D:/kuaipan/SEMG/MEMS_SEMG_KL25/KL25 Sample Code_I2c/KL25 Sample Code/kl25_sc_rev10/klxx-sc-baremetal/src/common\printf.c ****             ++nlen;
 134              		.loc 1 132 0
 135 0022 0123     		mov	r3, #1
 136              	.LVL16:
 137              	.L9:
 133:D:/kuaipan/SEMG/MEMS_SEMG_KL25/KL25 Sample Code_I2c/KL25 Sample Code/kl25_sc_rev10/klxx-sc-baremetal/src/common\printf.c ****             goto done;
 134:D:/kuaipan/SEMG/MEMS_SEMG_KL25/KL25 Sample Code_I2c/KL25 Sample Code/kl25_sc_rev10/klxx-sc-baremetal/src/common\printf.c ****         }
 135:D:/kuaipan/SEMG/MEMS_SEMG_KL25/KL25 Sample Code_I2c/KL25 Sample Code/kl25_sc_rev10/klxx-sc-baremetal/src/common\printf.c ****         while (ua != 0)
 136:D:/kuaipan/SEMG/MEMS_SEMG_KL25/KL25 Sample Code_I2c/KL25 Sample Code/kl25_sc_rev10/klxx-sc-baremetal/src/common\printf.c ****         {
 137:D:/kuaipan/SEMG/MEMS_SEMG_KL25/KL25 Sample Code_I2c/KL25 Sample Code/kl25_sc_rev10/klxx-sc-baremetal/src/common\printf.c ****             ub = (unsigned int)ua / (unsigned int)radix;
 138:D:/kuaipan/SEMG/MEMS_SEMG_KL25/KL25 Sample Code_I2c/KL25 Sample Code/kl25_sc_rev10/klxx-sc-baremetal/src/common\printf.c ****             uc = (unsigned int)ua - ((unsigned int)ub * (unsigned int)radix);
 139:D:/kuaipan/SEMG/MEMS_SEMG_KL25/KL25 Sample Code_I2c/KL25 Sample Code/kl25_sc_rev10/klxx-sc-baremetal/src/common\printf.c ****             if (uc < 10)
 140:D:/kuaipan/SEMG/MEMS_SEMG_KL25/KL25 Sample Code_I2c/KL25 Sample Code/kl25_sc_rev10/klxx-sc-baremetal/src/common\printf.c ****             {
 141:D:/kuaipan/SEMG/MEMS_SEMG_KL25/KL25 Sample Code_I2c/KL25 Sample Code/kl25_sc_rev10/klxx-sc-baremetal/src/common\printf.c ****                 uc = uc + '0';
 142:D:/kuaipan/SEMG/MEMS_SEMG_KL25/KL25 Sample Code_I2c/KL25 Sample Code/kl25_sc_rev10/klxx-sc-baremetal/src/common\printf.c ****             }
 143:D:/kuaipan/SEMG/MEMS_SEMG_KL25/KL25 Sample Code_I2c/KL25 Sample Code/kl25_sc_rev10/klxx-sc-baremetal/src/common\printf.c ****             else
 144:D:/kuaipan/SEMG/MEMS_SEMG_KL25/KL25 Sample Code_I2c/KL25 Sample Code/kl25_sc_rev10/klxx-sc-baremetal/src/common\printf.c ****             {
 145:D:/kuaipan/SEMG/MEMS_SEMG_KL25/KL25 Sample Code_I2c/KL25 Sample Code/kl25_sc_rev10/klxx-sc-baremetal/src/common\printf.c ****                 uc = uc - 10 + 'A';
 146:D:/kuaipan/SEMG/MEMS_SEMG_KL25/KL25 Sample Code_I2c/KL25 Sample Code/kl25_sc_rev10/klxx-sc-baremetal/src/common\printf.c ****             }
 147:D:/kuaipan/SEMG/MEMS_SEMG_KL25/KL25 Sample Code_I2c/KL25 Sample Code/kl25_sc_rev10/klxx-sc-baremetal/src/common\printf.c ****             ua = ub;
 148:D:/kuaipan/SEMG/MEMS_SEMG_KL25/KL25 Sample Code_I2c/KL25 Sample Code/kl25_sc_rev10/klxx-sc-baremetal/src/common\printf.c ****             *nstrp++ = (char)uc;
 149:D:/kuaipan/SEMG/MEMS_SEMG_KL25/KL25 Sample Code_I2c/KL25 Sample Code/kl25_sc_rev10/klxx-sc-baremetal/src/common\printf.c ****             ++nlen;
 150:D:/kuaipan/SEMG/MEMS_SEMG_KL25/KL25 Sample Code_I2c/KL25 Sample Code/kl25_sc_rev10/klxx-sc-baremetal/src/common\printf.c ****         }
 151:D:/kuaipan/SEMG/MEMS_SEMG_KL25/KL25 Sample Code_I2c/KL25 Sample Code/kl25_sc_rev10/klxx-sc-baremetal/src/common\printf.c ****     }
 152:D:/kuaipan/SEMG/MEMS_SEMG_KL25/KL25 Sample Code_I2c/KL25 Sample Code/kl25_sc_rev10/klxx-sc-baremetal/src/common\printf.c ****     done:
 153:D:/kuaipan/SEMG/MEMS_SEMG_KL25/KL25 Sample Code_I2c/KL25 Sample Code/kl25_sc_rev10/klxx-sc-baremetal/src/common\printf.c ****     return nlen;
 154:D:/kuaipan/SEMG/MEMS_SEMG_KL25/KL25 Sample Code_I2c/KL25 Sample Code/kl25_sc_rev10/klxx-sc-baremetal/src/common\printf.c **** }
 138              		.loc 1 154 0
 139 0024 181C     		mov	r0, r3
 140              		@ sp needed for prologue
 141              	.LVL17:
 142 0026 04BC     		pop	{r2}
 143 0028 9046     		mov	r8, r2
 144 002a F0BD     		pop	{r4, r5, r6, r7, pc}
 145              	.LVL18:
 146              	.L23:
 115:D:/kuaipan/SEMG/MEMS_SEMG_KL25/KL25 Sample Code_I2c/KL25 Sample Code/kl25_sc_rev10/klxx-sc-baremetal/src/common\printf.c ****                 c = ~c + 1 + '0';
 147              		.loc 1 115 0
 148 002c 4246     		mov	r2, r8
 149 002e 531B     		sub	r3, r2, r5
 150              	.LVL19:
 151              	.L11:
 122:D:/kuaipan/SEMG/MEMS_SEMG_KL25/KL25 Sample Code_I2c/KL25 Sample Code/kl25_sc_rev10/klxx-sc-baremetal/src/common\printf.c ****             *nstrp++ = (char)c;
 152              		.loc 1 122 0
 153 0030 BB55     		strb	r3, [r7, r6]
 121:D:/kuaipan/SEMG/MEMS_SEMG_KL25/KL25 Sample Code_I2c/KL25 Sample Code/kl25_sc_rev10/klxx-sc-baremetal/src/common\printf.c ****             a = b;
 154              		.loc 1 121 0
 155 0032 051C     		mov	r5, r0
 123:D:/kuaipan/SEMG/MEMS_SEMG_KL25/KL25 Sample Code_I2c/KL25 Sample Code/kl25_sc_rev10/klxx-sc-baremetal/src/common\printf.c ****             ++nlen;
 156              		.loc 1 123 0
 157 0034 331C     		mov	r3, r6
 158              	.LVL20:
 159 0036 0136     		add	r6, r6, #1
 109:D:/kuaipan/SEMG/MEMS_SEMG_KL25/KL25 Sample Code_I2c/KL25 Sample Code/kl25_sc_rev10/klxx-sc-baremetal/src/common\printf.c ****         while (a != 0)
 160              		.loc 1 109 0
 161 0038 0028     		cmp	r0, #0
 162 003a F3D0     		beq	.L9
 163              	.LVL21:
 164              	.L17:
 111:D:/kuaipan/SEMG/MEMS_SEMG_KL25/KL25 Sample Code_I2c/KL25 Sample Code/kl25_sc_rev10/klxx-sc-baremetal/src/common\printf.c ****             b = (int)a / (int)radix;
 165              		.loc 1 111 0
 166 003c 281C     		mov	r0, r5
 167 003e 211C     		mov	r1, r4
 168 0040 FFF7FEFF 		bl	__aeabi_idiv
 169              	.LVL22:
 112:D:/kuaipan/SEMG/MEMS_SEMG_KL25/KL25 Sample Code_I2c/KL25 Sample Code/kl25_sc_rev10/klxx-sc-baremetal/src/common\printf.c ****             c = (int)a - ((int)b * (int)radix);
 170              		.loc 1 112 0
 171 0044 211C     		mov	r1, r4
 172 0046 4143     		mul	r1, r0
 173 0048 6D1A     		sub	r5, r5, r1
 174              	.LVL23:
 119:D:/kuaipan/SEMG/MEMS_SEMG_KL25/KL25 Sample Code_I2c/KL25 Sample Code/kl25_sc_rev10/klxx-sc-baremetal/src/common\printf.c ****                 c = c + '0';
 175              		.loc 1 119 0
 176 004a 2B1C     		mov	r3, r5
 177 004c 3033     		add	r3, r3, #48
 113:D:/kuaipan/SEMG/MEMS_SEMG_KL25/KL25 Sample Code_I2c/KL25 Sample Code/kl25_sc_rev10/klxx-sc-baremetal/src/common\printf.c ****             if (c < 0)
 178              		.loc 1 113 0
 179 004e 002D     		cmp	r5, #0
 180 0050 EEDA     		bge	.L11
 181 0052 EBE7     		b	.L23
 182              	.LVL24:
 183              	.L7:
 129:D:/kuaipan/SEMG/MEMS_SEMG_KL25/KL25 Sample Code_I2c/KL25 Sample Code/kl25_sc_rev10/klxx-sc-baremetal/src/common\printf.c ****         if (ua == 0)
 184              		.loc 1 129 0
 185 0054 002D     		cmp	r5, #0
 186 0056 E2D0     		beq	.L21
 187              	.LVL25:
 188              	.L18:
 137:D:/kuaipan/SEMG/MEMS_SEMG_KL25/KL25 Sample Code_I2c/KL25 Sample Code/kl25_sc_rev10/klxx-sc-baremetal/src/common\printf.c ****             ub = (unsigned int)ua / (unsigned int)radix;
 189              		.loc 1 137 0
 190 0058 281C     		mov	r0, r5
 191 005a 211C     		mov	r1, r4
 192 005c FFF7FEFF 		bl	__aeabi_uidiv
 193              	.LVL26:
 138:D:/kuaipan/SEMG/MEMS_SEMG_KL25/KL25 Sample Code_I2c/KL25 Sample Code/kl25_sc_rev10/klxx-sc-baremetal/src/common\printf.c ****             uc = (unsigned int)ua - ((unsigned int)ub * (unsigned int)radix);
 194              		.loc 1 138 0
 195 0060 211C     		mov	r1, r4
 196 0062 4143     		mul	r1, r0
 197 0064 6D1A     		sub	r5, r5, r1
 198              	.LVL27:
 145:D:/kuaipan/SEMG/MEMS_SEMG_KL25/KL25 Sample Code_I2c/KL25 Sample Code/kl25_sc_rev10/klxx-sc-baremetal/src/common\printf.c ****                 uc = uc - 10 + 'A';
 199              		.loc 1 145 0
 200 0066 2A1C     		mov	r2, r5
 201 0068 3732     		add	r2, r2, #55
 139:D:/kuaipan/SEMG/MEMS_SEMG_KL25/KL25 Sample Code_I2c/KL25 Sample Code/kl25_sc_rev10/klxx-sc-baremetal/src/common\printf.c ****             if (uc < 10)
 202              		.loc 1 139 0
 203 006a 092D     		cmp	r5, #9
 204 006c 00D8     		bhi	.L14
 141:D:/kuaipan/SEMG/MEMS_SEMG_KL25/KL25 Sample Code_I2c/KL25 Sample Code/kl25_sc_rev10/klxx-sc-baremetal/src/common\printf.c ****                 uc = uc + '0';
 205              		.loc 1 141 0
 206 006e 073A     		sub	r2, r2, #7
 207              	.LVL28:
 208              	.L14:
 148:D:/kuaipan/SEMG/MEMS_SEMG_KL25/KL25 Sample Code_I2c/KL25 Sample Code/kl25_sc_rev10/klxx-sc-baremetal/src/common\printf.c ****             *nstrp++ = (char)uc;
 209              		.loc 1 148 0
 210 0070 BA55     		strb	r2, [r7, r6]
 149:D:/kuaipan/SEMG/MEMS_SEMG_KL25/KL25 Sample Code_I2c/KL25 Sample Code/kl25_sc_rev10/klxx-sc-baremetal/src/common\printf.c ****             ++nlen;
 211              		.loc 1 149 0
 212 0072 331C     		mov	r3, r6
 213              	.LVL29:
 147:D:/kuaipan/SEMG/MEMS_SEMG_KL25/KL25 Sample Code_I2c/KL25 Sample Code/kl25_sc_rev10/klxx-sc-baremetal/src/common\printf.c ****             ua = ub;
 214              		.loc 1 147 0
 215 0074 051C     		mov	r5, r0
 216 0076 0136     		add	r6, r6, #1
 135:D:/kuaipan/SEMG/MEMS_SEMG_KL25/KL25 Sample Code_I2c/KL25 Sample Code/kl25_sc_rev10/klxx-sc-baremetal/src/common\printf.c ****         while (ua != 0)
 217              		.loc 1 135 0
 218 0078 0028     		cmp	r0, #0
 219 007a EDD1     		bne	.L18
 220 007c D2E7     		b	.L9
 221              		.cfi_endproc
 222              	.LFE1:
 224              		.section	.text.printk_pad_space,"ax",%progbits
 225              		.align	2
 226              		.code	16
 227              		.thumb_func
 229              	printk_pad_space:
 230              	.LFB3:
 155:D:/kuaipan/SEMG/MEMS_SEMG_KL25/KL25 Sample Code_I2c/KL25 Sample Code/kl25_sc_rev10/klxx-sc-baremetal/src/common\printf.c **** 
 156:D:/kuaipan/SEMG/MEMS_SEMG_KL25/KL25 Sample Code_I2c/KL25 Sample Code/kl25_sc_rev10/klxx-sc-baremetal/src/common\printf.c **** /********************************************************************/
 157:D:/kuaipan/SEMG/MEMS_SEMG_KL25/KL25 Sample Code_I2c/KL25 Sample Code/kl25_sc_rev10/klxx-sc-baremetal/src/common\printf.c **** static void
 158:D:/kuaipan/SEMG/MEMS_SEMG_KL25/KL25 Sample Code_I2c/KL25 Sample Code/kl25_sc_rev10/klxx-sc-baremetal/src/common\printf.c **** printk_pad_zero (int curlen, int field_width, int *count, PRINTK_INFO *info)
 159:D:/kuaipan/SEMG/MEMS_SEMG_KL25/KL25 Sample Code_I2c/KL25 Sample Code/kl25_sc_rev10/klxx-sc-baremetal/src/common\printf.c **** {
 160:D:/kuaipan/SEMG/MEMS_SEMG_KL25/KL25 Sample Code_I2c/KL25 Sample Code/kl25_sc_rev10/klxx-sc-baremetal/src/common\printf.c ****     int i;
 161:D:/kuaipan/SEMG/MEMS_SEMG_KL25/KL25 Sample Code_I2c/KL25 Sample Code/kl25_sc_rev10/klxx-sc-baremetal/src/common\printf.c **** 
 162:D:/kuaipan/SEMG/MEMS_SEMG_KL25/KL25 Sample Code_I2c/KL25 Sample Code/kl25_sc_rev10/klxx-sc-baremetal/src/common\printf.c ****     for (i = curlen; i < field_width; i++)
 163:D:/kuaipan/SEMG/MEMS_SEMG_KL25/KL25 Sample Code_I2c/KL25 Sample Code/kl25_sc_rev10/klxx-sc-baremetal/src/common\printf.c ****     {
 164:D:/kuaipan/SEMG/MEMS_SEMG_KL25/KL25 Sample Code_I2c/KL25 Sample Code/kl25_sc_rev10/klxx-sc-baremetal/src/common\printf.c ****         printk_putc('0',count, info);
 165:D:/kuaipan/SEMG/MEMS_SEMG_KL25/KL25 Sample Code_I2c/KL25 Sample Code/kl25_sc_rev10/klxx-sc-baremetal/src/common\printf.c ****     }
 166:D:/kuaipan/SEMG/MEMS_SEMG_KL25/KL25 Sample Code_I2c/KL25 Sample Code/kl25_sc_rev10/klxx-sc-baremetal/src/common\printf.c **** }
 167:D:/kuaipan/SEMG/MEMS_SEMG_KL25/KL25 Sample Code_I2c/KL25 Sample Code/kl25_sc_rev10/klxx-sc-baremetal/src/common\printf.c **** 
 168:D:/kuaipan/SEMG/MEMS_SEMG_KL25/KL25 Sample Code_I2c/KL25 Sample Code/kl25_sc_rev10/klxx-sc-baremetal/src/common\printf.c **** /********************************************************************/
 169:D:/kuaipan/SEMG/MEMS_SEMG_KL25/KL25 Sample Code_I2c/KL25 Sample Code/kl25_sc_rev10/klxx-sc-baremetal/src/common\printf.c **** static void
 170:D:/kuaipan/SEMG/MEMS_SEMG_KL25/KL25 Sample Code_I2c/KL25 Sample Code/kl25_sc_rev10/klxx-sc-baremetal/src/common\printf.c **** printk_pad_space (int curlen, int field_width, int *count, PRINTK_INFO *info)
 171:D:/kuaipan/SEMG/MEMS_SEMG_KL25/KL25 Sample Code_I2c/KL25 Sample Code/kl25_sc_rev10/klxx-sc-baremetal/src/common\printf.c **** {
 231              		.loc 1 171 0
 232              		.cfi_startproc
 233              	.LVL30:
 234 0000 F0B5     		push	{r4, r5, r6, r7, lr}
 235              	.LCFI3:
 236              		.cfi_def_cfa_offset 20
 237              		.cfi_offset 4, -20
 238              		.cfi_offset 5, -16
 239              		.cfi_offset 6, -12
 240              		.cfi_offset 7, -8
 241              		.cfi_offset 14, -4
 242 0002 4746     		mov	r7, r8
 243 0004 80B4     		push	{r7}
 244              	.LCFI4:
 245              		.cfi_def_cfa_offset 24
 246              		.cfi_offset 8, -24
 247              		.loc 1 171 0
 248 0006 041C     		mov	r4, r0
 249 0008 0F1C     		mov	r7, r1
 250 000a 161C     		mov	r6, r2
 251 000c 1D1C     		mov	r5, r3
 172:D:/kuaipan/SEMG/MEMS_SEMG_KL25/KL25 Sample Code_I2c/KL25 Sample Code/kl25_sc_rev10/klxx-sc-baremetal/src/common\printf.c ****     int i;
 173:D:/kuaipan/SEMG/MEMS_SEMG_KL25/KL25 Sample Code_I2c/KL25 Sample Code/kl25_sc_rev10/klxx-sc-baremetal/src/common\printf.c **** 
 174:D:/kuaipan/SEMG/MEMS_SEMG_KL25/KL25 Sample Code_I2c/KL25 Sample Code/kl25_sc_rev10/klxx-sc-baremetal/src/common\printf.c ****     for (i = curlen; i < field_width; i++)
 252              		.loc 1 174 0
 253 000e 8842     		cmp	r0, r1
 254 0010 24DA     		bge	.L24
 255 0012 C343     		mvn	r3, r0
 256              	.LVL31:
 257 0014 5818     		add	r0, r3, r1
 258              	.LVL32:
 259 0016 0122     		mov	r2, #1
 260              	.LVL33:
 261 0018 0240     		and	r2, r0
 262 001a 9046     		mov	r8, r2
 175:D:/kuaipan/SEMG/MEMS_SEMG_KL25/KL25 Sample Code_I2c/KL25 Sample Code/kl25_sc_rev10/klxx-sc-baremetal/src/common\printf.c ****     {
 176:D:/kuaipan/SEMG/MEMS_SEMG_KL25/KL25 Sample Code_I2c/KL25 Sample Code/kl25_sc_rev10/klxx-sc-baremetal/src/common\printf.c ****         printk_putc(' ',count, info);
 263              		.loc 1 176 0
 264 001c 2020     		mov	r0, #32
 265 001e 311C     		mov	r1, r6
 266              	.LVL34:
 267 0020 2A1C     		mov	r2, r5
 174:D:/kuaipan/SEMG/MEMS_SEMG_KL25/KL25 Sample Code_I2c/KL25 Sample Code/kl25_sc_rev10/klxx-sc-baremetal/src/common\printf.c ****     for (i = curlen; i < field_width; i++)
 268              		.loc 1 174 0
 269 0022 0134     		add	r4, r4, #1
 270              	.LVL35:
 271              		.loc 1 176 0
 272 0024 FFF7FEFF 		bl	printk_putc
 273              	.LVL36:
 174:D:/kuaipan/SEMG/MEMS_SEMG_KL25/KL25 Sample Code_I2c/KL25 Sample Code/kl25_sc_rev10/klxx-sc-baremetal/src/common\printf.c ****     for (i = curlen; i < field_width; i++)
 274              		.loc 1 174 0
 275 0028 BC42     		cmp	r4, r7
 276 002a 17D0     		beq	.L24
 277 002c 4146     		mov	r1, r8
 278 002e 0029     		cmp	r1, #0
 279 0030 07D0     		beq	.L28
 280              		.loc 1 176 0
 281 0032 2020     		mov	r0, #32
 282 0034 311C     		mov	r1, r6
 283 0036 2A1C     		mov	r2, r5
 174:D:/kuaipan/SEMG/MEMS_SEMG_KL25/KL25 Sample Code_I2c/KL25 Sample Code/kl25_sc_rev10/klxx-sc-baremetal/src/common\printf.c ****     for (i = curlen; i < field_width; i++)
 284              		.loc 1 174 0
 285 0038 0134     		add	r4, r4, #1
 286              	.LVL37:
 287              		.loc 1 176 0
 288 003a FFF7FEFF 		bl	printk_putc
 289              	.LVL38:
 174:D:/kuaipan/SEMG/MEMS_SEMG_KL25/KL25 Sample Code_I2c/KL25 Sample Code/kl25_sc_rev10/klxx-sc-baremetal/src/common\printf.c ****     for (i = curlen; i < field_width; i++)
 290              		.loc 1 174 0
 291 003e BC42     		cmp	r4, r7
 292 0040 0CD0     		beq	.L24
 293              	.LVL39:
 294              	.L28:
 295              		.loc 1 176 0
 296 0042 2020     		mov	r0, #32
 297 0044 311C     		mov	r1, r6
 298 0046 2A1C     		mov	r2, r5
 299 0048 FFF7FEFF 		bl	printk_putc
 300              	.LVL40:
 174:D:/kuaipan/SEMG/MEMS_SEMG_KL25/KL25 Sample Code_I2c/KL25 Sample Code/kl25_sc_rev10/klxx-sc-baremetal/src/common\printf.c ****     for (i = curlen; i < field_width; i++)
 301              		.loc 1 174 0
 302 004c 0234     		add	r4, r4, #2
 303              		.loc 1 176 0
 304 004e 2020     		mov	r0, #32
 305 0050 311C     		mov	r1, r6
 306 0052 2A1C     		mov	r2, r5
 307 0054 FFF7FEFF 		bl	printk_putc
 308              	.LVL41:
 174:D:/kuaipan/SEMG/MEMS_SEMG_KL25/KL25 Sample Code_I2c/KL25 Sample Code/kl25_sc_rev10/klxx-sc-baremetal/src/common\printf.c ****     for (i = curlen; i < field_width; i++)
 309              		.loc 1 174 0
 310 0058 BC42     		cmp	r4, r7
 311 005a F2D1     		bne	.L28
 312              	.L24:
 177:D:/kuaipan/SEMG/MEMS_SEMG_KL25/KL25 Sample Code_I2c/KL25 Sample Code/kl25_sc_rev10/klxx-sc-baremetal/src/common\printf.c ****     }
 178:D:/kuaipan/SEMG/MEMS_SEMG_KL25/KL25 Sample Code_I2c/KL25 Sample Code/kl25_sc_rev10/klxx-sc-baremetal/src/common\printf.c **** }
 313              		.loc 1 178 0
 314              		@ sp needed for prologue
 315              	.LVL42:
 316              	.LVL43:
 317              	.LVL44:
 318 005c 04BC     		pop	{r2}
 319 005e 9046     		mov	r8, r2
 320 0060 F0BD     		pop	{r4, r5, r6, r7, pc}
 321              		.cfi_endproc
 322              	.LFE3:
 324              		.section	.text.printk,"ax",%progbits
 325              		.align	2
 326              		.global	printk
 327              		.code	16
 328              		.thumb_func
 330              	printk:
 331              	.LFB4:
 179:D:/kuaipan/SEMG/MEMS_SEMG_KL25/KL25 Sample Code_I2c/KL25 Sample Code/kl25_sc_rev10/klxx-sc-baremetal/src/common\printf.c **** 
 180:D:/kuaipan/SEMG/MEMS_SEMG_KL25/KL25 Sample Code_I2c/KL25 Sample Code/kl25_sc_rev10/klxx-sc-baremetal/src/common\printf.c **** /********************************************************************/
 181:D:/kuaipan/SEMG/MEMS_SEMG_KL25/KL25 Sample Code_I2c/KL25 Sample Code/kl25_sc_rev10/klxx-sc-baremetal/src/common\printf.c **** int
 182:D:/kuaipan/SEMG/MEMS_SEMG_KL25/KL25 Sample Code_I2c/KL25 Sample Code/kl25_sc_rev10/klxx-sc-baremetal/src/common\printf.c **** printk (PRINTK_INFO *info, const char *fmt, va_list ap)
 183:D:/kuaipan/SEMG/MEMS_SEMG_KL25/KL25 Sample Code_I2c/KL25 Sample Code/kl25_sc_rev10/klxx-sc-baremetal/src/common\printf.c **** {
 332              		.loc 1 183 0
 333              		.cfi_startproc
 334              	.LVL45:
 335 0000 F0B5     		push	{r4, r5, r6, r7, lr}
 336              	.LCFI5:
 337              		.cfi_def_cfa_offset 20
 338              		.cfi_offset 4, -20
 339              		.cfi_offset 5, -16
 340              		.cfi_offset 6, -12
 341              		.cfi_offset 7, -8
 342              		.cfi_offset 14, -4
 343 0002 5646     		mov	r6, sl
 344 0004 4446     		mov	r4, r8
 345 0006 5F46     		mov	r7, fp
 346 0008 4D46     		mov	r5, r9
 347 000a F0B4     		push	{r4, r5, r6, r7}
 348              	.LCFI6:
 349              		.cfi_def_cfa_offset 36
 350              		.cfi_offset 8, -36
 351              		.cfi_offset 9, -32
 352              		.cfi_offset 10, -28
 353              		.cfi_offset 11, -24
 354 000c 8046     		mov	r8, r0
 184:D:/kuaipan/SEMG/MEMS_SEMG_KL25/KL25 Sample Code_I2c/KL25 Sample Code/kl25_sc_rev10/klxx-sc-baremetal/src/common\printf.c ****     /* va_list ap; */
 185:D:/kuaipan/SEMG/MEMS_SEMG_KL25/KL25 Sample Code_I2c/KL25 Sample Code/kl25_sc_rev10/klxx-sc-baremetal/src/common\printf.c ****     char *p;
 186:D:/kuaipan/SEMG/MEMS_SEMG_KL25/KL25 Sample Code_I2c/KL25 Sample Code/kl25_sc_rev10/klxx-sc-baremetal/src/common\printf.c ****     int c;
 187:D:/kuaipan/SEMG/MEMS_SEMG_KL25/KL25 Sample Code_I2c/KL25 Sample Code/kl25_sc_rev10/klxx-sc-baremetal/src/common\printf.c **** 
 188:D:/kuaipan/SEMG/MEMS_SEMG_KL25/KL25 Sample Code_I2c/KL25 Sample Code/kl25_sc_rev10/klxx-sc-baremetal/src/common\printf.c ****     char vstr[33];
 189:D:/kuaipan/SEMG/MEMS_SEMG_KL25/KL25 Sample Code_I2c/KL25 Sample Code/kl25_sc_rev10/klxx-sc-baremetal/src/common\printf.c ****     char *vstrp;
 190:D:/kuaipan/SEMG/MEMS_SEMG_KL25/KL25 Sample Code_I2c/KL25 Sample Code/kl25_sc_rev10/klxx-sc-baremetal/src/common\printf.c ****     int vlen;
 191:D:/kuaipan/SEMG/MEMS_SEMG_KL25/KL25 Sample Code_I2c/KL25 Sample Code/kl25_sc_rev10/klxx-sc-baremetal/src/common\printf.c **** 
 192:D:/kuaipan/SEMG/MEMS_SEMG_KL25/KL25 Sample Code_I2c/KL25 Sample Code/kl25_sc_rev10/klxx-sc-baremetal/src/common\printf.c ****     int done;
 193:D:/kuaipan/SEMG/MEMS_SEMG_KL25/KL25 Sample Code_I2c/KL25 Sample Code/kl25_sc_rev10/klxx-sc-baremetal/src/common\printf.c ****     int count = 0;
 194:D:/kuaipan/SEMG/MEMS_SEMG_KL25/KL25 Sample Code_I2c/KL25 Sample Code/kl25_sc_rev10/klxx-sc-baremetal/src/common\printf.c **** 
 195:D:/kuaipan/SEMG/MEMS_SEMG_KL25/KL25 Sample Code_I2c/KL25 Sample Code/kl25_sc_rev10/klxx-sc-baremetal/src/common\printf.c ****     int flags_used;
 196:D:/kuaipan/SEMG/MEMS_SEMG_KL25/KL25 Sample Code_I2c/KL25 Sample Code/kl25_sc_rev10/klxx-sc-baremetal/src/common\printf.c ****     int field_width;
 197:D:/kuaipan/SEMG/MEMS_SEMG_KL25/KL25 Sample Code_I2c/KL25 Sample Code/kl25_sc_rev10/klxx-sc-baremetal/src/common\printf.c **** #if 0
 198:D:/kuaipan/SEMG/MEMS_SEMG_KL25/KL25 Sample Code_I2c/KL25 Sample Code/kl25_sc_rev10/klxx-sc-baremetal/src/common\printf.c ****     int precision_used;
 199:D:/kuaipan/SEMG/MEMS_SEMG_KL25/KL25 Sample Code_I2c/KL25 Sample Code/kl25_sc_rev10/klxx-sc-baremetal/src/common\printf.c ****     int precision_width;
 200:D:/kuaipan/SEMG/MEMS_SEMG_KL25/KL25 Sample Code_I2c/KL25 Sample Code/kl25_sc_rev10/klxx-sc-baremetal/src/common\printf.c ****     int length_modifier;
 201:D:/kuaipan/SEMG/MEMS_SEMG_KL25/KL25 Sample Code_I2c/KL25 Sample Code/kl25_sc_rev10/klxx-sc-baremetal/src/common\printf.c **** #endif
 202:D:/kuaipan/SEMG/MEMS_SEMG_KL25/KL25 Sample Code_I2c/KL25 Sample Code/kl25_sc_rev10/klxx-sc-baremetal/src/common\printf.c **** 
 203:D:/kuaipan/SEMG/MEMS_SEMG_KL25/KL25 Sample Code_I2c/KL25 Sample Code/kl25_sc_rev10/klxx-sc-baremetal/src/common\printf.c ****     int ival;
 204:D:/kuaipan/SEMG/MEMS_SEMG_KL25/KL25 Sample Code_I2c/KL25 Sample Code/kl25_sc_rev10/klxx-sc-baremetal/src/common\printf.c ****     int schar, dschar;
 205:D:/kuaipan/SEMG/MEMS_SEMG_KL25/KL25 Sample Code_I2c/KL25 Sample Code/kl25_sc_rev10/klxx-sc-baremetal/src/common\printf.c ****     int *ivalp;
 206:D:/kuaipan/SEMG/MEMS_SEMG_KL25/KL25 Sample Code_I2c/KL25 Sample Code/kl25_sc_rev10/klxx-sc-baremetal/src/common\printf.c ****     char *sval;
 207:D:/kuaipan/SEMG/MEMS_SEMG_KL25/KL25 Sample Code_I2c/KL25 Sample Code/kl25_sc_rev10/klxx-sc-baremetal/src/common\printf.c ****     int cval;
 208:D:/kuaipan/SEMG/MEMS_SEMG_KL25/KL25 Sample Code_I2c/KL25 Sample Code/kl25_sc_rev10/klxx-sc-baremetal/src/common\printf.c ****     unsigned int uval;
 209:D:/kuaipan/SEMG/MEMS_SEMG_KL25/KL25 Sample Code_I2c/KL25 Sample Code/kl25_sc_rev10/klxx-sc-baremetal/src/common\printf.c **** 
 210:D:/kuaipan/SEMG/MEMS_SEMG_KL25/KL25 Sample Code_I2c/KL25 Sample Code/kl25_sc_rev10/klxx-sc-baremetal/src/common\printf.c ****     /*
 211:D:/kuaipan/SEMG/MEMS_SEMG_KL25/KL25 Sample Code_I2c/KL25 Sample Code/kl25_sc_rev10/klxx-sc-baremetal/src/common\printf.c ****      * Start parsing apart the format string and display appropriate
 212:D:/kuaipan/SEMG/MEMS_SEMG_KL25/KL25 Sample Code_I2c/KL25 Sample Code/kl25_sc_rev10/klxx-sc-baremetal/src/common\printf.c ****      * formats and data.
 213:D:/kuaipan/SEMG/MEMS_SEMG_KL25/KL25 Sample Code_I2c/KL25 Sample Code/kl25_sc_rev10/klxx-sc-baremetal/src/common\printf.c ****      */
 214:D:/kuaipan/SEMG/MEMS_SEMG_KL25/KL25 Sample Code_I2c/KL25 Sample Code/kl25_sc_rev10/klxx-sc-baremetal/src/common\printf.c ****     for (p = (char *)fmt; (c = *p) != 0; p++)
 355              		.loc 1 214 0
 356 000e 0878     		ldrb	r0, [r1]
 357              	.LVL46:
 183:D:/kuaipan/SEMG/MEMS_SEMG_KL25/KL25 Sample Code_I2c/KL25 Sample Code/kl25_sc_rev10/klxx-sc-baremetal/src/common\printf.c **** {
 358              		.loc 1 183 0
 359 0010 91B0     		sub	sp, sp, #68
 360              	.LCFI7:
 361              		.cfi_def_cfa_offset 104
 193:D:/kuaipan/SEMG/MEMS_SEMG_KL25/KL25 Sample Code_I2c/KL25 Sample Code/kl25_sc_rev10/klxx-sc-baremetal/src/common\printf.c ****     int count = 0;
 362              		.loc 1 193 0
 363 0012 0023     		mov	r3, #0
 183:D:/kuaipan/SEMG/MEMS_SEMG_KL25/KL25 Sample Code_I2c/KL25 Sample Code/kl25_sc_rev10/klxx-sc-baremetal/src/common\printf.c **** {
 364              		.loc 1 183 0
 365 0014 9246     		mov	sl, r2
 366              	.LVL47:
 193:D:/kuaipan/SEMG/MEMS_SEMG_KL25/KL25 Sample Code_I2c/KL25 Sample Code/kl25_sc_rev10/klxx-sc-baremetal/src/common\printf.c ****     int count = 0;
 367              		.loc 1 193 0
 368 0016 0493     		str	r3, [sp, #16]
 369              	.LVL48:
 370              		.loc 1 214 0
 371 0018 0028     		cmp	r0, #0
 372 001a 00D1     		bne	.LCB362
 373 001c 4AE2     		b	.L107	@long jump
 374              	.LCB362:
 375 001e 0D1C     		mov	r5, r1
 215:D:/kuaipan/SEMG/MEMS_SEMG_KL25/KL25 Sample Code_I2c/KL25 Sample Code/kl25_sc_rev10/klxx-sc-baremetal/src/common\printf.c ****     {
 216:D:/kuaipan/SEMG/MEMS_SEMG_KL25/KL25 Sample Code_I2c/KL25 Sample Code/kl25_sc_rev10/klxx-sc-baremetal/src/common\printf.c ****         /*
 217:D:/kuaipan/SEMG/MEMS_SEMG_KL25/KL25 Sample Code_I2c/KL25 Sample Code/kl25_sc_rev10/klxx-sc-baremetal/src/common\printf.c ****          * All formats begin with a '%' marker.  Special chars like
 218:D:/kuaipan/SEMG/MEMS_SEMG_KL25/KL25 Sample Code_I2c/KL25 Sample Code/kl25_sc_rev10/klxx-sc-baremetal/src/common\printf.c ****          * '\n' or '\t' are normally converted to the appropriate
 219:D:/kuaipan/SEMG/MEMS_SEMG_KL25/KL25 Sample Code_I2c/KL25 Sample Code/kl25_sc_rev10/klxx-sc-baremetal/src/common\printf.c ****          * character by the __compiler__.  Thus, no need for this
 220:D:/kuaipan/SEMG/MEMS_SEMG_KL25/KL25 Sample Code_I2c/KL25 Sample Code/kl25_sc_rev10/klxx-sc-baremetal/src/common\printf.c ****          * routine to account for the '\' character.
 221:D:/kuaipan/SEMG/MEMS_SEMG_KL25/KL25 Sample Code_I2c/KL25 Sample Code/kl25_sc_rev10/klxx-sc-baremetal/src/common\printf.c ****          */
 222:D:/kuaipan/SEMG/MEMS_SEMG_KL25/KL25 Sample Code_I2c/KL25 Sample Code/kl25_sc_rev10/klxx-sc-baremetal/src/common\printf.c ****         if (c != '%')
 223:D:/kuaipan/SEMG/MEMS_SEMG_KL25/KL25 Sample Code_I2c/KL25 Sample Code/kl25_sc_rev10/klxx-sc-baremetal/src/common\printf.c ****         {
 224:D:/kuaipan/SEMG/MEMS_SEMG_KL25/KL25 Sample Code_I2c/KL25 Sample Code/kl25_sc_rev10/klxx-sc-baremetal/src/common\printf.c ****             /*
 225:D:/kuaipan/SEMG/MEMS_SEMG_KL25/KL25 Sample Code_I2c/KL25 Sample Code/kl25_sc_rev10/klxx-sc-baremetal/src/common\printf.c ****              * This needs to be replaced with something like
 226:D:/kuaipan/SEMG/MEMS_SEMG_KL25/KL25 Sample Code_I2c/KL25 Sample Code/kl25_sc_rev10/klxx-sc-baremetal/src/common\printf.c ****              * 'out_char()' or call an OS routine.
 227:D:/kuaipan/SEMG/MEMS_SEMG_KL25/KL25 Sample Code_I2c/KL25 Sample Code/kl25_sc_rev10/klxx-sc-baremetal/src/common\printf.c ****              */
 228:D:/kuaipan/SEMG/MEMS_SEMG_KL25/KL25 Sample Code_I2c/KL25 Sample Code/kl25_sc_rev10/klxx-sc-baremetal/src/common\printf.c **** #ifndef UNIX_DEBUG
 229:D:/kuaipan/SEMG/MEMS_SEMG_KL25/KL25 Sample Code_I2c/KL25 Sample Code/kl25_sc_rev10/klxx-sc-baremetal/src/common\printf.c ****             if (c != '\n')
 230:D:/kuaipan/SEMG/MEMS_SEMG_KL25/KL25 Sample Code_I2c/KL25 Sample Code/kl25_sc_rev10/klxx-sc-baremetal/src/common\printf.c ****             {
 231:D:/kuaipan/SEMG/MEMS_SEMG_KL25/KL25 Sample Code_I2c/KL25 Sample Code/kl25_sc_rev10/klxx-sc-baremetal/src/common\printf.c ****                 printk_putc(c, &count, info);
 232:D:/kuaipan/SEMG/MEMS_SEMG_KL25/KL25 Sample Code_I2c/KL25 Sample Code/kl25_sc_rev10/klxx-sc-baremetal/src/common\printf.c ****             }
 233:D:/kuaipan/SEMG/MEMS_SEMG_KL25/KL25 Sample Code_I2c/KL25 Sample Code/kl25_sc_rev10/klxx-sc-baremetal/src/common\printf.c ****             else
 234:D:/kuaipan/SEMG/MEMS_SEMG_KL25/KL25 Sample Code_I2c/KL25 Sample Code/kl25_sc_rev10/klxx-sc-baremetal/src/common\printf.c ****             {
 235:D:/kuaipan/SEMG/MEMS_SEMG_KL25/KL25 Sample Code_I2c/KL25 Sample Code/kl25_sc_rev10/klxx-sc-baremetal/src/common\printf.c ****                 printk_putc(0x0D /* CR */, &count, info);
 236:D:/kuaipan/SEMG/MEMS_SEMG_KL25/KL25 Sample Code_I2c/KL25 Sample Code/kl25_sc_rev10/klxx-sc-baremetal/src/common\printf.c ****                 printk_putc(0x0A /* LF */, &count, info);
 237:D:/kuaipan/SEMG/MEMS_SEMG_KL25/KL25 Sample Code_I2c/KL25 Sample Code/kl25_sc_rev10/klxx-sc-baremetal/src/common\printf.c ****             }
 238:D:/kuaipan/SEMG/MEMS_SEMG_KL25/KL25 Sample Code_I2c/KL25 Sample Code/kl25_sc_rev10/klxx-sc-baremetal/src/common\printf.c **** #else
 239:D:/kuaipan/SEMG/MEMS_SEMG_KL25/KL25 Sample Code_I2c/KL25 Sample Code/kl25_sc_rev10/klxx-sc-baremetal/src/common\printf.c ****             printk_putc(c, &count, info);
 240:D:/kuaipan/SEMG/MEMS_SEMG_KL25/KL25 Sample Code_I2c/KL25 Sample Code/kl25_sc_rev10/klxx-sc-baremetal/src/common\printf.c **** #endif
 241:D:/kuaipan/SEMG/MEMS_SEMG_KL25/KL25 Sample Code_I2c/KL25 Sample Code/kl25_sc_rev10/klxx-sc-baremetal/src/common\printf.c **** 
 242:D:/kuaipan/SEMG/MEMS_SEMG_KL25/KL25 Sample Code_I2c/KL25 Sample Code/kl25_sc_rev10/klxx-sc-baremetal/src/common\printf.c ****             /*
 243:D:/kuaipan/SEMG/MEMS_SEMG_KL25/KL25 Sample Code_I2c/KL25 Sample Code/kl25_sc_rev10/klxx-sc-baremetal/src/common\printf.c ****              * By using 'continue', the next iteration of the loop
 244:D:/kuaipan/SEMG/MEMS_SEMG_KL25/KL25 Sample Code_I2c/KL25 Sample Code/kl25_sc_rev10/klxx-sc-baremetal/src/common\printf.c ****              * is used, skipping the code that follows.
 245:D:/kuaipan/SEMG/MEMS_SEMG_KL25/KL25 Sample Code_I2c/KL25 Sample Code/kl25_sc_rev10/klxx-sc-baremetal/src/common\printf.c ****              */
 246:D:/kuaipan/SEMG/MEMS_SEMG_KL25/KL25 Sample Code_I2c/KL25 Sample Code/kl25_sc_rev10/klxx-sc-baremetal/src/common\printf.c ****             continue;
 247:D:/kuaipan/SEMG/MEMS_SEMG_KL25/KL25 Sample Code_I2c/KL25 Sample Code/kl25_sc_rev10/klxx-sc-baremetal/src/common\printf.c ****         }
 248:D:/kuaipan/SEMG/MEMS_SEMG_KL25/KL25 Sample Code_I2c/KL25 Sample Code/kl25_sc_rev10/klxx-sc-baremetal/src/common\printf.c **** 
 249:D:/kuaipan/SEMG/MEMS_SEMG_KL25/KL25 Sample Code_I2c/KL25 Sample Code/kl25_sc_rev10/klxx-sc-baremetal/src/common\printf.c ****         /*
 250:D:/kuaipan/SEMG/MEMS_SEMG_KL25/KL25 Sample Code_I2c/KL25 Sample Code/kl25_sc_rev10/klxx-sc-baremetal/src/common\printf.c ****          * First check for specification modifier flags.
 251:D:/kuaipan/SEMG/MEMS_SEMG_KL25/KL25 Sample Code_I2c/KL25 Sample Code/kl25_sc_rev10/klxx-sc-baremetal/src/common\printf.c ****          */
 252:D:/kuaipan/SEMG/MEMS_SEMG_KL25/KL25 Sample Code_I2c/KL25 Sample Code/kl25_sc_rev10/klxx-sc-baremetal/src/common\printf.c ****         flags_used = 0;
 253:D:/kuaipan/SEMG/MEMS_SEMG_KL25/KL25 Sample Code_I2c/KL25 Sample Code/kl25_sc_rev10/klxx-sc-baremetal/src/common\printf.c ****         done = FALSE;
 254:D:/kuaipan/SEMG/MEMS_SEMG_KL25/KL25 Sample Code_I2c/KL25 Sample Code/kl25_sc_rev10/klxx-sc-baremetal/src/common\printf.c ****         while (!done)
 255:D:/kuaipan/SEMG/MEMS_SEMG_KL25/KL25 Sample Code_I2c/KL25 Sample Code/kl25_sc_rev10/klxx-sc-baremetal/src/common\printf.c ****         {
 256:D:/kuaipan/SEMG/MEMS_SEMG_KL25/KL25 Sample Code_I2c/KL25 Sample Code/kl25_sc_rev10/klxx-sc-baremetal/src/common\printf.c ****             switch (/* c = */ *++p)
 376              		.loc 1 256 0
 377 0020 BA49     		ldr	r1, .L184
 378              	.LVL49:
 379 0022 8946     		mov	r9, r1
 380 0024 0AE0     		b	.L99
 381              	.LVL50:
 382              	.L39:
 229:D:/kuaipan/SEMG/MEMS_SEMG_KL25/KL25 Sample Code_I2c/KL25 Sample Code/kl25_sc_rev10/klxx-sc-baremetal/src/common\printf.c ****             if (c != '\n')
 383              		.loc 1 229 0
 384 0026 0A28     		cmp	r0, #10
 385 0028 6DD0     		beq	.L41
 386              	.LVL51:
 387              	.L171:
 236:D:/kuaipan/SEMG/MEMS_SEMG_KL25/KL25 Sample Code_I2c/KL25 Sample Code/kl25_sc_rev10/klxx-sc-baremetal/src/common\printf.c ****                 printk_putc(0x0A /* LF */, &count, info);
 388              		.loc 1 236 0
 389 002a 04A9     		add	r1, sp, #16
 390 002c 4246     		mov	r2, r8
 391              	.LVL52:
 392 002e FFF7FEFF 		bl	printk_putc
 393              	.LVL53:
 394 0032 2C1C     		mov	r4, r5
 395              	.LVL54:
 396              	.L42:
 214:D:/kuaipan/SEMG/MEMS_SEMG_KL25/KL25 Sample Code_I2c/KL25 Sample Code/kl25_sc_rev10/klxx-sc-baremetal/src/common\printf.c ****     for (p = (char *)fmt; (c = *p) != 0; p++)
 397              		.loc 1 214 0
 398 0034 6078     		ldrb	r0, [r4, #1]
 399 0036 651C     		add	r5, r4, #1
 400              	.LVL55:
 401 0038 0028     		cmp	r0, #0
 402 003a 2BD0     		beq	.L172
 403              	.LVL56:
 404              	.L99:
 222:D:/kuaipan/SEMG/MEMS_SEMG_KL25/KL25 Sample Code_I2c/KL25 Sample Code/kl25_sc_rev10/klxx-sc-baremetal/src/common\printf.c ****         if (c != '%')
 405              		.loc 1 222 0
 406 003c 2528     		cmp	r0, #37
 407 003e F2D1     		bne	.L39
 257:D:/kuaipan/SEMG/MEMS_SEMG_KL25/KL25 Sample Code_I2c/KL25 Sample Code/kl25_sc_rev10/klxx-sc-baremetal/src/common\printf.c ****             {
 258:D:/kuaipan/SEMG/MEMS_SEMG_KL25/KL25 Sample Code_I2c/KL25 Sample Code/kl25_sc_rev10/klxx-sc-baremetal/src/common\printf.c ****                 case '-':
 259:D:/kuaipan/SEMG/MEMS_SEMG_KL25/KL25 Sample Code_I2c/KL25 Sample Code/kl25_sc_rev10/klxx-sc-baremetal/src/common\printf.c ****                     flags_used |= FLAGS_MINUS;
 260:D:/kuaipan/SEMG/MEMS_SEMG_KL25/KL25 Sample Code_I2c/KL25 Sample Code/kl25_sc_rev10/klxx-sc-baremetal/src/common\printf.c ****                     break;
 261:D:/kuaipan/SEMG/MEMS_SEMG_KL25/KL25 Sample Code_I2c/KL25 Sample Code/kl25_sc_rev10/klxx-sc-baremetal/src/common\printf.c ****                 case '+':
 262:D:/kuaipan/SEMG/MEMS_SEMG_KL25/KL25 Sample Code_I2c/KL25 Sample Code/kl25_sc_rev10/klxx-sc-baremetal/src/common\printf.c ****                     flags_used |= FLAGS_PLUS;
 263:D:/kuaipan/SEMG/MEMS_SEMG_KL25/KL25 Sample Code_I2c/KL25 Sample Code/kl25_sc_rev10/klxx-sc-baremetal/src/common\printf.c ****                     break;
 264:D:/kuaipan/SEMG/MEMS_SEMG_KL25/KL25 Sample Code_I2c/KL25 Sample Code/kl25_sc_rev10/klxx-sc-baremetal/src/common\printf.c ****                 case ' ':
 265:D:/kuaipan/SEMG/MEMS_SEMG_KL25/KL25 Sample Code_I2c/KL25 Sample Code/kl25_sc_rev10/klxx-sc-baremetal/src/common\printf.c ****                     flags_used |= FLAGS_SPACE;
 266:D:/kuaipan/SEMG/MEMS_SEMG_KL25/KL25 Sample Code_I2c/KL25 Sample Code/kl25_sc_rev10/klxx-sc-baremetal/src/common\printf.c ****                     break;
 267:D:/kuaipan/SEMG/MEMS_SEMG_KL25/KL25 Sample Code_I2c/KL25 Sample Code/kl25_sc_rev10/klxx-sc-baremetal/src/common\printf.c ****                 case '0':
 268:D:/kuaipan/SEMG/MEMS_SEMG_KL25/KL25 Sample Code_I2c/KL25 Sample Code/kl25_sc_rev10/klxx-sc-baremetal/src/common\printf.c ****                     flags_used |= FLAGS_ZERO;
 269:D:/kuaipan/SEMG/MEMS_SEMG_KL25/KL25 Sample Code_I2c/KL25 Sample Code/kl25_sc_rev10/klxx-sc-baremetal/src/common\printf.c ****                     break;
 270:D:/kuaipan/SEMG/MEMS_SEMG_KL25/KL25 Sample Code_I2c/KL25 Sample Code/kl25_sc_rev10/klxx-sc-baremetal/src/common\printf.c ****                 case '#':
 271:D:/kuaipan/SEMG/MEMS_SEMG_KL25/KL25 Sample Code_I2c/KL25 Sample Code/kl25_sc_rev10/klxx-sc-baremetal/src/common\printf.c ****                     flags_used |= FLAGS_POUND;
 408              		.loc 1 271 0
 409 0040 1022     		mov	r2, #16
 410              	.LVL57:
 268:D:/kuaipan/SEMG/MEMS_SEMG_KL25/KL25 Sample Code_I2c/KL25 Sample Code/kl25_sc_rev10/klxx-sc-baremetal/src/common\printf.c ****                     flags_used |= FLAGS_ZERO;
 411              		.loc 1 268 0
 412 0042 0820     		mov	r0, #8
 413              	.LVL58:
 222:D:/kuaipan/SEMG/MEMS_SEMG_KL25/KL25 Sample Code_I2c/KL25 Sample Code/kl25_sc_rev10/klxx-sc-baremetal/src/common\printf.c ****         if (c != '%')
 414              		.loc 1 222 0
 415 0044 0026     		mov	r6, #0
 416              		.loc 1 271 0
 417 0046 9346     		mov	fp, r2
 268:D:/kuaipan/SEMG/MEMS_SEMG_KL25/KL25 Sample Code_I2c/KL25 Sample Code/kl25_sc_rev10/klxx-sc-baremetal/src/common\printf.c ****                     flags_used |= FLAGS_ZERO;
 418              		.loc 1 268 0
 419 0048 8446     		mov	ip, r0
 265:D:/kuaipan/SEMG/MEMS_SEMG_KL25/KL25 Sample Code_I2c/KL25 Sample Code/kl25_sc_rev10/klxx-sc-baremetal/src/common\printf.c ****                     flags_used |= FLAGS_SPACE;
 420              		.loc 1 265 0
 421 004a 0427     		mov	r7, #4
 262:D:/kuaipan/SEMG/MEMS_SEMG_KL25/KL25 Sample Code_I2c/KL25 Sample Code/kl25_sc_rev10/klxx-sc-baremetal/src/common\printf.c ****                     flags_used |= FLAGS_PLUS;
 422              		.loc 1 262 0
 423 004c 0224     		mov	r4, #2
 424              	.LVL59:
 425              	.L40:
 256:D:/kuaipan/SEMG/MEMS_SEMG_KL25/KL25 Sample Code_I2c/KL25 Sample Code/kl25_sc_rev10/klxx-sc-baremetal/src/common\printf.c ****             switch (/* c = */ *++p)
 426              		.loc 1 256 0
 427 004e 6878     		ldrb	r0, [r5, #1]
 428 0050 2B1C     		mov	r3, r5
 429              	.LVL60:
 430 0052 011C     		mov	r1, r0
 431 0054 2039     		sub	r1, r1, #32
 432 0056 CAB2     		uxtb	r2, r1
 433 0058 102A     		cmp	r2, #16
 434 005a 23D9     		bls	.L173
 435              	.L49:
 436              	.LVL61:
 437 005c 0027     		mov	r7, #0
 438              	.LVL62:
 439              	.L51:
 272:D:/kuaipan/SEMG/MEMS_SEMG_KL25/KL25 Sample Code_I2c/KL25 Sample Code/kl25_sc_rev10/klxx-sc-baremetal/src/common\printf.c ****                     break;
 273:D:/kuaipan/SEMG/MEMS_SEMG_KL25/KL25 Sample Code_I2c/KL25 Sample Code/kl25_sc_rev10/klxx-sc-baremetal/src/common\printf.c ****                 default:
 274:D:/kuaipan/SEMG/MEMS_SEMG_KL25/KL25 Sample Code_I2c/KL25 Sample Code/kl25_sc_rev10/klxx-sc-baremetal/src/common\printf.c ****                     /* we've gone one char too far */
 275:D:/kuaipan/SEMG/MEMS_SEMG_KL25/KL25 Sample Code_I2c/KL25 Sample Code/kl25_sc_rev10/klxx-sc-baremetal/src/common\printf.c ****                     --p;
 276:D:/kuaipan/SEMG/MEMS_SEMG_KL25/KL25 Sample Code_I2c/KL25 Sample Code/kl25_sc_rev10/klxx-sc-baremetal/src/common\printf.c ****                     done = TRUE;
 277:D:/kuaipan/SEMG/MEMS_SEMG_KL25/KL25 Sample Code_I2c/KL25 Sample Code/kl25_sc_rev10/klxx-sc-baremetal/src/common\printf.c ****                     break;
 278:D:/kuaipan/SEMG/MEMS_SEMG_KL25/KL25 Sample Code_I2c/KL25 Sample Code/kl25_sc_rev10/klxx-sc-baremetal/src/common\printf.c ****             }
 279:D:/kuaipan/SEMG/MEMS_SEMG_KL25/KL25 Sample Code_I2c/KL25 Sample Code/kl25_sc_rev10/klxx-sc-baremetal/src/common\printf.c ****         }
 280:D:/kuaipan/SEMG/MEMS_SEMG_KL25/KL25 Sample Code_I2c/KL25 Sample Code/kl25_sc_rev10/klxx-sc-baremetal/src/common\printf.c **** 
 281:D:/kuaipan/SEMG/MEMS_SEMG_KL25/KL25 Sample Code_I2c/KL25 Sample Code/kl25_sc_rev10/klxx-sc-baremetal/src/common\printf.c ****         /*
 282:D:/kuaipan/SEMG/MEMS_SEMG_KL25/KL25 Sample Code_I2c/KL25 Sample Code/kl25_sc_rev10/klxx-sc-baremetal/src/common\printf.c ****          * Next check for minimum field width.
 283:D:/kuaipan/SEMG/MEMS_SEMG_KL25/KL25 Sample Code_I2c/KL25 Sample Code/kl25_sc_rev10/klxx-sc-baremetal/src/common\printf.c ****          */
 284:D:/kuaipan/SEMG/MEMS_SEMG_KL25/KL25 Sample Code_I2c/KL25 Sample Code/kl25_sc_rev10/klxx-sc-baremetal/src/common\printf.c ****         field_width = 0;
 285:D:/kuaipan/SEMG/MEMS_SEMG_KL25/KL25 Sample Code_I2c/KL25 Sample Code/kl25_sc_rev10/klxx-sc-baremetal/src/common\printf.c ****         done = FALSE;
 286:D:/kuaipan/SEMG/MEMS_SEMG_KL25/KL25 Sample Code_I2c/KL25 Sample Code/kl25_sc_rev10/klxx-sc-baremetal/src/common\printf.c ****         while (!done)
 287:D:/kuaipan/SEMG/MEMS_SEMG_KL25/KL25 Sample Code_I2c/KL25 Sample Code/kl25_sc_rev10/klxx-sc-baremetal/src/common\printf.c ****         {
 288:D:/kuaipan/SEMG/MEMS_SEMG_KL25/KL25 Sample Code_I2c/KL25 Sample Code/kl25_sc_rev10/klxx-sc-baremetal/src/common\printf.c ****             switch (c = *++p)
 440              		.loc 1 288 0
 441 005e 051C     		mov	r5, r0
 442 0060 303D     		sub	r5, r5, #48
 443 0062 EAB2     		uxtb	r2, r5
 444 0064 5C1C     		add	r4, r3, #1
 445              	.LVL63:
 446 0066 092A     		cmp	r2, #9
 447 0068 46D9     		bls	.L156
 448              	.LVL64:
 289:D:/kuaipan/SEMG/MEMS_SEMG_KL25/KL25 Sample Code_I2c/KL25 Sample Code/kl25_sc_rev10/klxx-sc-baremetal/src/common\printf.c ****             {
 290:D:/kuaipan/SEMG/MEMS_SEMG_KL25/KL25 Sample Code_I2c/KL25 Sample Code/kl25_sc_rev10/klxx-sc-baremetal/src/common\printf.c ****                 case '0':
 291:D:/kuaipan/SEMG/MEMS_SEMG_KL25/KL25 Sample Code_I2c/KL25 Sample Code/kl25_sc_rev10/klxx-sc-baremetal/src/common\printf.c ****                 case '1':
 292:D:/kuaipan/SEMG/MEMS_SEMG_KL25/KL25 Sample Code_I2c/KL25 Sample Code/kl25_sc_rev10/klxx-sc-baremetal/src/common\printf.c ****                 case '2':
 293:D:/kuaipan/SEMG/MEMS_SEMG_KL25/KL25 Sample Code_I2c/KL25 Sample Code/kl25_sc_rev10/klxx-sc-baremetal/src/common\printf.c ****                 case '3':
 294:D:/kuaipan/SEMG/MEMS_SEMG_KL25/KL25 Sample Code_I2c/KL25 Sample Code/kl25_sc_rev10/klxx-sc-baremetal/src/common\printf.c ****                 case '4':
 295:D:/kuaipan/SEMG/MEMS_SEMG_KL25/KL25 Sample Code_I2c/KL25 Sample Code/kl25_sc_rev10/klxx-sc-baremetal/src/common\printf.c ****                 case '5':
 296:D:/kuaipan/SEMG/MEMS_SEMG_KL25/KL25 Sample Code_I2c/KL25 Sample Code/kl25_sc_rev10/klxx-sc-baremetal/src/common\printf.c ****                 case '6':
 297:D:/kuaipan/SEMG/MEMS_SEMG_KL25/KL25 Sample Code_I2c/KL25 Sample Code/kl25_sc_rev10/klxx-sc-baremetal/src/common\printf.c ****                 case '7':
 298:D:/kuaipan/SEMG/MEMS_SEMG_KL25/KL25 Sample Code_I2c/KL25 Sample Code/kl25_sc_rev10/klxx-sc-baremetal/src/common\printf.c ****                 case '8':
 299:D:/kuaipan/SEMG/MEMS_SEMG_KL25/KL25 Sample Code_I2c/KL25 Sample Code/kl25_sc_rev10/klxx-sc-baremetal/src/common\printf.c ****                 case '9':
 300:D:/kuaipan/SEMG/MEMS_SEMG_KL25/KL25 Sample Code_I2c/KL25 Sample Code/kl25_sc_rev10/klxx-sc-baremetal/src/common\printf.c ****                     field_width = (field_width * 10) + (c - '0');
 301:D:/kuaipan/SEMG/MEMS_SEMG_KL25/KL25 Sample Code_I2c/KL25 Sample Code/kl25_sc_rev10/klxx-sc-baremetal/src/common\printf.c ****                     break;
 302:D:/kuaipan/SEMG/MEMS_SEMG_KL25/KL25 Sample Code_I2c/KL25 Sample Code/kl25_sc_rev10/klxx-sc-baremetal/src/common\printf.c ****                 default:
 303:D:/kuaipan/SEMG/MEMS_SEMG_KL25/KL25 Sample Code_I2c/KL25 Sample Code/kl25_sc_rev10/klxx-sc-baremetal/src/common\printf.c ****                     /* we've gone one char too far */
 304:D:/kuaipan/SEMG/MEMS_SEMG_KL25/KL25 Sample Code_I2c/KL25 Sample Code/kl25_sc_rev10/klxx-sc-baremetal/src/common\printf.c ****                     --p;
 305:D:/kuaipan/SEMG/MEMS_SEMG_KL25/KL25 Sample Code_I2c/KL25 Sample Code/kl25_sc_rev10/klxx-sc-baremetal/src/common\printf.c ****                     done = TRUE;
 306:D:/kuaipan/SEMG/MEMS_SEMG_KL25/KL25 Sample Code_I2c/KL25 Sample Code/kl25_sc_rev10/klxx-sc-baremetal/src/common\printf.c ****                     break;
 307:D:/kuaipan/SEMG/MEMS_SEMG_KL25/KL25 Sample Code_I2c/KL25 Sample Code/kl25_sc_rev10/klxx-sc-baremetal/src/common\printf.c ****             }
 308:D:/kuaipan/SEMG/MEMS_SEMG_KL25/KL25 Sample Code_I2c/KL25 Sample Code/kl25_sc_rev10/klxx-sc-baremetal/src/common\printf.c ****         }
 309:D:/kuaipan/SEMG/MEMS_SEMG_KL25/KL25 Sample Code_I2c/KL25 Sample Code/kl25_sc_rev10/klxx-sc-baremetal/src/common\printf.c **** 
 310:D:/kuaipan/SEMG/MEMS_SEMG_KL25/KL25 Sample Code_I2c/KL25 Sample Code/kl25_sc_rev10/klxx-sc-baremetal/src/common\printf.c ****         /*
 311:D:/kuaipan/SEMG/MEMS_SEMG_KL25/KL25 Sample Code_I2c/KL25 Sample Code/kl25_sc_rev10/klxx-sc-baremetal/src/common\printf.c ****          * Next check for the width and precision field separator.
 312:D:/kuaipan/SEMG/MEMS_SEMG_KL25/KL25 Sample Code_I2c/KL25 Sample Code/kl25_sc_rev10/klxx-sc-baremetal/src/common\printf.c ****          */
 313:D:/kuaipan/SEMG/MEMS_SEMG_KL25/KL25 Sample Code_I2c/KL25 Sample Code/kl25_sc_rev10/klxx-sc-baremetal/src/common\printf.c ****         if (*++p == '.')
 449              		.loc 1 313 0
 450 006a 2E28     		cmp	r0, #46
 451 006c 1ED0     		beq	.L157
 314:D:/kuaipan/SEMG/MEMS_SEMG_KL25/KL25 Sample Code_I2c/KL25 Sample Code/kl25_sc_rev10/klxx-sc-baremetal/src/common\printf.c ****         {
 315:D:/kuaipan/SEMG/MEMS_SEMG_KL25/KL25 Sample Code_I2c/KL25 Sample Code/kl25_sc_rev10/klxx-sc-baremetal/src/common\printf.c **** 
 316:D:/kuaipan/SEMG/MEMS_SEMG_KL25/KL25 Sample Code_I2c/KL25 Sample Code/kl25_sc_rev10/klxx-sc-baremetal/src/common\printf.c ****             /*
 317:D:/kuaipan/SEMG/MEMS_SEMG_KL25/KL25 Sample Code_I2c/KL25 Sample Code/kl25_sc_rev10/klxx-sc-baremetal/src/common\printf.c ****              * Must get precision field width, if present.
 318:D:/kuaipan/SEMG/MEMS_SEMG_KL25/KL25 Sample Code_I2c/KL25 Sample Code/kl25_sc_rev10/klxx-sc-baremetal/src/common\printf.c ****              */
 319:D:/kuaipan/SEMG/MEMS_SEMG_KL25/KL25 Sample Code_I2c/KL25 Sample Code/kl25_sc_rev10/klxx-sc-baremetal/src/common\printf.c ****             done = FALSE;
 320:D:/kuaipan/SEMG/MEMS_SEMG_KL25/KL25 Sample Code_I2c/KL25 Sample Code/kl25_sc_rev10/klxx-sc-baremetal/src/common\printf.c ****             while (!done)
 321:D:/kuaipan/SEMG/MEMS_SEMG_KL25/KL25 Sample Code_I2c/KL25 Sample Code/kl25_sc_rev10/klxx-sc-baremetal/src/common\printf.c ****             {
 322:D:/kuaipan/SEMG/MEMS_SEMG_KL25/KL25 Sample Code_I2c/KL25 Sample Code/kl25_sc_rev10/klxx-sc-baremetal/src/common\printf.c ****                 switch (/* c = uncomment if used below */ *++p)
 323:D:/kuaipan/SEMG/MEMS_SEMG_KL25/KL25 Sample Code_I2c/KL25 Sample Code/kl25_sc_rev10/klxx-sc-baremetal/src/common\printf.c ****                 {
 324:D:/kuaipan/SEMG/MEMS_SEMG_KL25/KL25 Sample Code_I2c/KL25 Sample Code/kl25_sc_rev10/klxx-sc-baremetal/src/common\printf.c ****                     case '0':
 325:D:/kuaipan/SEMG/MEMS_SEMG_KL25/KL25 Sample Code_I2c/KL25 Sample Code/kl25_sc_rev10/klxx-sc-baremetal/src/common\printf.c ****                     case '1':
 326:D:/kuaipan/SEMG/MEMS_SEMG_KL25/KL25 Sample Code_I2c/KL25 Sample Code/kl25_sc_rev10/klxx-sc-baremetal/src/common\printf.c ****                     case '2':
 327:D:/kuaipan/SEMG/MEMS_SEMG_KL25/KL25 Sample Code_I2c/KL25 Sample Code/kl25_sc_rev10/klxx-sc-baremetal/src/common\printf.c ****                     case '3':
 328:D:/kuaipan/SEMG/MEMS_SEMG_KL25/KL25 Sample Code_I2c/KL25 Sample Code/kl25_sc_rev10/klxx-sc-baremetal/src/common\printf.c ****                     case '4':
 329:D:/kuaipan/SEMG/MEMS_SEMG_KL25/KL25 Sample Code_I2c/KL25 Sample Code/kl25_sc_rev10/klxx-sc-baremetal/src/common\printf.c ****                     case '5':
 330:D:/kuaipan/SEMG/MEMS_SEMG_KL25/KL25 Sample Code_I2c/KL25 Sample Code/kl25_sc_rev10/klxx-sc-baremetal/src/common\printf.c ****                     case '6':
 331:D:/kuaipan/SEMG/MEMS_SEMG_KL25/KL25 Sample Code_I2c/KL25 Sample Code/kl25_sc_rev10/klxx-sc-baremetal/src/common\printf.c ****                     case '7':
 332:D:/kuaipan/SEMG/MEMS_SEMG_KL25/KL25 Sample Code_I2c/KL25 Sample Code/kl25_sc_rev10/klxx-sc-baremetal/src/common\printf.c ****                     case '8':
 333:D:/kuaipan/SEMG/MEMS_SEMG_KL25/KL25 Sample Code_I2c/KL25 Sample Code/kl25_sc_rev10/klxx-sc-baremetal/src/common\printf.c ****                     case '9':
 334:D:/kuaipan/SEMG/MEMS_SEMG_KL25/KL25 Sample Code_I2c/KL25 Sample Code/kl25_sc_rev10/klxx-sc-baremetal/src/common\printf.c **** #if 0
 335:D:/kuaipan/SEMG/MEMS_SEMG_KL25/KL25 Sample Code_I2c/KL25 Sample Code/kl25_sc_rev10/klxx-sc-baremetal/src/common\printf.c ****                         precision_width = (precision_width * 10) +
 336:D:/kuaipan/SEMG/MEMS_SEMG_KL25/KL25 Sample Code_I2c/KL25 Sample Code/kl25_sc_rev10/klxx-sc-baremetal/src/common\printf.c ****                             (c - '0');
 337:D:/kuaipan/SEMG/MEMS_SEMG_KL25/KL25 Sample Code_I2c/KL25 Sample Code/kl25_sc_rev10/klxx-sc-baremetal/src/common\printf.c **** #endif
 338:D:/kuaipan/SEMG/MEMS_SEMG_KL25/KL25 Sample Code_I2c/KL25 Sample Code/kl25_sc_rev10/klxx-sc-baremetal/src/common\printf.c ****                         break;
 339:D:/kuaipan/SEMG/MEMS_SEMG_KL25/KL25 Sample Code_I2c/KL25 Sample Code/kl25_sc_rev10/klxx-sc-baremetal/src/common\printf.c ****                     default:
 340:D:/kuaipan/SEMG/MEMS_SEMG_KL25/KL25 Sample Code_I2c/KL25 Sample Code/kl25_sc_rev10/klxx-sc-baremetal/src/common\printf.c ****                         /* we've gone one char too far */
 341:D:/kuaipan/SEMG/MEMS_SEMG_KL25/KL25 Sample Code_I2c/KL25 Sample Code/kl25_sc_rev10/klxx-sc-baremetal/src/common\printf.c ****                         --p;
 342:D:/kuaipan/SEMG/MEMS_SEMG_KL25/KL25 Sample Code_I2c/KL25 Sample Code/kl25_sc_rev10/klxx-sc-baremetal/src/common\printf.c ****                         done = TRUE;
 343:D:/kuaipan/SEMG/MEMS_SEMG_KL25/KL25 Sample Code_I2c/KL25 Sample Code/kl25_sc_rev10/klxx-sc-baremetal/src/common\printf.c ****                         break;
 344:D:/kuaipan/SEMG/MEMS_SEMG_KL25/KL25 Sample Code_I2c/KL25 Sample Code/kl25_sc_rev10/klxx-sc-baremetal/src/common\printf.c ****                 }
 345:D:/kuaipan/SEMG/MEMS_SEMG_KL25/KL25 Sample Code_I2c/KL25 Sample Code/kl25_sc_rev10/klxx-sc-baremetal/src/common\printf.c ****             }
 346:D:/kuaipan/SEMG/MEMS_SEMG_KL25/KL25 Sample Code_I2c/KL25 Sample Code/kl25_sc_rev10/klxx-sc-baremetal/src/common\printf.c ****         }
 347:D:/kuaipan/SEMG/MEMS_SEMG_KL25/KL25 Sample Code_I2c/KL25 Sample Code/kl25_sc_rev10/klxx-sc-baremetal/src/common\printf.c ****         else
 348:D:/kuaipan/SEMG/MEMS_SEMG_KL25/KL25 Sample Code_I2c/KL25 Sample Code/kl25_sc_rev10/klxx-sc-baremetal/src/common\printf.c ****         {
 349:D:/kuaipan/SEMG/MEMS_SEMG_KL25/KL25 Sample Code_I2c/KL25 Sample Code/kl25_sc_rev10/klxx-sc-baremetal/src/common\printf.c ****             /* we've gone one char too far */
 350:D:/kuaipan/SEMG/MEMS_SEMG_KL25/KL25 Sample Code_I2c/KL25 Sample Code/kl25_sc_rev10/klxx-sc-baremetal/src/common\printf.c ****             --p;
 351:D:/kuaipan/SEMG/MEMS_SEMG_KL25/KL25 Sample Code_I2c/KL25 Sample Code/kl25_sc_rev10/klxx-sc-baremetal/src/common\printf.c **** #if 0
 352:D:/kuaipan/SEMG/MEMS_SEMG_KL25/KL25 Sample Code_I2c/KL25 Sample Code/kl25_sc_rev10/klxx-sc-baremetal/src/common\printf.c ****             precision_used = FALSE;
 353:D:/kuaipan/SEMG/MEMS_SEMG_KL25/KL25 Sample Code_I2c/KL25 Sample Code/kl25_sc_rev10/klxx-sc-baremetal/src/common\printf.c ****             precision_width = 0;
 354:D:/kuaipan/SEMG/MEMS_SEMG_KL25/KL25 Sample Code_I2c/KL25 Sample Code/kl25_sc_rev10/klxx-sc-baremetal/src/common\printf.c **** #endif
 355:D:/kuaipan/SEMG/MEMS_SEMG_KL25/KL25 Sample Code_I2c/KL25 Sample Code/kl25_sc_rev10/klxx-sc-baremetal/src/common\printf.c ****         }
 356:D:/kuaipan/SEMG/MEMS_SEMG_KL25/KL25 Sample Code_I2c/KL25 Sample Code/kl25_sc_rev10/klxx-sc-baremetal/src/common\printf.c **** 
 357:D:/kuaipan/SEMG/MEMS_SEMG_KL25/KL25 Sample Code_I2c/KL25 Sample Code/kl25_sc_rev10/klxx-sc-baremetal/src/common\printf.c ****         /*
 358:D:/kuaipan/SEMG/MEMS_SEMG_KL25/KL25 Sample Code_I2c/KL25 Sample Code/kl25_sc_rev10/klxx-sc-baremetal/src/common\printf.c ****          * Check for the length modifier.
 359:D:/kuaipan/SEMG/MEMS_SEMG_KL25/KL25 Sample Code_I2c/KL25 Sample Code/kl25_sc_rev10/klxx-sc-baremetal/src/common\printf.c ****          */
 360:D:/kuaipan/SEMG/MEMS_SEMG_KL25/KL25 Sample Code_I2c/KL25 Sample Code/kl25_sc_rev10/klxx-sc-baremetal/src/common\printf.c ****         switch (*++p)
 452              		.loc 1 360 0
 453 006e 6828     		cmp	r0, #104
 454 0070 25D0     		beq	.L57
 455              	.LVL65:
 456              	.L175:
 457 0072 6C28     		cmp	r0, #108
 458 0074 23D0     		beq	.L57
 459 0076 4C28     		cmp	r0, #76
 460 0078 21D0     		beq	.L57
 461              	.LVL66:
 361:D:/kuaipan/SEMG/MEMS_SEMG_KL25/KL25 Sample Code_I2c/KL25 Sample Code/kl25_sc_rev10/klxx-sc-baremetal/src/common\printf.c ****         {
 362:D:/kuaipan/SEMG/MEMS_SEMG_KL25/KL25 Sample Code_I2c/KL25 Sample Code/kl25_sc_rev10/klxx-sc-baremetal/src/common\printf.c ****             case 'h':
 363:D:/kuaipan/SEMG/MEMS_SEMG_KL25/KL25 Sample Code_I2c/KL25 Sample Code/kl25_sc_rev10/klxx-sc-baremetal/src/common\printf.c ****                 break;
 364:D:/kuaipan/SEMG/MEMS_SEMG_KL25/KL25 Sample Code_I2c/KL25 Sample Code/kl25_sc_rev10/klxx-sc-baremetal/src/common\printf.c ****             case 'l':
 365:D:/kuaipan/SEMG/MEMS_SEMG_KL25/KL25 Sample Code_I2c/KL25 Sample Code/kl25_sc_rev10/klxx-sc-baremetal/src/common\printf.c ****                 break;
 366:D:/kuaipan/SEMG/MEMS_SEMG_KL25/KL25 Sample Code_I2c/KL25 Sample Code/kl25_sc_rev10/klxx-sc-baremetal/src/common\printf.c ****             case 'L':
 367:D:/kuaipan/SEMG/MEMS_SEMG_KL25/KL25 Sample Code_I2c/KL25 Sample Code/kl25_sc_rev10/klxx-sc-baremetal/src/common\printf.c ****                 break;
 368:D:/kuaipan/SEMG/MEMS_SEMG_KL25/KL25 Sample Code_I2c/KL25 Sample Code/kl25_sc_rev10/klxx-sc-baremetal/src/common\printf.c ****             default:
 369:D:/kuaipan/SEMG/MEMS_SEMG_KL25/KL25 Sample Code_I2c/KL25 Sample Code/kl25_sc_rev10/klxx-sc-baremetal/src/common\printf.c ****                 /* we've gone one char too far */
 370:D:/kuaipan/SEMG/MEMS_SEMG_KL25/KL25 Sample Code_I2c/KL25 Sample Code/kl25_sc_rev10/klxx-sc-baremetal/src/common\printf.c ****                 --p;
 371:D:/kuaipan/SEMG/MEMS_SEMG_KL25/KL25 Sample Code_I2c/KL25 Sample Code/kl25_sc_rev10/klxx-sc-baremetal/src/common\printf.c ****                 break;
 372:D:/kuaipan/SEMG/MEMS_SEMG_KL25/KL25 Sample Code_I2c/KL25 Sample Code/kl25_sc_rev10/klxx-sc-baremetal/src/common\printf.c ****         }
 373:D:/kuaipan/SEMG/MEMS_SEMG_KL25/KL25 Sample Code_I2c/KL25 Sample Code/kl25_sc_rev10/klxx-sc-baremetal/src/common\printf.c **** 
 374:D:/kuaipan/SEMG/MEMS_SEMG_KL25/KL25 Sample Code_I2c/KL25 Sample Code/kl25_sc_rev10/klxx-sc-baremetal/src/common\printf.c ****         /*
 375:D:/kuaipan/SEMG/MEMS_SEMG_KL25/KL25 Sample Code_I2c/KL25 Sample Code/kl25_sc_rev10/klxx-sc-baremetal/src/common\printf.c ****          * Now we're ready to examine the format.
 376:D:/kuaipan/SEMG/MEMS_SEMG_KL25/KL25 Sample Code_I2c/KL25 Sample Code/kl25_sc_rev10/klxx-sc-baremetal/src/common\printf.c ****          */
 377:D:/kuaipan/SEMG/MEMS_SEMG_KL25/KL25 Sample Code_I2c/KL25 Sample Code/kl25_sc_rev10/klxx-sc-baremetal/src/common\printf.c ****         switch (c = *++p)
 462              		.loc 1 377 0
 463 007a 051C     		mov	r5, r0
 464 007c 583D     		sub	r5, r5, #88
 465 007e EAB2     		uxtb	r2, r5
 466 0080 202A     		cmp	r2, #32
 467 0082 23D9     		bls	.L174
 468              	.LVL67:
 469              	.L58:
 378:D:/kuaipan/SEMG/MEMS_SEMG_KL25/KL25 Sample Code_I2c/KL25 Sample Code/kl25_sc_rev10/klxx-sc-baremetal/src/common\printf.c ****         {
 379:D:/kuaipan/SEMG/MEMS_SEMG_KL25/KL25 Sample Code_I2c/KL25 Sample Code/kl25_sc_rev10/klxx-sc-baremetal/src/common\printf.c ****             case 'd':
 380:D:/kuaipan/SEMG/MEMS_SEMG_KL25/KL25 Sample Code_I2c/KL25 Sample Code/kl25_sc_rev10/klxx-sc-baremetal/src/common\printf.c ****             case 'i':
 381:D:/kuaipan/SEMG/MEMS_SEMG_KL25/KL25 Sample Code_I2c/KL25 Sample Code/kl25_sc_rev10/klxx-sc-baremetal/src/common\printf.c ****                 ival = (int)va_arg(ap, int);
 382:D:/kuaipan/SEMG/MEMS_SEMG_KL25/KL25 Sample Code_I2c/KL25 Sample Code/kl25_sc_rev10/klxx-sc-baremetal/src/common\printf.c ****                 vlen = printk_mknumstr(vstr,&ival,TRUE,10);
 383:D:/kuaipan/SEMG/MEMS_SEMG_KL25/KL25 Sample Code_I2c/KL25 Sample Code/kl25_sc_rev10/klxx-sc-baremetal/src/common\printf.c ****                 vstrp = &vstr[vlen];
 384:D:/kuaipan/SEMG/MEMS_SEMG_KL25/KL25 Sample Code_I2c/KL25 Sample Code/kl25_sc_rev10/klxx-sc-baremetal/src/common\printf.c **** 
 385:D:/kuaipan/SEMG/MEMS_SEMG_KL25/KL25 Sample Code_I2c/KL25 Sample Code/kl25_sc_rev10/klxx-sc-baremetal/src/common\printf.c ****                 if (ival < 0)
 386:D:/kuaipan/SEMG/MEMS_SEMG_KL25/KL25 Sample Code_I2c/KL25 Sample Code/kl25_sc_rev10/klxx-sc-baremetal/src/common\printf.c ****                 {
 387:D:/kuaipan/SEMG/MEMS_SEMG_KL25/KL25 Sample Code_I2c/KL25 Sample Code/kl25_sc_rev10/klxx-sc-baremetal/src/common\printf.c ****                     schar = '-';
 388:D:/kuaipan/SEMG/MEMS_SEMG_KL25/KL25 Sample Code_I2c/KL25 Sample Code/kl25_sc_rev10/klxx-sc-baremetal/src/common\printf.c ****                     ++vlen;
 389:D:/kuaipan/SEMG/MEMS_SEMG_KL25/KL25 Sample Code_I2c/KL25 Sample Code/kl25_sc_rev10/klxx-sc-baremetal/src/common\printf.c ****                 }
 390:D:/kuaipan/SEMG/MEMS_SEMG_KL25/KL25 Sample Code_I2c/KL25 Sample Code/kl25_sc_rev10/klxx-sc-baremetal/src/common\printf.c ****                 else
 391:D:/kuaipan/SEMG/MEMS_SEMG_KL25/KL25 Sample Code_I2c/KL25 Sample Code/kl25_sc_rev10/klxx-sc-baremetal/src/common\printf.c ****                 {
 392:D:/kuaipan/SEMG/MEMS_SEMG_KL25/KL25 Sample Code_I2c/KL25 Sample Code/kl25_sc_rev10/klxx-sc-baremetal/src/common\printf.c ****                     if (IS_FLAG_PLUS(flags_used))
 393:D:/kuaipan/SEMG/MEMS_SEMG_KL25/KL25 Sample Code_I2c/KL25 Sample Code/kl25_sc_rev10/klxx-sc-baremetal/src/common\printf.c ****                     {
 394:D:/kuaipan/SEMG/MEMS_SEMG_KL25/KL25 Sample Code_I2c/KL25 Sample Code/kl25_sc_rev10/klxx-sc-baremetal/src/common\printf.c ****                         schar = '+';
 395:D:/kuaipan/SEMG/MEMS_SEMG_KL25/KL25 Sample Code_I2c/KL25 Sample Code/kl25_sc_rev10/klxx-sc-baremetal/src/common\printf.c ****                         ++vlen;
 396:D:/kuaipan/SEMG/MEMS_SEMG_KL25/KL25 Sample Code_I2c/KL25 Sample Code/kl25_sc_rev10/klxx-sc-baremetal/src/common\printf.c ****                     }
 397:D:/kuaipan/SEMG/MEMS_SEMG_KL25/KL25 Sample Code_I2c/KL25 Sample Code/kl25_sc_rev10/klxx-sc-baremetal/src/common\printf.c ****                     else
 398:D:/kuaipan/SEMG/MEMS_SEMG_KL25/KL25 Sample Code_I2c/KL25 Sample Code/kl25_sc_rev10/klxx-sc-baremetal/src/common\printf.c ****                     {
 399:D:/kuaipan/SEMG/MEMS_SEMG_KL25/KL25 Sample Code_I2c/KL25 Sample Code/kl25_sc_rev10/klxx-sc-baremetal/src/common\printf.c ****                         if (IS_FLAG_SPACE(flags_used))
 400:D:/kuaipan/SEMG/MEMS_SEMG_KL25/KL25 Sample Code_I2c/KL25 Sample Code/kl25_sc_rev10/klxx-sc-baremetal/src/common\printf.c ****                         {
 401:D:/kuaipan/SEMG/MEMS_SEMG_KL25/KL25 Sample Code_I2c/KL25 Sample Code/kl25_sc_rev10/klxx-sc-baremetal/src/common\printf.c ****                             schar = ' ';
 402:D:/kuaipan/SEMG/MEMS_SEMG_KL25/KL25 Sample Code_I2c/KL25 Sample Code/kl25_sc_rev10/klxx-sc-baremetal/src/common\printf.c ****                             ++vlen;
 403:D:/kuaipan/SEMG/MEMS_SEMG_KL25/KL25 Sample Code_I2c/KL25 Sample Code/kl25_sc_rev10/klxx-sc-baremetal/src/common\printf.c ****                         }
 404:D:/kuaipan/SEMG/MEMS_SEMG_KL25/KL25 Sample Code_I2c/KL25 Sample Code/kl25_sc_rev10/klxx-sc-baremetal/src/common\printf.c ****                         else
 405:D:/kuaipan/SEMG/MEMS_SEMG_KL25/KL25 Sample Code_I2c/KL25 Sample Code/kl25_sc_rev10/klxx-sc-baremetal/src/common\printf.c ****                         {
 406:D:/kuaipan/SEMG/MEMS_SEMG_KL25/KL25 Sample Code_I2c/KL25 Sample Code/kl25_sc_rev10/klxx-sc-baremetal/src/common\printf.c ****                             schar = 0;
 407:D:/kuaipan/SEMG/MEMS_SEMG_KL25/KL25 Sample Code_I2c/KL25 Sample Code/kl25_sc_rev10/klxx-sc-baremetal/src/common\printf.c ****                         }
 408:D:/kuaipan/SEMG/MEMS_SEMG_KL25/KL25 Sample Code_I2c/KL25 Sample Code/kl25_sc_rev10/klxx-sc-baremetal/src/common\printf.c ****                     }
 409:D:/kuaipan/SEMG/MEMS_SEMG_KL25/KL25 Sample Code_I2c/KL25 Sample Code/kl25_sc_rev10/klxx-sc-baremetal/src/common\printf.c ****                 }
 410:D:/kuaipan/SEMG/MEMS_SEMG_KL25/KL25 Sample Code_I2c/KL25 Sample Code/kl25_sc_rev10/klxx-sc-baremetal/src/common\printf.c ****                 dschar = FALSE;
 411:D:/kuaipan/SEMG/MEMS_SEMG_KL25/KL25 Sample Code_I2c/KL25 Sample Code/kl25_sc_rev10/klxx-sc-baremetal/src/common\printf.c ****             
 412:D:/kuaipan/SEMG/MEMS_SEMG_KL25/KL25 Sample Code_I2c/KL25 Sample Code/kl25_sc_rev10/klxx-sc-baremetal/src/common\printf.c ****                 /*
 413:D:/kuaipan/SEMG/MEMS_SEMG_KL25/KL25 Sample Code_I2c/KL25 Sample Code/kl25_sc_rev10/klxx-sc-baremetal/src/common\printf.c ****                  * do the ZERO pad.
 414:D:/kuaipan/SEMG/MEMS_SEMG_KL25/KL25 Sample Code_I2c/KL25 Sample Code/kl25_sc_rev10/klxx-sc-baremetal/src/common\printf.c ****                  */
 415:D:/kuaipan/SEMG/MEMS_SEMG_KL25/KL25 Sample Code_I2c/KL25 Sample Code/kl25_sc_rev10/klxx-sc-baremetal/src/common\printf.c ****                 if (IS_FLAG_ZERO(flags_used))
 416:D:/kuaipan/SEMG/MEMS_SEMG_KL25/KL25 Sample Code_I2c/KL25 Sample Code/kl25_sc_rev10/klxx-sc-baremetal/src/common\printf.c ****                 {
 417:D:/kuaipan/SEMG/MEMS_SEMG_KL25/KL25 Sample Code_I2c/KL25 Sample Code/kl25_sc_rev10/klxx-sc-baremetal/src/common\printf.c ****                     if (schar)
 418:D:/kuaipan/SEMG/MEMS_SEMG_KL25/KL25 Sample Code_I2c/KL25 Sample Code/kl25_sc_rev10/klxx-sc-baremetal/src/common\printf.c ****                         printk_putc(schar, &count, info);
 419:D:/kuaipan/SEMG/MEMS_SEMG_KL25/KL25 Sample Code_I2c/KL25 Sample Code/kl25_sc_rev10/klxx-sc-baremetal/src/common\printf.c ****                     dschar = TRUE;
 420:D:/kuaipan/SEMG/MEMS_SEMG_KL25/KL25 Sample Code_I2c/KL25 Sample Code/kl25_sc_rev10/klxx-sc-baremetal/src/common\printf.c ****             
 421:D:/kuaipan/SEMG/MEMS_SEMG_KL25/KL25 Sample Code_I2c/KL25 Sample Code/kl25_sc_rev10/klxx-sc-baremetal/src/common\printf.c ****                     printk_pad_zero (vlen, field_width, &count, info);
 422:D:/kuaipan/SEMG/MEMS_SEMG_KL25/KL25 Sample Code_I2c/KL25 Sample Code/kl25_sc_rev10/klxx-sc-baremetal/src/common\printf.c ****                     vlen = field_width;
 423:D:/kuaipan/SEMG/MEMS_SEMG_KL25/KL25 Sample Code_I2c/KL25 Sample Code/kl25_sc_rev10/klxx-sc-baremetal/src/common\printf.c ****                 }
 424:D:/kuaipan/SEMG/MEMS_SEMG_KL25/KL25 Sample Code_I2c/KL25 Sample Code/kl25_sc_rev10/klxx-sc-baremetal/src/common\printf.c ****                 else
 425:D:/kuaipan/SEMG/MEMS_SEMG_KL25/KL25 Sample Code_I2c/KL25 Sample Code/kl25_sc_rev10/klxx-sc-baremetal/src/common\printf.c ****                 {
 426:D:/kuaipan/SEMG/MEMS_SEMG_KL25/KL25 Sample Code_I2c/KL25 Sample Code/kl25_sc_rev10/klxx-sc-baremetal/src/common\printf.c ****                     if (!IS_FLAG_MINUS(flags_used))
 427:D:/kuaipan/SEMG/MEMS_SEMG_KL25/KL25 Sample Code_I2c/KL25 Sample Code/kl25_sc_rev10/klxx-sc-baremetal/src/common\printf.c ****                     {
 428:D:/kuaipan/SEMG/MEMS_SEMG_KL25/KL25 Sample Code_I2c/KL25 Sample Code/kl25_sc_rev10/klxx-sc-baremetal/src/common\printf.c ****                         printk_pad_space (vlen, field_width, &count, info);
 429:D:/kuaipan/SEMG/MEMS_SEMG_KL25/KL25 Sample Code_I2c/KL25 Sample Code/kl25_sc_rev10/klxx-sc-baremetal/src/common\printf.c ****             
 430:D:/kuaipan/SEMG/MEMS_SEMG_KL25/KL25 Sample Code_I2c/KL25 Sample Code/kl25_sc_rev10/klxx-sc-baremetal/src/common\printf.c ****                         if (schar)
 431:D:/kuaipan/SEMG/MEMS_SEMG_KL25/KL25 Sample Code_I2c/KL25 Sample Code/kl25_sc_rev10/klxx-sc-baremetal/src/common\printf.c ****                             printk_putc(schar, &count, info);
 432:D:/kuaipan/SEMG/MEMS_SEMG_KL25/KL25 Sample Code_I2c/KL25 Sample Code/kl25_sc_rev10/klxx-sc-baremetal/src/common\printf.c ****                         dschar = TRUE;
 433:D:/kuaipan/SEMG/MEMS_SEMG_KL25/KL25 Sample Code_I2c/KL25 Sample Code/kl25_sc_rev10/klxx-sc-baremetal/src/common\printf.c ****                     }
 434:D:/kuaipan/SEMG/MEMS_SEMG_KL25/KL25 Sample Code_I2c/KL25 Sample Code/kl25_sc_rev10/klxx-sc-baremetal/src/common\printf.c ****                 }
 435:D:/kuaipan/SEMG/MEMS_SEMG_KL25/KL25 Sample Code_I2c/KL25 Sample Code/kl25_sc_rev10/klxx-sc-baremetal/src/common\printf.c ****             
 436:D:/kuaipan/SEMG/MEMS_SEMG_KL25/KL25 Sample Code_I2c/KL25 Sample Code/kl25_sc_rev10/klxx-sc-baremetal/src/common\printf.c ****                 /* the string was built in reverse order, now display in */
 437:D:/kuaipan/SEMG/MEMS_SEMG_KL25/KL25 Sample Code_I2c/KL25 Sample Code/kl25_sc_rev10/klxx-sc-baremetal/src/common\printf.c ****                 /* correct order */
 438:D:/kuaipan/SEMG/MEMS_SEMG_KL25/KL25 Sample Code_I2c/KL25 Sample Code/kl25_sc_rev10/klxx-sc-baremetal/src/common\printf.c ****                 if (!dschar && schar)
 439:D:/kuaipan/SEMG/MEMS_SEMG_KL25/KL25 Sample Code_I2c/KL25 Sample Code/kl25_sc_rev10/klxx-sc-baremetal/src/common\printf.c ****                 {
 440:D:/kuaipan/SEMG/MEMS_SEMG_KL25/KL25 Sample Code_I2c/KL25 Sample Code/kl25_sc_rev10/klxx-sc-baremetal/src/common\printf.c ****                     printk_putc(schar, &count, info);
 441:D:/kuaipan/SEMG/MEMS_SEMG_KL25/KL25 Sample Code_I2c/KL25 Sample Code/kl25_sc_rev10/klxx-sc-baremetal/src/common\printf.c ****                 }
 442:D:/kuaipan/SEMG/MEMS_SEMG_KL25/KL25 Sample Code_I2c/KL25 Sample Code/kl25_sc_rev10/klxx-sc-baremetal/src/common\printf.c ****                 goto cont_xd;
 443:D:/kuaipan/SEMG/MEMS_SEMG_KL25/KL25 Sample Code_I2c/KL25 Sample Code/kl25_sc_rev10/klxx-sc-baremetal/src/common\printf.c **** 
 444:D:/kuaipan/SEMG/MEMS_SEMG_KL25/KL25 Sample Code_I2c/KL25 Sample Code/kl25_sc_rev10/klxx-sc-baremetal/src/common\printf.c ****             case 'x':
 445:D:/kuaipan/SEMG/MEMS_SEMG_KL25/KL25 Sample Code_I2c/KL25 Sample Code/kl25_sc_rev10/klxx-sc-baremetal/src/common\printf.c ****             case 'X':
 446:D:/kuaipan/SEMG/MEMS_SEMG_KL25/KL25 Sample Code_I2c/KL25 Sample Code/kl25_sc_rev10/klxx-sc-baremetal/src/common\printf.c ****                 uval = (unsigned int)va_arg(ap, unsigned int);
 447:D:/kuaipan/SEMG/MEMS_SEMG_KL25/KL25 Sample Code_I2c/KL25 Sample Code/kl25_sc_rev10/klxx-sc-baremetal/src/common\printf.c ****                 vlen = printk_mknumstr(vstr,&uval,FALSE,16);
 448:D:/kuaipan/SEMG/MEMS_SEMG_KL25/KL25 Sample Code_I2c/KL25 Sample Code/kl25_sc_rev10/klxx-sc-baremetal/src/common\printf.c ****                 vstrp = &vstr[vlen];
 449:D:/kuaipan/SEMG/MEMS_SEMG_KL25/KL25 Sample Code_I2c/KL25 Sample Code/kl25_sc_rev10/klxx-sc-baremetal/src/common\printf.c **** 
 450:D:/kuaipan/SEMG/MEMS_SEMG_KL25/KL25 Sample Code_I2c/KL25 Sample Code/kl25_sc_rev10/klxx-sc-baremetal/src/common\printf.c ****                 dschar = FALSE;
 451:D:/kuaipan/SEMG/MEMS_SEMG_KL25/KL25 Sample Code_I2c/KL25 Sample Code/kl25_sc_rev10/klxx-sc-baremetal/src/common\printf.c ****                 if (IS_FLAG_ZERO(flags_used))
 452:D:/kuaipan/SEMG/MEMS_SEMG_KL25/KL25 Sample Code_I2c/KL25 Sample Code/kl25_sc_rev10/klxx-sc-baremetal/src/common\printf.c ****                 {
 453:D:/kuaipan/SEMG/MEMS_SEMG_KL25/KL25 Sample Code_I2c/KL25 Sample Code/kl25_sc_rev10/klxx-sc-baremetal/src/common\printf.c ****                     if (IS_FLAG_POUND(flags_used))
 454:D:/kuaipan/SEMG/MEMS_SEMG_KL25/KL25 Sample Code_I2c/KL25 Sample Code/kl25_sc_rev10/klxx-sc-baremetal/src/common\printf.c ****                     {
 455:D:/kuaipan/SEMG/MEMS_SEMG_KL25/KL25 Sample Code_I2c/KL25 Sample Code/kl25_sc_rev10/klxx-sc-baremetal/src/common\printf.c ****                         printk_putc('0', &count, info);
 456:D:/kuaipan/SEMG/MEMS_SEMG_KL25/KL25 Sample Code_I2c/KL25 Sample Code/kl25_sc_rev10/klxx-sc-baremetal/src/common\printf.c ****                         printk_putc('x', &count, info);
 457:D:/kuaipan/SEMG/MEMS_SEMG_KL25/KL25 Sample Code_I2c/KL25 Sample Code/kl25_sc_rev10/klxx-sc-baremetal/src/common\printf.c ****                         /*vlen += 2;*/
 458:D:/kuaipan/SEMG/MEMS_SEMG_KL25/KL25 Sample Code_I2c/KL25 Sample Code/kl25_sc_rev10/klxx-sc-baremetal/src/common\printf.c ****                         dschar = TRUE;
 459:D:/kuaipan/SEMG/MEMS_SEMG_KL25/KL25 Sample Code_I2c/KL25 Sample Code/kl25_sc_rev10/klxx-sc-baremetal/src/common\printf.c ****                     }
 460:D:/kuaipan/SEMG/MEMS_SEMG_KL25/KL25 Sample Code_I2c/KL25 Sample Code/kl25_sc_rev10/klxx-sc-baremetal/src/common\printf.c ****                     printk_pad_zero (vlen, field_width, &count, info);
 461:D:/kuaipan/SEMG/MEMS_SEMG_KL25/KL25 Sample Code_I2c/KL25 Sample Code/kl25_sc_rev10/klxx-sc-baremetal/src/common\printf.c ****                     vlen = field_width;
 462:D:/kuaipan/SEMG/MEMS_SEMG_KL25/KL25 Sample Code_I2c/KL25 Sample Code/kl25_sc_rev10/klxx-sc-baremetal/src/common\printf.c ****                 }
 463:D:/kuaipan/SEMG/MEMS_SEMG_KL25/KL25 Sample Code_I2c/KL25 Sample Code/kl25_sc_rev10/klxx-sc-baremetal/src/common\printf.c ****                 else
 464:D:/kuaipan/SEMG/MEMS_SEMG_KL25/KL25 Sample Code_I2c/KL25 Sample Code/kl25_sc_rev10/klxx-sc-baremetal/src/common\printf.c ****                 {
 465:D:/kuaipan/SEMG/MEMS_SEMG_KL25/KL25 Sample Code_I2c/KL25 Sample Code/kl25_sc_rev10/klxx-sc-baremetal/src/common\printf.c ****                     if (!IS_FLAG_MINUS(flags_used))
 466:D:/kuaipan/SEMG/MEMS_SEMG_KL25/KL25 Sample Code_I2c/KL25 Sample Code/kl25_sc_rev10/klxx-sc-baremetal/src/common\printf.c ****                     {
 467:D:/kuaipan/SEMG/MEMS_SEMG_KL25/KL25 Sample Code_I2c/KL25 Sample Code/kl25_sc_rev10/klxx-sc-baremetal/src/common\printf.c ****                         if (IS_FLAG_POUND(flags_used))
 468:D:/kuaipan/SEMG/MEMS_SEMG_KL25/KL25 Sample Code_I2c/KL25 Sample Code/kl25_sc_rev10/klxx-sc-baremetal/src/common\printf.c ****                         {
 469:D:/kuaipan/SEMG/MEMS_SEMG_KL25/KL25 Sample Code_I2c/KL25 Sample Code/kl25_sc_rev10/klxx-sc-baremetal/src/common\printf.c ****                             vlen += 2;
 470:D:/kuaipan/SEMG/MEMS_SEMG_KL25/KL25 Sample Code_I2c/KL25 Sample Code/kl25_sc_rev10/klxx-sc-baremetal/src/common\printf.c ****                         }
 471:D:/kuaipan/SEMG/MEMS_SEMG_KL25/KL25 Sample Code_I2c/KL25 Sample Code/kl25_sc_rev10/klxx-sc-baremetal/src/common\printf.c ****                         printk_pad_space (vlen, field_width, &count, info);
 472:D:/kuaipan/SEMG/MEMS_SEMG_KL25/KL25 Sample Code_I2c/KL25 Sample Code/kl25_sc_rev10/klxx-sc-baremetal/src/common\printf.c ****                         if (IS_FLAG_POUND(flags_used))
 473:D:/kuaipan/SEMG/MEMS_SEMG_KL25/KL25 Sample Code_I2c/KL25 Sample Code/kl25_sc_rev10/klxx-sc-baremetal/src/common\printf.c ****                         {
 474:D:/kuaipan/SEMG/MEMS_SEMG_KL25/KL25 Sample Code_I2c/KL25 Sample Code/kl25_sc_rev10/klxx-sc-baremetal/src/common\printf.c ****                             printk_putc('0', &count, info);
 475:D:/kuaipan/SEMG/MEMS_SEMG_KL25/KL25 Sample Code_I2c/KL25 Sample Code/kl25_sc_rev10/klxx-sc-baremetal/src/common\printf.c ****                             printk_putc('x', &count, info);
 476:D:/kuaipan/SEMG/MEMS_SEMG_KL25/KL25 Sample Code_I2c/KL25 Sample Code/kl25_sc_rev10/klxx-sc-baremetal/src/common\printf.c ****                             dschar = TRUE;
 477:D:/kuaipan/SEMG/MEMS_SEMG_KL25/KL25 Sample Code_I2c/KL25 Sample Code/kl25_sc_rev10/klxx-sc-baremetal/src/common\printf.c ****                         }
 478:D:/kuaipan/SEMG/MEMS_SEMG_KL25/KL25 Sample Code_I2c/KL25 Sample Code/kl25_sc_rev10/klxx-sc-baremetal/src/common\printf.c ****                     }
 479:D:/kuaipan/SEMG/MEMS_SEMG_KL25/KL25 Sample Code_I2c/KL25 Sample Code/kl25_sc_rev10/klxx-sc-baremetal/src/common\printf.c ****                 }
 480:D:/kuaipan/SEMG/MEMS_SEMG_KL25/KL25 Sample Code_I2c/KL25 Sample Code/kl25_sc_rev10/klxx-sc-baremetal/src/common\printf.c **** 
 481:D:/kuaipan/SEMG/MEMS_SEMG_KL25/KL25 Sample Code_I2c/KL25 Sample Code/kl25_sc_rev10/klxx-sc-baremetal/src/common\printf.c ****                 if ((IS_FLAG_POUND(flags_used)) && !dschar)
 482:D:/kuaipan/SEMG/MEMS_SEMG_KL25/KL25 Sample Code_I2c/KL25 Sample Code/kl25_sc_rev10/klxx-sc-baremetal/src/common\printf.c ****                 {
 483:D:/kuaipan/SEMG/MEMS_SEMG_KL25/KL25 Sample Code_I2c/KL25 Sample Code/kl25_sc_rev10/klxx-sc-baremetal/src/common\printf.c ****                     printk_putc('0', &count, info);
 484:D:/kuaipan/SEMG/MEMS_SEMG_KL25/KL25 Sample Code_I2c/KL25 Sample Code/kl25_sc_rev10/klxx-sc-baremetal/src/common\printf.c ****                     printk_putc('x', &count, info);
 485:D:/kuaipan/SEMG/MEMS_SEMG_KL25/KL25 Sample Code_I2c/KL25 Sample Code/kl25_sc_rev10/klxx-sc-baremetal/src/common\printf.c ****                     vlen += 2;
 486:D:/kuaipan/SEMG/MEMS_SEMG_KL25/KL25 Sample Code_I2c/KL25 Sample Code/kl25_sc_rev10/klxx-sc-baremetal/src/common\printf.c ****                 }
 487:D:/kuaipan/SEMG/MEMS_SEMG_KL25/KL25 Sample Code_I2c/KL25 Sample Code/kl25_sc_rev10/klxx-sc-baremetal/src/common\printf.c ****                 goto cont_xd;
 488:D:/kuaipan/SEMG/MEMS_SEMG_KL25/KL25 Sample Code_I2c/KL25 Sample Code/kl25_sc_rev10/klxx-sc-baremetal/src/common\printf.c **** 
 489:D:/kuaipan/SEMG/MEMS_SEMG_KL25/KL25 Sample Code_I2c/KL25 Sample Code/kl25_sc_rev10/klxx-sc-baremetal/src/common\printf.c ****             case 'o':
 490:D:/kuaipan/SEMG/MEMS_SEMG_KL25/KL25 Sample Code_I2c/KL25 Sample Code/kl25_sc_rev10/klxx-sc-baremetal/src/common\printf.c ****                 uval = (unsigned int)va_arg(ap, unsigned int);
 491:D:/kuaipan/SEMG/MEMS_SEMG_KL25/KL25 Sample Code_I2c/KL25 Sample Code/kl25_sc_rev10/klxx-sc-baremetal/src/common\printf.c ****                 vlen = printk_mknumstr(vstr,&uval,FALSE,8);
 492:D:/kuaipan/SEMG/MEMS_SEMG_KL25/KL25 Sample Code_I2c/KL25 Sample Code/kl25_sc_rev10/klxx-sc-baremetal/src/common\printf.c ****                 goto cont_u;
 493:D:/kuaipan/SEMG/MEMS_SEMG_KL25/KL25 Sample Code_I2c/KL25 Sample Code/kl25_sc_rev10/klxx-sc-baremetal/src/common\printf.c ****             case 'b':
 494:D:/kuaipan/SEMG/MEMS_SEMG_KL25/KL25 Sample Code_I2c/KL25 Sample Code/kl25_sc_rev10/klxx-sc-baremetal/src/common\printf.c ****                 uval = (unsigned int)va_arg(ap, unsigned int);
 495:D:/kuaipan/SEMG/MEMS_SEMG_KL25/KL25 Sample Code_I2c/KL25 Sample Code/kl25_sc_rev10/klxx-sc-baremetal/src/common\printf.c ****                 vlen = printk_mknumstr(vstr,&uval,FALSE,2);
 496:D:/kuaipan/SEMG/MEMS_SEMG_KL25/KL25 Sample Code_I2c/KL25 Sample Code/kl25_sc_rev10/klxx-sc-baremetal/src/common\printf.c ****                 goto cont_u;
 497:D:/kuaipan/SEMG/MEMS_SEMG_KL25/KL25 Sample Code_I2c/KL25 Sample Code/kl25_sc_rev10/klxx-sc-baremetal/src/common\printf.c ****             case 'p':
 498:D:/kuaipan/SEMG/MEMS_SEMG_KL25/KL25 Sample Code_I2c/KL25 Sample Code/kl25_sc_rev10/klxx-sc-baremetal/src/common\printf.c ****                 uval = (unsigned int)va_arg(ap, void *);
 499:D:/kuaipan/SEMG/MEMS_SEMG_KL25/KL25 Sample Code_I2c/KL25 Sample Code/kl25_sc_rev10/klxx-sc-baremetal/src/common\printf.c ****                 vlen = printk_mknumstr(vstr,&uval,FALSE,16);
 500:D:/kuaipan/SEMG/MEMS_SEMG_KL25/KL25 Sample Code_I2c/KL25 Sample Code/kl25_sc_rev10/klxx-sc-baremetal/src/common\printf.c ****                 goto cont_u;
 501:D:/kuaipan/SEMG/MEMS_SEMG_KL25/KL25 Sample Code_I2c/KL25 Sample Code/kl25_sc_rev10/klxx-sc-baremetal/src/common\printf.c ****             case 'u':
 502:D:/kuaipan/SEMG/MEMS_SEMG_KL25/KL25 Sample Code_I2c/KL25 Sample Code/kl25_sc_rev10/klxx-sc-baremetal/src/common\printf.c ****                 uval = (unsigned int)va_arg(ap, unsigned int);
 503:D:/kuaipan/SEMG/MEMS_SEMG_KL25/KL25 Sample Code_I2c/KL25 Sample Code/kl25_sc_rev10/klxx-sc-baremetal/src/common\printf.c ****                 vlen = printk_mknumstr(vstr,&uval,FALSE,10);
 504:D:/kuaipan/SEMG/MEMS_SEMG_KL25/KL25 Sample Code_I2c/KL25 Sample Code/kl25_sc_rev10/klxx-sc-baremetal/src/common\printf.c **** 
 505:D:/kuaipan/SEMG/MEMS_SEMG_KL25/KL25 Sample Code_I2c/KL25 Sample Code/kl25_sc_rev10/klxx-sc-baremetal/src/common\printf.c ****                 cont_u:
 506:D:/kuaipan/SEMG/MEMS_SEMG_KL25/KL25 Sample Code_I2c/KL25 Sample Code/kl25_sc_rev10/klxx-sc-baremetal/src/common\printf.c ****                     vstrp = &vstr[vlen];
 507:D:/kuaipan/SEMG/MEMS_SEMG_KL25/KL25 Sample Code_I2c/KL25 Sample Code/kl25_sc_rev10/klxx-sc-baremetal/src/common\printf.c **** 
 508:D:/kuaipan/SEMG/MEMS_SEMG_KL25/KL25 Sample Code_I2c/KL25 Sample Code/kl25_sc_rev10/klxx-sc-baremetal/src/common\printf.c ****                     if (IS_FLAG_ZERO(flags_used))
 509:D:/kuaipan/SEMG/MEMS_SEMG_KL25/KL25 Sample Code_I2c/KL25 Sample Code/kl25_sc_rev10/klxx-sc-baremetal/src/common\printf.c ****                     {
 510:D:/kuaipan/SEMG/MEMS_SEMG_KL25/KL25 Sample Code_I2c/KL25 Sample Code/kl25_sc_rev10/klxx-sc-baremetal/src/common\printf.c ****                         printk_pad_zero (vlen, field_width, &count, info);
 511:D:/kuaipan/SEMG/MEMS_SEMG_KL25/KL25 Sample Code_I2c/KL25 Sample Code/kl25_sc_rev10/klxx-sc-baremetal/src/common\printf.c ****                         vlen = field_width;
 512:D:/kuaipan/SEMG/MEMS_SEMG_KL25/KL25 Sample Code_I2c/KL25 Sample Code/kl25_sc_rev10/klxx-sc-baremetal/src/common\printf.c ****                     }
 513:D:/kuaipan/SEMG/MEMS_SEMG_KL25/KL25 Sample Code_I2c/KL25 Sample Code/kl25_sc_rev10/klxx-sc-baremetal/src/common\printf.c ****                     else
 514:D:/kuaipan/SEMG/MEMS_SEMG_KL25/KL25 Sample Code_I2c/KL25 Sample Code/kl25_sc_rev10/klxx-sc-baremetal/src/common\printf.c ****                     {
 515:D:/kuaipan/SEMG/MEMS_SEMG_KL25/KL25 Sample Code_I2c/KL25 Sample Code/kl25_sc_rev10/klxx-sc-baremetal/src/common\printf.c ****                         if (!IS_FLAG_MINUS(flags_used))
 516:D:/kuaipan/SEMG/MEMS_SEMG_KL25/KL25 Sample Code_I2c/KL25 Sample Code/kl25_sc_rev10/klxx-sc-baremetal/src/common\printf.c ****                         {
 517:D:/kuaipan/SEMG/MEMS_SEMG_KL25/KL25 Sample Code_I2c/KL25 Sample Code/kl25_sc_rev10/klxx-sc-baremetal/src/common\printf.c ****                             printk_pad_space (vlen, field_width, &count, info);
 518:D:/kuaipan/SEMG/MEMS_SEMG_KL25/KL25 Sample Code_I2c/KL25 Sample Code/kl25_sc_rev10/klxx-sc-baremetal/src/common\printf.c ****                         }
 519:D:/kuaipan/SEMG/MEMS_SEMG_KL25/KL25 Sample Code_I2c/KL25 Sample Code/kl25_sc_rev10/klxx-sc-baremetal/src/common\printf.c ****                     }
 520:D:/kuaipan/SEMG/MEMS_SEMG_KL25/KL25 Sample Code_I2c/KL25 Sample Code/kl25_sc_rev10/klxx-sc-baremetal/src/common\printf.c **** 
 521:D:/kuaipan/SEMG/MEMS_SEMG_KL25/KL25 Sample Code_I2c/KL25 Sample Code/kl25_sc_rev10/klxx-sc-baremetal/src/common\printf.c ****                 cont_xd:
 522:D:/kuaipan/SEMG/MEMS_SEMG_KL25/KL25 Sample Code_I2c/KL25 Sample Code/kl25_sc_rev10/klxx-sc-baremetal/src/common\printf.c ****                     while (*vstrp)
 523:D:/kuaipan/SEMG/MEMS_SEMG_KL25/KL25 Sample Code_I2c/KL25 Sample Code/kl25_sc_rev10/klxx-sc-baremetal/src/common\printf.c ****                         printk_putc(*vstrp--, &count, info);
 524:D:/kuaipan/SEMG/MEMS_SEMG_KL25/KL25 Sample Code_I2c/KL25 Sample Code/kl25_sc_rev10/klxx-sc-baremetal/src/common\printf.c **** 
 525:D:/kuaipan/SEMG/MEMS_SEMG_KL25/KL25 Sample Code_I2c/KL25 Sample Code/kl25_sc_rev10/klxx-sc-baremetal/src/common\printf.c ****                     if (IS_FLAG_MINUS(flags_used))
 526:D:/kuaipan/SEMG/MEMS_SEMG_KL25/KL25 Sample Code_I2c/KL25 Sample Code/kl25_sc_rev10/klxx-sc-baremetal/src/common\printf.c ****                     {
 527:D:/kuaipan/SEMG/MEMS_SEMG_KL25/KL25 Sample Code_I2c/KL25 Sample Code/kl25_sc_rev10/klxx-sc-baremetal/src/common\printf.c ****                         printk_pad_space (vlen, field_width, &count, info);
 528:D:/kuaipan/SEMG/MEMS_SEMG_KL25/KL25 Sample Code_I2c/KL25 Sample Code/kl25_sc_rev10/klxx-sc-baremetal/src/common\printf.c ****                     }
 529:D:/kuaipan/SEMG/MEMS_SEMG_KL25/KL25 Sample Code_I2c/KL25 Sample Code/kl25_sc_rev10/klxx-sc-baremetal/src/common\printf.c ****                 break;
 530:D:/kuaipan/SEMG/MEMS_SEMG_KL25/KL25 Sample Code_I2c/KL25 Sample Code/kl25_sc_rev10/klxx-sc-baremetal/src/common\printf.c **** 
 531:D:/kuaipan/SEMG/MEMS_SEMG_KL25/KL25 Sample Code_I2c/KL25 Sample Code/kl25_sc_rev10/klxx-sc-baremetal/src/common\printf.c ****             case 'c':
 532:D:/kuaipan/SEMG/MEMS_SEMG_KL25/KL25 Sample Code_I2c/KL25 Sample Code/kl25_sc_rev10/klxx-sc-baremetal/src/common\printf.c ****                 cval = (char)va_arg(ap, unsigned int);
 533:D:/kuaipan/SEMG/MEMS_SEMG_KL25/KL25 Sample Code_I2c/KL25 Sample Code/kl25_sc_rev10/klxx-sc-baremetal/src/common\printf.c ****                 printk_putc(cval,&count, info);
 534:D:/kuaipan/SEMG/MEMS_SEMG_KL25/KL25 Sample Code_I2c/KL25 Sample Code/kl25_sc_rev10/klxx-sc-baremetal/src/common\printf.c ****                 break;
 535:D:/kuaipan/SEMG/MEMS_SEMG_KL25/KL25 Sample Code_I2c/KL25 Sample Code/kl25_sc_rev10/klxx-sc-baremetal/src/common\printf.c ****             case 's':
 536:D:/kuaipan/SEMG/MEMS_SEMG_KL25/KL25 Sample Code_I2c/KL25 Sample Code/kl25_sc_rev10/klxx-sc-baremetal/src/common\printf.c ****                 sval = (char *)va_arg(ap, char *);
 537:D:/kuaipan/SEMG/MEMS_SEMG_KL25/KL25 Sample Code_I2c/KL25 Sample Code/kl25_sc_rev10/klxx-sc-baremetal/src/common\printf.c ****                 if (sval)
 538:D:/kuaipan/SEMG/MEMS_SEMG_KL25/KL25 Sample Code_I2c/KL25 Sample Code/kl25_sc_rev10/klxx-sc-baremetal/src/common\printf.c ****                 {
 539:D:/kuaipan/SEMG/MEMS_SEMG_KL25/KL25 Sample Code_I2c/KL25 Sample Code/kl25_sc_rev10/klxx-sc-baremetal/src/common\printf.c ****                     vlen = strlen(sval);
 540:D:/kuaipan/SEMG/MEMS_SEMG_KL25/KL25 Sample Code_I2c/KL25 Sample Code/kl25_sc_rev10/klxx-sc-baremetal/src/common\printf.c ****                     if (!IS_FLAG_MINUS(flags_used))
 541:D:/kuaipan/SEMG/MEMS_SEMG_KL25/KL25 Sample Code_I2c/KL25 Sample Code/kl25_sc_rev10/klxx-sc-baremetal/src/common\printf.c ****                     {
 542:D:/kuaipan/SEMG/MEMS_SEMG_KL25/KL25 Sample Code_I2c/KL25 Sample Code/kl25_sc_rev10/klxx-sc-baremetal/src/common\printf.c ****                         printk_pad_space (vlen, field_width, &count, info);
 543:D:/kuaipan/SEMG/MEMS_SEMG_KL25/KL25 Sample Code_I2c/KL25 Sample Code/kl25_sc_rev10/klxx-sc-baremetal/src/common\printf.c ****                     }
 544:D:/kuaipan/SEMG/MEMS_SEMG_KL25/KL25 Sample Code_I2c/KL25 Sample Code/kl25_sc_rev10/klxx-sc-baremetal/src/common\printf.c ****                     while (*sval)
 545:D:/kuaipan/SEMG/MEMS_SEMG_KL25/KL25 Sample Code_I2c/KL25 Sample Code/kl25_sc_rev10/klxx-sc-baremetal/src/common\printf.c ****                         printk_putc(*sval++,&count, info);
 546:D:/kuaipan/SEMG/MEMS_SEMG_KL25/KL25 Sample Code_I2c/KL25 Sample Code/kl25_sc_rev10/klxx-sc-baremetal/src/common\printf.c ****                     if (IS_FLAG_MINUS(flags_used))
 547:D:/kuaipan/SEMG/MEMS_SEMG_KL25/KL25 Sample Code_I2c/KL25 Sample Code/kl25_sc_rev10/klxx-sc-baremetal/src/common\printf.c ****                     {
 548:D:/kuaipan/SEMG/MEMS_SEMG_KL25/KL25 Sample Code_I2c/KL25 Sample Code/kl25_sc_rev10/klxx-sc-baremetal/src/common\printf.c ****                         printk_pad_space (vlen, field_width, &count, info);
 549:D:/kuaipan/SEMG/MEMS_SEMG_KL25/KL25 Sample Code_I2c/KL25 Sample Code/kl25_sc_rev10/klxx-sc-baremetal/src/common\printf.c ****                     }
 550:D:/kuaipan/SEMG/MEMS_SEMG_KL25/KL25 Sample Code_I2c/KL25 Sample Code/kl25_sc_rev10/klxx-sc-baremetal/src/common\printf.c ****                 }
 551:D:/kuaipan/SEMG/MEMS_SEMG_KL25/KL25 Sample Code_I2c/KL25 Sample Code/kl25_sc_rev10/klxx-sc-baremetal/src/common\printf.c ****                 break;
 552:D:/kuaipan/SEMG/MEMS_SEMG_KL25/KL25 Sample Code_I2c/KL25 Sample Code/kl25_sc_rev10/klxx-sc-baremetal/src/common\printf.c ****             case 'n':
 553:D:/kuaipan/SEMG/MEMS_SEMG_KL25/KL25 Sample Code_I2c/KL25 Sample Code/kl25_sc_rev10/klxx-sc-baremetal/src/common\printf.c ****                 ivalp = (int *)va_arg(ap, int *);
 554:D:/kuaipan/SEMG/MEMS_SEMG_KL25/KL25 Sample Code_I2c/KL25 Sample Code/kl25_sc_rev10/klxx-sc-baremetal/src/common\printf.c ****                 *ivalp = count;
 555:D:/kuaipan/SEMG/MEMS_SEMG_KL25/KL25 Sample Code_I2c/KL25 Sample Code/kl25_sc_rev10/klxx-sc-baremetal/src/common\printf.c ****                 break;
 556:D:/kuaipan/SEMG/MEMS_SEMG_KL25/KL25 Sample Code_I2c/KL25 Sample Code/kl25_sc_rev10/klxx-sc-baremetal/src/common\printf.c ****             default:
 557:D:/kuaipan/SEMG/MEMS_SEMG_KL25/KL25 Sample Code_I2c/KL25 Sample Code/kl25_sc_rev10/klxx-sc-baremetal/src/common\printf.c ****                 printk_putc(c,&count, info);
 470              		.loc 1 557 0
 471 0084 04A9     		add	r1, sp, #16
 472 0086 4246     		mov	r2, r8
 473 0088 FFF7FEFF 		bl	printk_putc
 474              	.LVL68:
 214:D:/kuaipan/SEMG/MEMS_SEMG_KL25/KL25 Sample Code_I2c/KL25 Sample Code/kl25_sc_rev10/klxx-sc-baremetal/src/common\printf.c ****     for (p = (char *)fmt; (c = *p) != 0; p++)
 475              		.loc 1 214 0
 476 008c 6078     		ldrb	r0, [r4, #1]
 477 008e 651C     		add	r5, r4, #1
 478              	.LVL69:
 479 0090 0028     		cmp	r0, #0
 480 0092 D3D1     		bne	.L99
 481              	.LVL70:
 482              	.L172:
 483 0094 0498     		ldr	r0, [sp, #16]
 484              	.LVL71:
 485              	.L160:
 558:D:/kuaipan/SEMG/MEMS_SEMG_KL25/KL25 Sample Code_I2c/KL25 Sample Code/kl25_sc_rev10/klxx-sc-baremetal/src/common\printf.c ****                 break;
 559:D:/kuaipan/SEMG/MEMS_SEMG_KL25/KL25 Sample Code_I2c/KL25 Sample Code/kl25_sc_rev10/klxx-sc-baremetal/src/common\printf.c ****         }
 560:D:/kuaipan/SEMG/MEMS_SEMG_KL25/KL25 Sample Code_I2c/KL25 Sample Code/kl25_sc_rev10/klxx-sc-baremetal/src/common\printf.c ****     }
 561:D:/kuaipan/SEMG/MEMS_SEMG_KL25/KL25 Sample Code_I2c/KL25 Sample Code/kl25_sc_rev10/klxx-sc-baremetal/src/common\printf.c ****     return count;
 562:D:/kuaipan/SEMG/MEMS_SEMG_KL25/KL25 Sample Code_I2c/KL25 Sample Code/kl25_sc_rev10/klxx-sc-baremetal/src/common\printf.c **** }
 486              		.loc 1 562 0
 487 0096 11B0     		add	sp, sp, #68
 488              		@ sp needed for prologue
 489              	.LVL72:
 490              	.LVL73:
 491 0098 3CBC     		pop	{r2, r3, r4, r5}
 492 009a 9046     		mov	r8, r2
 493 009c 9946     		mov	r9, r3
 494 009e A246     		mov	sl, r4
 495 00a0 AB46     		mov	fp, r5
 496 00a2 F0BD     		pop	{r4, r5, r6, r7, pc}
 497              	.LVL74:
 498              	.L173:
 256:D:/kuaipan/SEMG/MEMS_SEMG_KL25/KL25 Sample Code_I2c/KL25 Sample Code/kl25_sc_rev10/klxx-sc-baremetal/src/common\printf.c ****             switch (/* c = */ *++p)
 499              		.loc 1 256 0
 500 00a4 9200     		lsl	r2, r2, #2
 501 00a6 4946     		mov	r1, r9
 502 00a8 8A58     		ldr	r2, [r1, r2]
 503 00aa 9746     		mov	pc, r2
 504              		.section	.rodata.printk,"a",%progbits
 505              		.align	2
 506              	.L50:
 507 0000 E4000000 		.word	.L46
 508 0004 5C000000 		.word	.L49
 509 0008 5C000000 		.word	.L49
 510 000c DC000000 		.word	.L48
 511 0010 5C000000 		.word	.L49
 512 0014 5C000000 		.word	.L49
 513 0018 5C000000 		.word	.L49
 514 001c 5C000000 		.word	.L49
 515 0020 5C000000 		.word	.L49
 516 0024 5C000000 		.word	.L49
 517 0028 5C000000 		.word	.L49
 518 002c F2000000 		.word	.L45
 519 0030 5C000000 		.word	.L49
 520 0034 EA000000 		.word	.L43
 521 0038 5C000000 		.word	.L49
 522 003c 5C000000 		.word	.L49
 523 0040 D4000000 		.word	.L47
 524              		.section	.text.printk
 525              	.LVL75:
 526              	.L157:
 322:D:/kuaipan/SEMG/MEMS_SEMG_KL25/KL25 Sample Code_I2c/KL25 Sample Code/kl25_sc_rev10/klxx-sc-baremetal/src/common\printf.c ****                 switch (/* c = uncomment if used below */ *++p)
 527              		.loc 1 322 0
 528 00ac 231C     		mov	r3, r4
 529 00ae 0134     		add	r4, r4, #1
 530              	.LVL76:
 531 00b0 2078     		ldrb	r0, [r4]
 532 00b2 011C     		mov	r1, r0
 533 00b4 3039     		sub	r1, r1, #48
 534 00b6 0929     		cmp	r1, #9
 535 00b8 F8D9     		bls	.L157
 360:D:/kuaipan/SEMG/MEMS_SEMG_KL25/KL25 Sample Code_I2c/KL25 Sample Code/kl25_sc_rev10/klxx-sc-baremetal/src/common\printf.c ****         switch (*++p)
 536              		.loc 1 360 0
 537 00ba 6828     		cmp	r0, #104
 538 00bc D9D1     		bne	.L175
 539              	.L57:
 540 00be 9878     		ldrb	r0, [r3, #2]
 541 00c0 0134     		add	r4, r4, #1
 542              	.LVL77:
 377:D:/kuaipan/SEMG/MEMS_SEMG_KL25/KL25 Sample Code_I2c/KL25 Sample Code/kl25_sc_rev10/klxx-sc-baremetal/src/common\printf.c ****         switch (c = *++p)
 543              		.loc 1 377 0
 544 00c2 051C     		mov	r5, r0
 545 00c4 583D     		sub	r5, r5, #88
 546 00c6 EAB2     		uxtb	r2, r5
 547 00c8 202A     		cmp	r2, #32
 548 00ca DBD8     		bhi	.L58
 549              	.LVL78:
 550              	.L174:
 551 00cc 9049     		ldr	r1, .L184+4
 552 00ce 9300     		lsl	r3, r2, #2
 553 00d0 CD58     		ldr	r5, [r1, r3]
 554 00d2 AF46     		mov	pc, r5
 555              		.section	.rodata.printk
 556              		.align	2
 557              	.L68:
 558 0044 14030000 		.word	.L59
 559 0048 84000000 		.word	.L58
 560 004c 84000000 		.word	.L58
 561 0050 84000000 		.word	.L58
 562 0054 84000000 		.word	.L58
 563 0058 84000000 		.word	.L58
 564 005c 84000000 		.word	.L58
 565 0060 84000000 		.word	.L58
 566 0064 84000000 		.word	.L58
 567 0068 84000000 		.word	.L58
 568 006c EA020000 		.word	.L60
 569 0070 D6020000 		.word	.L61
 570 0074 82020000 		.word	.L62
 571 0078 84000000 		.word	.L58
 572 007c 84000000 		.word	.L58
 573 0080 84000000 		.word	.L58
 574 0084 84000000 		.word	.L58
 575 0088 82020000 		.word	.L62
 576 008c 84000000 		.word	.L58
 577 0090 84000000 		.word	.L58
 578 0094 84000000 		.word	.L58
 579 0098 84000000 		.word	.L58
 580 009c 74020000 		.word	.L63
 581 00a0 52020000 		.word	.L64
 582 00a4 BE010000 		.word	.L65
 583 00a8 84000000 		.word	.L58
 584 00ac 84000000 		.word	.L58
 585 00b0 74010000 		.word	.L66
 586 00b4 84000000 		.word	.L58
 587 00b8 14010000 		.word	.L67
 588 00bc 84000000 		.word	.L58
 589 00c0 84000000 		.word	.L58
 590 00c4 14030000 		.word	.L59
 591              		.section	.text.printk
 592              	.LVL79:
 593              	.L47:
 268:D:/kuaipan/SEMG/MEMS_SEMG_KL25/KL25 Sample Code_I2c/KL25 Sample Code/kl25_sc_rev10/klxx-sc-baremetal/src/common\printf.c ****                     flags_used |= FLAGS_ZERO;
 594              		.loc 1 268 0
 595 00d4 6346     		mov	r3, ip
 596              	.LVL80:
 597 00d6 1E43     		orr	r6, r3
 598              	.LVL81:
 599 00d8 0135     		add	r5, r5, #1
 600              	.LVL82:
 601 00da B8E7     		b	.L40
 602              	.LVL83:
 603              	.L48:
 271:D:/kuaipan/SEMG/MEMS_SEMG_KL25/KL25 Sample Code_I2c/KL25 Sample Code/kl25_sc_rev10/klxx-sc-baremetal/src/common\printf.c ****                     flags_used |= FLAGS_POUND;
 604              		.loc 1 271 0
 605 00dc 5946     		mov	r1, fp
 606 00de 0E43     		orr	r6, r1
 607              	.LVL84:
 608 00e0 0135     		add	r5, r5, #1
 609 00e2 B4E7     		b	.L40
 610              	.L46:
 265:D:/kuaipan/SEMG/MEMS_SEMG_KL25/KL25 Sample Code_I2c/KL25 Sample Code/kl25_sc_rev10/klxx-sc-baremetal/src/common\printf.c ****                     flags_used |= FLAGS_SPACE;
 611              		.loc 1 265 0
 612 00e4 3E43     		orr	r6, r7
 613              	.LVL85:
 614 00e6 0135     		add	r5, r5, #1
 615 00e8 B1E7     		b	.L40
 616              	.L43:
 259:D:/kuaipan/SEMG/MEMS_SEMG_KL25/KL25 Sample Code_I2c/KL25 Sample Code/kl25_sc_rev10/klxx-sc-baremetal/src/common\printf.c ****                     flags_used |= FLAGS_MINUS;
 617              		.loc 1 259 0
 618 00ea 0120     		mov	r0, #1
 619 00ec 0643     		orr	r6, r0
 620              	.LVL86:
 621 00ee 0135     		add	r5, r5, #1
 622 00f0 ADE7     		b	.L40
 623              	.L45:
 262:D:/kuaipan/SEMG/MEMS_SEMG_KL25/KL25 Sample Code_I2c/KL25 Sample Code/kl25_sc_rev10/klxx-sc-baremetal/src/common\printf.c ****                     flags_used |= FLAGS_PLUS;
 624              		.loc 1 262 0
 625 00f2 2643     		orr	r6, r4
 626              	.LVL87:
 627 00f4 0135     		add	r5, r5, #1
 628 00f6 AAE7     		b	.L40
 629              	.LVL88:
 630              	.L156:
 300:D:/kuaipan/SEMG/MEMS_SEMG_KL25/KL25 Sample Code_I2c/KL25 Sample Code/kl25_sc_rev10/klxx-sc-baremetal/src/common\printf.c ****                     field_width = (field_width * 10) + (c - '0');
 631              		.loc 1 300 0
 632 00f8 BB00     		lsl	r3, r7, #2
 633 00fa D819     		add	r0, r3, r7
 634              	.LVL89:
 635 00fc 4700     		lsl	r7, r0, #1
 636              	.LVL90:
 637 00fe 7F19     		add	r7, r7, r5
 638              	.LVL91:
 639 0100 6078     		ldrb	r0, [r4, #1]
 288:D:/kuaipan/SEMG/MEMS_SEMG_KL25/KL25 Sample Code_I2c/KL25 Sample Code/kl25_sc_rev10/klxx-sc-baremetal/src/common\printf.c ****             switch (c = *++p)
 640              		.loc 1 288 0
 641 0102 231C     		mov	r3, r4
 301:D:/kuaipan/SEMG/MEMS_SEMG_KL25/KL25 Sample Code_I2c/KL25 Sample Code/kl25_sc_rev10/klxx-sc-baremetal/src/common\printf.c ****                     break;
 642              		.loc 1 301 0
 643 0104 ABE7     		b	.L51
 644              	.LVL92:
 645              	.L41:
 235:D:/kuaipan/SEMG/MEMS_SEMG_KL25/KL25 Sample Code_I2c/KL25 Sample Code/kl25_sc_rev10/klxx-sc-baremetal/src/common\printf.c ****                 printk_putc(0x0D /* CR */, &count, info);
 646              		.loc 1 235 0
 647 0106 0D20     		mov	r0, #13
 648              	.LVL93:
 649 0108 04A9     		add	r1, sp, #16
 650 010a 4246     		mov	r2, r8
 651              	.LVL94:
 652 010c FFF7FEFF 		bl	printk_putc
 653              	.LVL95:
 236:D:/kuaipan/SEMG/MEMS_SEMG_KL25/KL25 Sample Code_I2c/KL25 Sample Code/kl25_sc_rev10/klxx-sc-baremetal/src/common\printf.c ****                 printk_putc(0x0A /* LF */, &count, info);
 654              		.loc 1 236 0
 655 0110 0A20     		mov	r0, #10
 656 0112 8AE7     		b	.L171
 657              	.LVL96:
 658              	.L67:
 502:D:/kuaipan/SEMG/MEMS_SEMG_KL25/KL25 Sample Code_I2c/KL25 Sample Code/kl25_sc_rev10/klxx-sc-baremetal/src/common\printf.c ****                 uval = (unsigned int)va_arg(ap, unsigned int);
 659              		.loc 1 502 0
 660 0114 5246     		mov	r2, sl
 661 0116 1368     		ldr	r3, [r2]
 662 0118 5046     		mov	r0, sl
 663 011a 0430     		add	r0, r0, #4
 503:D:/kuaipan/SEMG/MEMS_SEMG_KL25/KL25 Sample Code_I2c/KL25 Sample Code/kl25_sc_rev10/klxx-sc-baremetal/src/common\printf.c ****                 vlen = printk_mknumstr(vstr,&uval,FALSE,10);
 664              		.loc 1 503 0
 665 011c 07AD     		add	r5, sp, #28
 502:D:/kuaipan/SEMG/MEMS_SEMG_KL25/KL25 Sample Code_I2c/KL25 Sample Code/kl25_sc_rev10/klxx-sc-baremetal/src/common\printf.c ****                 uval = (unsigned int)va_arg(ap, unsigned int);
 666              		.loc 1 502 0
 667 011e 0090     		str	r0, [sp]
 668              	.LVL97:
 669 0120 0693     		str	r3, [sp, #24]
 503:D:/kuaipan/SEMG/MEMS_SEMG_KL25/KL25 Sample Code_I2c/KL25 Sample Code/kl25_sc_rev10/klxx-sc-baremetal/src/common\printf.c ****                 vlen = printk_mknumstr(vstr,&uval,FALSE,10);
 670              		.loc 1 503 0
 671 0122 06A9     		add	r1, sp, #24
 672 0124 281C     		mov	r0, r5
 673              	.LVL98:
 674 0126 0022     		mov	r2, #0
 675 0128 0A23     		mov	r3, #10
 676 012a FFF7FEFF 		bl	printk_mknumstr
 677              	.LVL99:
 502:D:/kuaipan/SEMG/MEMS_SEMG_KL25/KL25 Sample Code_I2c/KL25 Sample Code/kl25_sc_rev10/klxx-sc-baremetal/src/common\printf.c ****                 uval = (unsigned int)va_arg(ap, unsigned int);
 678              		.loc 1 502 0
 679 012e 0099     		ldr	r1, [sp]
 503:D:/kuaipan/SEMG/MEMS_SEMG_KL25/KL25 Sample Code_I2c/KL25 Sample Code/kl25_sc_rev10/klxx-sc-baremetal/src/common\printf.c ****                 vlen = printk_mknumstr(vstr,&uval,FALSE,10);
 680              		.loc 1 503 0
 681 0130 8346     		mov	fp, r0
 682              	.LVL100:
 502:D:/kuaipan/SEMG/MEMS_SEMG_KL25/KL25 Sample Code_I2c/KL25 Sample Code/kl25_sc_rev10/klxx-sc-baremetal/src/common\printf.c ****                 uval = (unsigned int)va_arg(ap, unsigned int);
 683              		.loc 1 502 0
 684 0132 8A46     		mov	sl, r1
 685              	.L86:
 686              	.LVL101:
 506:D:/kuaipan/SEMG/MEMS_SEMG_KL25/KL25 Sample Code_I2c/KL25 Sample Code/kl25_sc_rev10/klxx-sc-baremetal/src/common\printf.c ****                     vstrp = &vstr[vlen];
 687              		.loc 1 506 0
 688 0134 5D44     		add	r5, r5, fp
 689              	.LVL102:
 508:D:/kuaipan/SEMG/MEMS_SEMG_KL25/KL25 Sample Code_I2c/KL25 Sample Code/kl25_sc_rev10/klxx-sc-baremetal/src/common\printf.c ****                     if (IS_FLAG_ZERO(flags_used))
 690              		.loc 1 508 0
 691 0136 3307     		lsl	r3, r6, #28
 692 0138 54D4     		bmi	.L176
 693              	.L87:
 515:D:/kuaipan/SEMG/MEMS_SEMG_KL25/KL25 Sample Code_I2c/KL25 Sample Code/kl25_sc_rev10/klxx-sc-baremetal/src/common\printf.c ****                         if (!IS_FLAG_MINUS(flags_used))
 694              		.loc 1 515 0
 695 013a 0123     		mov	r3, #1
 696 013c 0093     		str	r3, [sp]
 697 013e F207     		lsl	r2, r6, #31
 698 0140 00D4     		bmi	.LCB732
 699 0142 3CE1     		b	.L177	@long jump
 700              	.LCB732:
 701              	.LVL103:
 702              	.L77:
 522:D:/kuaipan/SEMG/MEMS_SEMG_KL25/KL25 Sample Code_I2c/KL25 Sample Code/kl25_sc_rev10/klxx-sc-baremetal/src/common\printf.c ****                     while (*vstrp)
 703              		.loc 1 522 0
 704 0144 2878     		ldrb	r0, [r5]
 705 0146 4646     		mov	r6, r8
 706 0148 0028     		cmp	r0, #0
 707 014a 08D0     		beq	.L93
 708              	.LVL104:
 709              	.L123:
 523:D:/kuaipan/SEMG/MEMS_SEMG_KL25/KL25 Sample Code_I2c/KL25 Sample Code/kl25_sc_rev10/klxx-sc-baremetal/src/common\printf.c ****                         printk_putc(*vstrp--, &count, info);
 710              		.loc 1 523 0
 711 014c 013D     		sub	r5, r5, #1
 712              	.LVL105:
 713 014e 04A9     		add	r1, sp, #16
 714 0150 321C     		mov	r2, r6
 715 0152 FFF7FEFF 		bl	printk_putc
 716              	.LVL106:
 522:D:/kuaipan/SEMG/MEMS_SEMG_KL25/KL25 Sample Code_I2c/KL25 Sample Code/kl25_sc_rev10/klxx-sc-baremetal/src/common\printf.c ****                     while (*vstrp)
 717              		.loc 1 522 0
 718 0156 2878     		ldrb	r0, [r5]
 719 0158 0028     		cmp	r0, #0
 720 015a F7D1     		bne	.L123
 721 015c B046     		mov	r8, r6
 722              	.L93:
 525:D:/kuaipan/SEMG/MEMS_SEMG_KL25/KL25 Sample Code_I2c/KL25 Sample Code/kl25_sc_rev10/klxx-sc-baremetal/src/common\printf.c ****                     if (IS_FLAG_MINUS(flags_used))
 723              		.loc 1 525 0
 724 015e 009D     		ldr	r5, [sp]
 725              	.LVL107:
 726 0160 002D     		cmp	r5, #0
 727 0162 00D1     		bne	.LCB768
 728 0164 66E7     		b	.L42	@long jump
 729              	.LCB768:
 527:D:/kuaipan/SEMG/MEMS_SEMG_KL25/KL25 Sample Code_I2c/KL25 Sample Code/kl25_sc_rev10/klxx-sc-baremetal/src/common\printf.c ****                         printk_pad_space (vlen, field_width, &count, info);
 730              		.loc 1 527 0
 731 0166 5846     		mov	r0, fp
 732 0168 391C     		mov	r1, r7
 733 016a 04AA     		add	r2, sp, #16
 734 016c 4346     		mov	r3, r8
 735 016e FFF7FEFF 		bl	printk_pad_space
 736              	.LVL108:
 737 0172 5FE7     		b	.L42
 738              	.LVL109:
 739              	.L66:
 536:D:/kuaipan/SEMG/MEMS_SEMG_KL25/KL25 Sample Code_I2c/KL25 Sample Code/kl25_sc_rev10/klxx-sc-baremetal/src/common\printf.c ****                 sval = (char *)va_arg(ap, char *);
 740              		.loc 1 536 0
 741 0174 0425     		mov	r5, #4
 742 0176 5046     		mov	r0, sl
 743 0178 AB46     		mov	fp, r5
 744 017a 0568     		ldr	r5, [r0]
 745 017c D344     		add	fp, fp, sl
 746              	.LVL110:
 537:D:/kuaipan/SEMG/MEMS_SEMG_KL25/KL25 Sample Code_I2c/KL25 Sample Code/kl25_sc_rev10/klxx-sc-baremetal/src/common\printf.c ****                 if (sval)
 747              		.loc 1 537 0
 748 017e 002D     		cmp	r5, #0
 749 0180 1BD0     		beq	.L112
 539:D:/kuaipan/SEMG/MEMS_SEMG_KL25/KL25 Sample Code_I2c/KL25 Sample Code/kl25_sc_rev10/klxx-sc-baremetal/src/common\printf.c ****                     vlen = strlen(sval);
 750              		.loc 1 539 0
 751 0182 281C     		mov	r0, r5
 752 0184 FFF7FEFF 		bl	strlen
 753              	.LVL111:
 540:D:/kuaipan/SEMG/MEMS_SEMG_KL25/KL25 Sample Code_I2c/KL25 Sample Code/kl25_sc_rev10/klxx-sc-baremetal/src/common\printf.c ****                     if (!IS_FLAG_MINUS(flags_used))
 754              		.loc 1 540 0
 755 0188 0122     		mov	r2, #1
 539:D:/kuaipan/SEMG/MEMS_SEMG_KL25/KL25 Sample Code_I2c/KL25 Sample Code/kl25_sc_rev10/klxx-sc-baremetal/src/common\printf.c ****                     vlen = strlen(sval);
 756              		.loc 1 539 0
 757 018a 8246     		mov	sl, r0
 758              	.LVL112:
 540:D:/kuaipan/SEMG/MEMS_SEMG_KL25/KL25 Sample Code_I2c/KL25 Sample Code/kl25_sc_rev10/klxx-sc-baremetal/src/common\printf.c ****                     if (!IS_FLAG_MINUS(flags_used))
 759              		.loc 1 540 0
 760 018c 1640     		and	r6, r2
 761              	.LVL113:
 762 018e 00D1     		bne	.LCB802
 763 0190 80E1     		b	.L178	@long jump
 764              	.LCB802:
 765              	.LVL114:
 766              	.L94:
 544:D:/kuaipan/SEMG/MEMS_SEMG_KL25/KL25 Sample Code_I2c/KL25 Sample Code/kl25_sc_rev10/klxx-sc-baremetal/src/common\printf.c ****                     while (*sval)
 767              		.loc 1 544 0
 768 0192 2878     		ldrb	r0, [r5]
 769 0194 0028     		cmp	r0, #0
 770 0196 0DD0     		beq	.L98
 771 0198 4346     		mov	r3, r8
 772 019a A046     		mov	r8, r4
 773              	.LVL115:
 774 019c 1C1C     		mov	r4, r3
 775              	.LVL116:
 776              	.L125:
 545:D:/kuaipan/SEMG/MEMS_SEMG_KL25/KL25 Sample Code_I2c/KL25 Sample Code/kl25_sc_rev10/klxx-sc-baremetal/src/common\printf.c ****                         printk_putc(*sval++,&count, info);
 777              		.loc 1 545 0
 778 019e 0135     		add	r5, r5, #1
 779              	.LVL117:
 780 01a0 04A9     		add	r1, sp, #16
 781 01a2 221C     		mov	r2, r4
 782 01a4 FFF7FEFF 		bl	printk_putc
 783              	.LVL118:
 544:D:/kuaipan/SEMG/MEMS_SEMG_KL25/KL25 Sample Code_I2c/KL25 Sample Code/kl25_sc_rev10/klxx-sc-baremetal/src/common\printf.c ****                     while (*sval)
 784              		.loc 1 544 0
 785 01a8 2878     		ldrb	r0, [r5]
 786 01aa 0028     		cmp	r0, #0
 787 01ac F7D1     		bne	.L125
 788 01ae 211C     		mov	r1, r4
 789 01b0 4446     		mov	r4, r8
 790              	.LVL119:
 791 01b2 8846     		mov	r8, r1
 792              	.LVL120:
 793              	.L98:
 546:D:/kuaipan/SEMG/MEMS_SEMG_KL25/KL25 Sample Code_I2c/KL25 Sample Code/kl25_sc_rev10/klxx-sc-baremetal/src/common\printf.c ****                     if (IS_FLAG_MINUS(flags_used))
 794              		.loc 1 546 0
 795 01b4 002E     		cmp	r6, #0
 796 01b6 00D0     		beq	.LCB841
 797 01b8 64E1     		b	.L96	@long jump
 798              	.LCB841:
 799              	.LVL121:
 800              	.L112:
 536:D:/kuaipan/SEMG/MEMS_SEMG_KL25/KL25 Sample Code_I2c/KL25 Sample Code/kl25_sc_rev10/klxx-sc-baremetal/src/common\printf.c ****                 sval = (char *)va_arg(ap, char *);
 801              		.loc 1 536 0
 802 01ba DA46     		mov	sl, fp
 803 01bc 3AE7     		b	.L42
 804              	.LVL122:
 805              	.L65:
 498:D:/kuaipan/SEMG/MEMS_SEMG_KL25/KL25 Sample Code_I2c/KL25 Sample Code/kl25_sc_rev10/klxx-sc-baremetal/src/common\printf.c ****                 uval = (unsigned int)va_arg(ap, void *);
 806              		.loc 1 498 0
 807 01be 5546     		mov	r5, sl
 808 01c0 2A68     		ldr	r2, [r5]
 809 01c2 5046     		mov	r0, sl
 810 01c4 0430     		add	r0, r0, #4
 499:D:/kuaipan/SEMG/MEMS_SEMG_KL25/KL25 Sample Code_I2c/KL25 Sample Code/kl25_sc_rev10/klxx-sc-baremetal/src/common\printf.c ****                 vlen = printk_mknumstr(vstr,&uval,FALSE,16);
 811              		.loc 1 499 0
 812 01c6 07AD     		add	r5, sp, #28
 498:D:/kuaipan/SEMG/MEMS_SEMG_KL25/KL25 Sample Code_I2c/KL25 Sample Code/kl25_sc_rev10/klxx-sc-baremetal/src/common\printf.c ****                 uval = (unsigned int)va_arg(ap, void *);
 813              		.loc 1 498 0
 814 01c8 0090     		str	r0, [sp]
 815              	.LVL123:
 816 01ca 0692     		str	r2, [sp, #24]
 499:D:/kuaipan/SEMG/MEMS_SEMG_KL25/KL25 Sample Code_I2c/KL25 Sample Code/kl25_sc_rev10/klxx-sc-baremetal/src/common\printf.c ****                 vlen = printk_mknumstr(vstr,&uval,FALSE,16);
 817              		.loc 1 499 0
 818 01cc 281C     		mov	r0, r5
 819              	.LVL124:
 820 01ce 1023     		mov	r3, #16
 821 01d0 06A9     		add	r1, sp, #24
 822 01d2 0022     		mov	r2, #0
 823 01d4 FFF7FEFF 		bl	printk_mknumstr
 824              	.LVL125:
 498:D:/kuaipan/SEMG/MEMS_SEMG_KL25/KL25 Sample Code_I2c/KL25 Sample Code/kl25_sc_rev10/klxx-sc-baremetal/src/common\printf.c ****                 uval = (unsigned int)va_arg(ap, void *);
 825              		.loc 1 498 0
 826 01d8 009B     		ldr	r3, [sp]
 499:D:/kuaipan/SEMG/MEMS_SEMG_KL25/KL25 Sample Code_I2c/KL25 Sample Code/kl25_sc_rev10/klxx-sc-baremetal/src/common\printf.c ****                 vlen = printk_mknumstr(vstr,&uval,FALSE,16);
 827              		.loc 1 499 0
 828 01da 8346     		mov	fp, r0
 829              	.LVL126:
 498:D:/kuaipan/SEMG/MEMS_SEMG_KL25/KL25 Sample Code_I2c/KL25 Sample Code/kl25_sc_rev10/klxx-sc-baremetal/src/common\printf.c ****                 uval = (unsigned int)va_arg(ap, void *);
 830              		.loc 1 498 0
 831 01dc 9A46     		mov	sl, r3
 832              	.LVL127:
 506:D:/kuaipan/SEMG/MEMS_SEMG_KL25/KL25 Sample Code_I2c/KL25 Sample Code/kl25_sc_rev10/klxx-sc-baremetal/src/common\printf.c ****                     vstrp = &vstr[vlen];
 833              		.loc 1 506 0
 834 01de 5D44     		add	r5, r5, fp
 835              	.LVL128:
 508:D:/kuaipan/SEMG/MEMS_SEMG_KL25/KL25 Sample Code_I2c/KL25 Sample Code/kl25_sc_rev10/klxx-sc-baremetal/src/common\printf.c ****                     if (IS_FLAG_ZERO(flags_used))
 836              		.loc 1 508 0
 837 01e0 3307     		lsl	r3, r6, #28
 838 01e2 AAD5     		bpl	.L87
 839              	.LVL129:
 840              	.L176:
 841              	.LBB8:
 842              	.LBB9:
 162:D:/kuaipan/SEMG/MEMS_SEMG_KL25/KL25 Sample Code_I2c/KL25 Sample Code/kl25_sc_rev10/klxx-sc-baremetal/src/common\printf.c ****     for (i = curlen; i < field_width; i++)
 843              		.loc 1 162 0
 844 01e4 BB45     		cmp	fp, r7
 845 01e6 2FDA     		bge	.L159
 846 01e8 5946     		mov	r1, fp
 847 01ea C843     		mvn	r0, r1
 848              	.LVL130:
 849 01ec C319     		add	r3, r0, r7
 850 01ee 0122     		mov	r2, #1
 851 01f0 1A40     		and	r2, r3
 852 01f2 0092     		str	r2, [sp]
 164:D:/kuaipan/SEMG/MEMS_SEMG_KL25/KL25 Sample Code_I2c/KL25 Sample Code/kl25_sc_rev10/klxx-sc-baremetal/src/common\printf.c ****         printk_putc('0',count, info);
 853              		.loc 1 164 0
 854 01f4 04A9     		add	r1, sp, #16
 855              	.LVL131:
 856 01f6 3020     		mov	r0, #48
 857 01f8 4246     		mov	r2, r8
 858 01fa FFF7FEFF 		bl	printk_putc
 859              	.LVL132:
 162:D:/kuaipan/SEMG/MEMS_SEMG_KL25/KL25 Sample Code_I2c/KL25 Sample Code/kl25_sc_rev10/klxx-sc-baremetal/src/common\printf.c ****     for (i = curlen; i < field_width; i++)
 860              		.loc 1 162 0
 861 01fe 0121     		mov	r1, #1
 862 0200 8B44     		add	fp, fp, r1
 863              	.LVL133:
 864 0202 BB45     		cmp	fp, r7
 865 0204 20D0     		beq	.L159
 866 0206 0098     		ldr	r0, [sp]
 867 0208 0028     		cmp	r0, #0
 868 020a 08D0     		beq	.L168
 164:D:/kuaipan/SEMG/MEMS_SEMG_KL25/KL25 Sample Code_I2c/KL25 Sample Code/kl25_sc_rev10/klxx-sc-baremetal/src/common\printf.c ****         printk_putc('0',count, info);
 869              		.loc 1 164 0
 870 020c 3020     		mov	r0, #48
 871 020e 04A9     		add	r1, sp, #16
 872 0210 4246     		mov	r2, r8
 873 0212 FFF7FEFF 		bl	printk_putc
 874              	.LVL134:
 162:D:/kuaipan/SEMG/MEMS_SEMG_KL25/KL25 Sample Code_I2c/KL25 Sample Code/kl25_sc_rev10/klxx-sc-baremetal/src/common\printf.c ****     for (i = curlen; i < field_width; i++)
 875              		.loc 1 162 0
 876 0216 0123     		mov	r3, #1
 877 0218 9B44     		add	fp, fp, r3
 878              	.LVL135:
 879 021a BB45     		cmp	fp, r7
 880 021c 14D0     		beq	.L159
 881              	.LVL136:
 882              	.L168:
 883 021e 5A46     		mov	r2, fp
 884 0220 AB46     		mov	fp, r5
 885 0222 4546     		mov	r5, r8
 886              	.LVL137:
 887 0224 A046     		mov	r8, r4
 888              	.LVL138:
 889 0226 141C     		mov	r4, r2
 890              	.LVL139:
 891              	.L124:
 164:D:/kuaipan/SEMG/MEMS_SEMG_KL25/KL25 Sample Code_I2c/KL25 Sample Code/kl25_sc_rev10/klxx-sc-baremetal/src/common\printf.c ****         printk_putc('0',count, info);
 892              		.loc 1 164 0
 893 0228 3020     		mov	r0, #48
 894 022a 04A9     		add	r1, sp, #16
 895 022c 2A1C     		mov	r2, r5
 896 022e FFF7FEFF 		bl	printk_putc
 897              	.LVL140:
 162:D:/kuaipan/SEMG/MEMS_SEMG_KL25/KL25 Sample Code_I2c/KL25 Sample Code/kl25_sc_rev10/klxx-sc-baremetal/src/common\printf.c ****     for (i = curlen; i < field_width; i++)
 898              		.loc 1 162 0
 899 0232 0234     		add	r4, r4, #2
 164:D:/kuaipan/SEMG/MEMS_SEMG_KL25/KL25 Sample Code_I2c/KL25 Sample Code/kl25_sc_rev10/klxx-sc-baremetal/src/common\printf.c ****         printk_putc('0',count, info);
 900              		.loc 1 164 0
 901 0234 3020     		mov	r0, #48
 902 0236 04A9     		add	r1, sp, #16
 903 0238 2A1C     		mov	r2, r5
 904 023a FFF7FEFF 		bl	printk_putc
 905              	.LVL141:
 162:D:/kuaipan/SEMG/MEMS_SEMG_KL25/KL25 Sample Code_I2c/KL25 Sample Code/kl25_sc_rev10/klxx-sc-baremetal/src/common\printf.c ****     for (i = curlen; i < field_width; i++)
 906              		.loc 1 162 0
 907 023e BC42     		cmp	r4, r7
 908 0240 F2D1     		bne	.L124
 909 0242 4446     		mov	r4, r8
 910 0244 A846     		mov	r8, r5
 911              	.LVL142:
 912 0246 5D46     		mov	r5, fp
 913              	.LVL143:
 914              	.L159:
 915 0248 0121     		mov	r1, #1
 916 024a 3140     		and	r1, r6
 917 024c 0091     		str	r1, [sp]
 918 024e BB46     		mov	fp, r7
 919 0250 78E7     		b	.L77
 920              	.LVL144:
 921              	.L64:
 922              	.LBE9:
 923              	.LBE8:
 490:D:/kuaipan/SEMG/MEMS_SEMG_KL25/KL25 Sample Code_I2c/KL25 Sample Code/kl25_sc_rev10/klxx-sc-baremetal/src/common\printf.c ****                 uval = (unsigned int)va_arg(ap, unsigned int);
 924              		.loc 1 490 0
 925 0252 5046     		mov	r0, sl
 926 0254 0568     		ldr	r5, [r0]
 927 0256 5146     		mov	r1, sl
 928 0258 0431     		add	r1, r1, #4
 929 025a 0695     		str	r5, [sp, #24]
 491:D:/kuaipan/SEMG/MEMS_SEMG_KL25/KL25 Sample Code_I2c/KL25 Sample Code/kl25_sc_rev10/klxx-sc-baremetal/src/common\printf.c ****                 vlen = printk_mknumstr(vstr,&uval,FALSE,8);
 930              		.loc 1 491 0
 931 025c 07AD     		add	r5, sp, #28
 490:D:/kuaipan/SEMG/MEMS_SEMG_KL25/KL25 Sample Code_I2c/KL25 Sample Code/kl25_sc_rev10/klxx-sc-baremetal/src/common\printf.c ****                 uval = (unsigned int)va_arg(ap, unsigned int);
 932              		.loc 1 490 0
 933 025e 0091     		str	r1, [sp]
 934              	.LVL145:
 491:D:/kuaipan/SEMG/MEMS_SEMG_KL25/KL25 Sample Code_I2c/KL25 Sample Code/kl25_sc_rev10/klxx-sc-baremetal/src/common\printf.c ****                 vlen = printk_mknumstr(vstr,&uval,FALSE,8);
 935              		.loc 1 491 0
 936 0260 0022     		mov	r2, #0
 937 0262 281C     		mov	r0, r5
 938 0264 06A9     		add	r1, sp, #24
 939              	.LVL146:
 940 0266 0823     		mov	r3, #8
 941 0268 FFF7FEFF 		bl	printk_mknumstr
 942              	.LVL147:
 490:D:/kuaipan/SEMG/MEMS_SEMG_KL25/KL25 Sample Code_I2c/KL25 Sample Code/kl25_sc_rev10/klxx-sc-baremetal/src/common\printf.c ****                 uval = (unsigned int)va_arg(ap, unsigned int);
 943              		.loc 1 490 0
 944 026c 009A     		ldr	r2, [sp]
 491:D:/kuaipan/SEMG/MEMS_SEMG_KL25/KL25 Sample Code_I2c/KL25 Sample Code/kl25_sc_rev10/klxx-sc-baremetal/src/common\printf.c ****                 vlen = printk_mknumstr(vstr,&uval,FALSE,8);
 945              		.loc 1 491 0
 946 026e 8346     		mov	fp, r0
 947              	.LVL148:
 490:D:/kuaipan/SEMG/MEMS_SEMG_KL25/KL25 Sample Code_I2c/KL25 Sample Code/kl25_sc_rev10/klxx-sc-baremetal/src/common\printf.c ****                 uval = (unsigned int)va_arg(ap, unsigned int);
 948              		.loc 1 490 0
 949 0270 9246     		mov	sl, r2
 492:D:/kuaipan/SEMG/MEMS_SEMG_KL25/KL25 Sample Code_I2c/KL25 Sample Code/kl25_sc_rev10/klxx-sc-baremetal/src/common\printf.c ****                 goto cont_u;
 950              		.loc 1 492 0
 951 0272 5FE7     		b	.L86
 952              	.LVL149:
 953              	.L63:
 554:D:/kuaipan/SEMG/MEMS_SEMG_KL25/KL25 Sample Code_I2c/KL25 Sample Code/kl25_sc_rev10/klxx-sc-baremetal/src/common\printf.c ****                 *ivalp = count;
 954              		.loc 1 554 0
 955 0274 5646     		mov	r6, sl
 956              	.LVL150:
 957 0276 3768     		ldr	r7, [r6]
 958              	.LVL151:
 959 0278 049B     		ldr	r3, [sp, #16]
 553:D:/kuaipan/SEMG/MEMS_SEMG_KL25/KL25 Sample Code_I2c/KL25 Sample Code/kl25_sc_rev10/klxx-sc-baremetal/src/common\printf.c ****                 ivalp = (int *)va_arg(ap, int *);
 960              		.loc 1 553 0
 961 027a 0421     		mov	r1, #4
 554:D:/kuaipan/SEMG/MEMS_SEMG_KL25/KL25 Sample Code_I2c/KL25 Sample Code/kl25_sc_rev10/klxx-sc-baremetal/src/common\printf.c ****                 *ivalp = count;
 962              		.loc 1 554 0
 963 027c 3B60     		str	r3, [r7]
 553:D:/kuaipan/SEMG/MEMS_SEMG_KL25/KL25 Sample Code_I2c/KL25 Sample Code/kl25_sc_rev10/klxx-sc-baremetal/src/common\printf.c ****                 ivalp = (int *)va_arg(ap, int *);
 964              		.loc 1 553 0
 965 027e 8A44     		add	sl, sl, r1
 966              	.LVL152:
 555:D:/kuaipan/SEMG/MEMS_SEMG_KL25/KL25 Sample Code_I2c/KL25 Sample Code/kl25_sc_rev10/klxx-sc-baremetal/src/common\printf.c ****                 break;
 967              		.loc 1 555 0
 968 0280 D8E6     		b	.L42
 969              	.LVL153:
 970              	.L62:
 381:D:/kuaipan/SEMG/MEMS_SEMG_KL25/KL25 Sample Code_I2c/KL25 Sample Code/kl25_sc_rev10/klxx-sc-baremetal/src/common\printf.c ****                 ival = (int)va_arg(ap, int);
 971              		.loc 1 381 0
 972 0282 5546     		mov	r5, sl
 973 0284 2A68     		ldr	r2, [r5]
 974 0286 5046     		mov	r0, sl
 975 0288 0430     		add	r0, r0, #4
 976 028a 0190     		str	r0, [sp, #4]
 977              	.LVL154:
 978 028c 0592     		str	r2, [sp, #20]
 382:D:/kuaipan/SEMG/MEMS_SEMG_KL25/KL25 Sample Code_I2c/KL25 Sample Code/kl25_sc_rev10/klxx-sc-baremetal/src/common\printf.c ****                 vlen = printk_mknumstr(vstr,&ival,TRUE,10);
 979              		.loc 1 382 0
 980 028e 05A9     		add	r1, sp, #20
 981 0290 0A23     		mov	r3, #10
 982 0292 07A8     		add	r0, sp, #28
 983              	.LVL155:
 984 0294 0122     		mov	r2, #1
 985 0296 FFF7FEFF 		bl	printk_mknumstr
 986              	.LVL156:
 383:D:/kuaipan/SEMG/MEMS_SEMG_KL25/KL25 Sample Code_I2c/KL25 Sample Code/kl25_sc_rev10/klxx-sc-baremetal/src/common\printf.c ****                 vstrp = &vstr[vlen];
 987              		.loc 1 383 0
 988 029a 07AB     		add	r3, sp, #28
 385:D:/kuaipan/SEMG/MEMS_SEMG_KL25/KL25 Sample Code_I2c/KL25 Sample Code/kl25_sc_rev10/klxx-sc-baremetal/src/common\printf.c ****                 if (ival < 0)
 989              		.loc 1 385 0
 990 029c 0599     		ldr	r1, [sp, #20]
 382:D:/kuaipan/SEMG/MEMS_SEMG_KL25/KL25 Sample Code_I2c/KL25 Sample Code/kl25_sc_rev10/klxx-sc-baremetal/src/common\printf.c ****                 vlen = printk_mknumstr(vstr,&ival,TRUE,10);
 991              		.loc 1 382 0
 992 029e 8346     		mov	fp, r0
 993              	.LVL157:
 383:D:/kuaipan/SEMG/MEMS_SEMG_KL25/KL25 Sample Code_I2c/KL25 Sample Code/kl25_sc_rev10/klxx-sc-baremetal/src/common\printf.c ****                 vstrp = &vstr[vlen];
 994              		.loc 1 383 0
 995 02a0 1D1C     		mov	r5, r3
 996 02a2 5D44     		add	r5, r5, fp
 997              	.LVL158:
 385:D:/kuaipan/SEMG/MEMS_SEMG_KL25/KL25 Sample Code_I2c/KL25 Sample Code/kl25_sc_rev10/klxx-sc-baremetal/src/common\printf.c ****                 if (ival < 0)
 998              		.loc 1 385 0
 999 02a4 0029     		cmp	r1, #0
 1000 02a6 00DA     		bge	.LCB1059
 1001 02a8 06E1     		b	.L179	@long jump
 1002              	.LCB1059:
 392:D:/kuaipan/SEMG/MEMS_SEMG_KL25/KL25 Sample Code_I2c/KL25 Sample Code/kl25_sc_rev10/klxx-sc-baremetal/src/common\printf.c ****                     if (IS_FLAG_PLUS(flags_used))
 1003              		.loc 1 392 0
 1004 02aa B207     		lsl	r2, r6, #30
 1005 02ac 00D4     		bmi	.LCB1063
 1006 02ae ABE0     		b	.L71	@long jump
 1007              	.LCB1063:
 1008              	.LVL159:
 395:D:/kuaipan/SEMG/MEMS_SEMG_KL25/KL25 Sample Code_I2c/KL25 Sample Code/kl25_sc_rev10/klxx-sc-baremetal/src/common\printf.c ****                         ++vlen;
 1009              		.loc 1 395 0
 1010 02b0 0120     		mov	r0, #1
 1011              	.LVL160:
 394:D:/kuaipan/SEMG/MEMS_SEMG_KL25/KL25 Sample Code_I2c/KL25 Sample Code/kl25_sc_rev10/klxx-sc-baremetal/src/common\printf.c ****                         schar = '+';
 1012              		.loc 1 394 0
 1013 02b2 2B22     		mov	r2, #43
 395:D:/kuaipan/SEMG/MEMS_SEMG_KL25/KL25 Sample Code_I2c/KL25 Sample Code/kl25_sc_rev10/klxx-sc-baremetal/src/common\printf.c ****                         ++vlen;
 1014              		.loc 1 395 0
 1015 02b4 8344     		add	fp, fp, r0
 1016              	.LVL161:
 394:D:/kuaipan/SEMG/MEMS_SEMG_KL25/KL25 Sample Code_I2c/KL25 Sample Code/kl25_sc_rev10/klxx-sc-baremetal/src/common\printf.c ****                         schar = '+';
 1017              		.loc 1 394 0
 1018 02b6 9246     		mov	sl, r2
 1019              	.LVL162:
 1020              	.L70:
 415:D:/kuaipan/SEMG/MEMS_SEMG_KL25/KL25 Sample Code_I2c/KL25 Sample Code/kl25_sc_rev10/klxx-sc-baremetal/src/common\printf.c ****                 if (IS_FLAG_ZERO(flags_used))
 1021              		.loc 1 415 0
 1022 02b8 3307     		lsl	r3, r6, #28
 1023 02ba 00D5     		bpl	.LCB1082
 1024 02bc 4EE1     		b	.L101	@long jump
 1025              	.LCB1082:
 426:D:/kuaipan/SEMG/MEMS_SEMG_KL25/KL25 Sample Code_I2c/KL25 Sample Code/kl25_sc_rev10/klxx-sc-baremetal/src/common\printf.c ****                     if (!IS_FLAG_MINUS(flags_used))
 1026              		.loc 1 426 0
 1027 02be F107     		lsl	r1, r6, #31
 1028 02c0 00D4     		bmi	.LCB1087
 1029 02c2 38E1     		b	.L106	@long jump
 1030              	.LCB1087:
 438:D:/kuaipan/SEMG/MEMS_SEMG_KL25/KL25 Sample Code_I2c/KL25 Sample Code/kl25_sc_rev10/klxx-sc-baremetal/src/common\printf.c ****                 if (!dschar && schar)
 1031              		.loc 1 438 0
 1032 02c4 5646     		mov	r6, sl
 1033              	.LVL163:
 1034 02c6 002E     		cmp	r6, #0
 1035 02c8 00D0     		beq	.LCB1093
 1036 02ca 1BE1     		b	.L100	@long jump
 1037              	.LCB1093:
 381:D:/kuaipan/SEMG/MEMS_SEMG_KL25/KL25 Sample Code_I2c/KL25 Sample Code/kl25_sc_rev10/klxx-sc-baremetal/src/common\printf.c ****                 ival = (int)va_arg(ap, int);
 1038              		.loc 1 381 0
 1039 02cc 0198     		ldr	r0, [sp, #4]
 438:D:/kuaipan/SEMG/MEMS_SEMG_KL25/KL25 Sample Code_I2c/KL25 Sample Code/kl25_sc_rev10/klxx-sc-baremetal/src/common\printf.c ****                 if (!dschar && schar)
 1040              		.loc 1 438 0
 1041 02ce 0122     		mov	r2, #1
 381:D:/kuaipan/SEMG/MEMS_SEMG_KL25/KL25 Sample Code_I2c/KL25 Sample Code/kl25_sc_rev10/klxx-sc-baremetal/src/common\printf.c ****                 ival = (int)va_arg(ap, int);
 1042              		.loc 1 381 0
 1043 02d0 8246     		mov	sl, r0
 1044              	.LVL164:
 438:D:/kuaipan/SEMG/MEMS_SEMG_KL25/KL25 Sample Code_I2c/KL25 Sample Code/kl25_sc_rev10/klxx-sc-baremetal/src/common\printf.c ****                 if (!dschar && schar)
 1045              		.loc 1 438 0
 1046 02d2 0092     		str	r2, [sp]
 1047 02d4 36E7     		b	.L77
 1048              	.LVL165:
 1049              	.L61:
 563:D:/kuaipan/SEMG/MEMS_SEMG_KL25/KL25 Sample Code_I2c/KL25 Sample Code/kl25_sc_rev10/klxx-sc-baremetal/src/common\printf.c **** 
 564:D:/kuaipan/SEMG/MEMS_SEMG_KL25/KL25 Sample Code_I2c/KL25 Sample Code/kl25_sc_rev10/klxx-sc-baremetal/src/common\printf.c **** /********************************************************************/
 565:D:/kuaipan/SEMG/MEMS_SEMG_KL25/KL25 Sample Code_I2c/KL25 Sample Code/kl25_sc_rev10/klxx-sc-baremetal/src/common\printf.c **** int
 566:D:/kuaipan/SEMG/MEMS_SEMG_KL25/KL25 Sample Code_I2c/KL25 Sample Code/kl25_sc_rev10/klxx-sc-baremetal/src/common\printf.c **** printf (const char *fmt, ...)
 567:D:/kuaipan/SEMG/MEMS_SEMG_KL25/KL25 Sample Code_I2c/KL25 Sample Code/kl25_sc_rev10/klxx-sc-baremetal/src/common\printf.c **** {
 568:D:/kuaipan/SEMG/MEMS_SEMG_KL25/KL25 Sample Code_I2c/KL25 Sample Code/kl25_sc_rev10/klxx-sc-baremetal/src/common\printf.c ****     va_list ap;
 569:D:/kuaipan/SEMG/MEMS_SEMG_KL25/KL25 Sample Code_I2c/KL25 Sample Code/kl25_sc_rev10/klxx-sc-baremetal/src/common\printf.c ****     int rvalue;
 570:D:/kuaipan/SEMG/MEMS_SEMG_KL25/KL25 Sample Code_I2c/KL25 Sample Code/kl25_sc_rev10/klxx-sc-baremetal/src/common\printf.c ****     PRINTK_INFO info;
 571:D:/kuaipan/SEMG/MEMS_SEMG_KL25/KL25 Sample Code_I2c/KL25 Sample Code/kl25_sc_rev10/klxx-sc-baremetal/src/common\printf.c **** 
 572:D:/kuaipan/SEMG/MEMS_SEMG_KL25/KL25 Sample Code_I2c/KL25 Sample Code/kl25_sc_rev10/klxx-sc-baremetal/src/common\printf.c **** 
 573:D:/kuaipan/SEMG/MEMS_SEMG_KL25/KL25 Sample Code_I2c/KL25 Sample Code/kl25_sc_rev10/klxx-sc-baremetal/src/common\printf.c ****     info.dest = DEST_CONSOLE;
 574:D:/kuaipan/SEMG/MEMS_SEMG_KL25/KL25 Sample Code_I2c/KL25 Sample Code/kl25_sc_rev10/klxx-sc-baremetal/src/common\printf.c ****     info.func = &out_char;
 575:D:/kuaipan/SEMG/MEMS_SEMG_KL25/KL25 Sample Code_I2c/KL25 Sample Code/kl25_sc_rev10/klxx-sc-baremetal/src/common\printf.c ****     /*
 576:D:/kuaipan/SEMG/MEMS_SEMG_KL25/KL25 Sample Code_I2c/KL25 Sample Code/kl25_sc_rev10/klxx-sc-baremetal/src/common\printf.c ****      * Initialize the pointer to the variable length argument list.
 577:D:/kuaipan/SEMG/MEMS_SEMG_KL25/KL25 Sample Code_I2c/KL25 Sample Code/kl25_sc_rev10/klxx-sc-baremetal/src/common\printf.c ****      */
 578:D:/kuaipan/SEMG/MEMS_SEMG_KL25/KL25 Sample Code_I2c/KL25 Sample Code/kl25_sc_rev10/klxx-sc-baremetal/src/common\printf.c ****     va_start(ap, fmt);
 579:D:/kuaipan/SEMG/MEMS_SEMG_KL25/KL25 Sample Code_I2c/KL25 Sample Code/kl25_sc_rev10/klxx-sc-baremetal/src/common\printf.c ****     rvalue = printk(&info, fmt, ap);
 580:D:/kuaipan/SEMG/MEMS_SEMG_KL25/KL25 Sample Code_I2c/KL25 Sample Code/kl25_sc_rev10/klxx-sc-baremetal/src/common\printf.c ****     /*
 581:D:/kuaipan/SEMG/MEMS_SEMG_KL25/KL25 Sample Code_I2c/KL25 Sample Code/kl25_sc_rev10/klxx-sc-baremetal/src/common\printf.c ****      * Cleanup the variable length argument list.
 582:D:/kuaipan/SEMG/MEMS_SEMG_KL25/KL25 Sample Code_I2c/KL25 Sample Code/kl25_sc_rev10/klxx-sc-baremetal/src/common\printf.c ****      */
 583:D:/kuaipan/SEMG/MEMS_SEMG_KL25/KL25 Sample Code_I2c/KL25 Sample Code/kl25_sc_rev10/klxx-sc-baremetal/src/common\printf.c ****     va_end(ap);
 584:D:/kuaipan/SEMG/MEMS_SEMG_KL25/KL25 Sample Code_I2c/KL25 Sample Code/kl25_sc_rev10/klxx-sc-baremetal/src/common\printf.c ****     return rvalue;
 585:D:/kuaipan/SEMG/MEMS_SEMG_KL25/KL25 Sample Code_I2c/KL25 Sample Code/kl25_sc_rev10/klxx-sc-baremetal/src/common\printf.c **** }
 586:D:/kuaipan/SEMG/MEMS_SEMG_KL25/KL25 Sample Code_I2c/KL25 Sample Code/kl25_sc_rev10/klxx-sc-baremetal/src/common\printf.c **** 
 587:D:/kuaipan/SEMG/MEMS_SEMG_KL25/KL25 Sample Code_I2c/KL25 Sample Code/kl25_sc_rev10/klxx-sc-baremetal/src/common\printf.c **** /********************************************************************/
 588:D:/kuaipan/SEMG/MEMS_SEMG_KL25/KL25 Sample Code_I2c/KL25 Sample Code/kl25_sc_rev10/klxx-sc-baremetal/src/common\printf.c **** int
 589:D:/kuaipan/SEMG/MEMS_SEMG_KL25/KL25 Sample Code_I2c/KL25 Sample Code/kl25_sc_rev10/klxx-sc-baremetal/src/common\printf.c **** sprintf (char *s, const char *fmt, ...)
 590:D:/kuaipan/SEMG/MEMS_SEMG_KL25/KL25 Sample Code_I2c/KL25 Sample Code/kl25_sc_rev10/klxx-sc-baremetal/src/common\printf.c **** {
 591:D:/kuaipan/SEMG/MEMS_SEMG_KL25/KL25 Sample Code_I2c/KL25 Sample Code/kl25_sc_rev10/klxx-sc-baremetal/src/common\printf.c ****     va_list ap;
 592:D:/kuaipan/SEMG/MEMS_SEMG_KL25/KL25 Sample Code_I2c/KL25 Sample Code/kl25_sc_rev10/klxx-sc-baremetal/src/common\printf.c ****     int rvalue = 0;
 593:D:/kuaipan/SEMG/MEMS_SEMG_KL25/KL25 Sample Code_I2c/KL25 Sample Code/kl25_sc_rev10/klxx-sc-baremetal/src/common\printf.c ****     PRINTK_INFO info;
 594:D:/kuaipan/SEMG/MEMS_SEMG_KL25/KL25 Sample Code_I2c/KL25 Sample Code/kl25_sc_rev10/klxx-sc-baremetal/src/common\printf.c **** 
 595:D:/kuaipan/SEMG/MEMS_SEMG_KL25/KL25 Sample Code_I2c/KL25 Sample Code/kl25_sc_rev10/klxx-sc-baremetal/src/common\printf.c ****     /*
 596:D:/kuaipan/SEMG/MEMS_SEMG_KL25/KL25 Sample Code_I2c/KL25 Sample Code/kl25_sc_rev10/klxx-sc-baremetal/src/common\printf.c ****      * Initialize the pointer to the variable length argument list.
 597:D:/kuaipan/SEMG/MEMS_SEMG_KL25/KL25 Sample Code_I2c/KL25 Sample Code/kl25_sc_rev10/klxx-sc-baremetal/src/common\printf.c ****      */
 598:D:/kuaipan/SEMG/MEMS_SEMG_KL25/KL25 Sample Code_I2c/KL25 Sample Code/kl25_sc_rev10/klxx-sc-baremetal/src/common\printf.c ****     if (s != 0)
 599:D:/kuaipan/SEMG/MEMS_SEMG_KL25/KL25 Sample Code_I2c/KL25 Sample Code/kl25_sc_rev10/klxx-sc-baremetal/src/common\printf.c ****     {
 600:D:/kuaipan/SEMG/MEMS_SEMG_KL25/KL25 Sample Code_I2c/KL25 Sample Code/kl25_sc_rev10/klxx-sc-baremetal/src/common\printf.c ****         info.dest = DEST_STRING;
 601:D:/kuaipan/SEMG/MEMS_SEMG_KL25/KL25 Sample Code_I2c/KL25 Sample Code/kl25_sc_rev10/klxx-sc-baremetal/src/common\printf.c ****         info.loc = s;
 602:D:/kuaipan/SEMG/MEMS_SEMG_KL25/KL25 Sample Code_I2c/KL25 Sample Code/kl25_sc_rev10/klxx-sc-baremetal/src/common\printf.c ****         va_start(ap, fmt);
 603:D:/kuaipan/SEMG/MEMS_SEMG_KL25/KL25 Sample Code_I2c/KL25 Sample Code/kl25_sc_rev10/klxx-sc-baremetal/src/common\printf.c ****         rvalue = printk(&info, fmt, ap);
 604:D:/kuaipan/SEMG/MEMS_SEMG_KL25/KL25 Sample Code_I2c/KL25 Sample Code/kl25_sc_rev10/klxx-sc-baremetal/src/common\printf.c ****         *info.loc = '\0';
 605:D:/kuaipan/SEMG/MEMS_SEMG_KL25/KL25 Sample Code_I2c/KL25 Sample Code/kl25_sc_rev10/klxx-sc-baremetal/src/common\printf.c ****         va_end(ap);
 606:D:/kuaipan/SEMG/MEMS_SEMG_KL25/KL25 Sample Code_I2c/KL25 Sample Code/kl25_sc_rev10/klxx-sc-baremetal/src/common\printf.c ****     }
 607:D:/kuaipan/SEMG/MEMS_SEMG_KL25/KL25 Sample Code_I2c/KL25 Sample Code/kl25_sc_rev10/klxx-sc-baremetal/src/common\printf.c ****     return rvalue;
 608:D:/kuaipan/SEMG/MEMS_SEMG_KL25/KL25 Sample Code_I2c/KL25 Sample Code/kl25_sc_rev10/klxx-sc-baremetal/src/common\printf.c **** }
 1050              		.loc 1 608 0
 1051 02d6 5346     		mov	r3, sl
 532:D:/kuaipan/SEMG/MEMS_SEMG_KL25/KL25 Sample Code_I2c/KL25 Sample Code/kl25_sc_rev10/klxx-sc-baremetal/src/common\printf.c ****                 cval = (char)va_arg(ap, unsigned int);
 1052              		.loc 1 532 0
 1053 02d8 5746     		mov	r7, sl
 1054              	.LVL166:
 1055 02da 0437     		add	r7, r7, #4
 1056              	.LVL167:
 1057              		.loc 1 608 0
 1058 02dc 1878     		ldrb	r0, [r3]
 533:D:/kuaipan/SEMG/MEMS_SEMG_KL25/KL25 Sample Code_I2c/KL25 Sample Code/kl25_sc_rev10/klxx-sc-baremetal/src/common\printf.c ****                 printk_putc(cval,&count, info);
 1059              		.loc 1 533 0
 1060 02de 04A9     		add	r1, sp, #16
 1061 02e0 4246     		mov	r2, r8
 1062 02e2 FFF7FEFF 		bl	printk_putc
 1063              	.LVL168:
 532:D:/kuaipan/SEMG/MEMS_SEMG_KL25/KL25 Sample Code_I2c/KL25 Sample Code/kl25_sc_rev10/klxx-sc-baremetal/src/common\printf.c ****                 cval = (char)va_arg(ap, unsigned int);
 1064              		.loc 1 532 0
 1065 02e6 BA46     		mov	sl, r7
 534:D:/kuaipan/SEMG/MEMS_SEMG_KL25/KL25 Sample Code_I2c/KL25 Sample Code/kl25_sc_rev10/klxx-sc-baremetal/src/common\printf.c ****                 break;
 1066              		.loc 1 534 0
 1067 02e8 A4E6     		b	.L42
 1068              	.LVL169:
 1069              	.L60:
 494:D:/kuaipan/SEMG/MEMS_SEMG_KL25/KL25 Sample Code_I2c/KL25 Sample Code/kl25_sc_rev10/klxx-sc-baremetal/src/common\printf.c ****                 uval = (unsigned int)va_arg(ap, unsigned int);
 1070              		.loc 1 494 0
 1071 02ea 5046     		mov	r0, sl
 1072 02ec 0568     		ldr	r5, [r0]
 1073 02ee 5146     		mov	r1, sl
 1074 02f0 0431     		add	r1, r1, #4
 1075 02f2 0695     		str	r5, [sp, #24]
 495:D:/kuaipan/SEMG/MEMS_SEMG_KL25/KL25 Sample Code_I2c/KL25 Sample Code/kl25_sc_rev10/klxx-sc-baremetal/src/common\printf.c ****                 vlen = printk_mknumstr(vstr,&uval,FALSE,2);
 1076              		.loc 1 495 0
 1077 02f4 07AD     		add	r5, sp, #28
 494:D:/kuaipan/SEMG/MEMS_SEMG_KL25/KL25 Sample Code_I2c/KL25 Sample Code/kl25_sc_rev10/klxx-sc-baremetal/src/common\printf.c ****                 uval = (unsigned int)va_arg(ap, unsigned int);
 1078              		.loc 1 494 0
 1079 02f6 0091     		str	r1, [sp]
 1080              	.LVL170:
 495:D:/kuaipan/SEMG/MEMS_SEMG_KL25/KL25 Sample Code_I2c/KL25 Sample Code/kl25_sc_rev10/klxx-sc-baremetal/src/common\printf.c ****                 vlen = printk_mknumstr(vstr,&uval,FALSE,2);
 1081              		.loc 1 495 0
 1082 02f8 0022     		mov	r2, #0
 1083 02fa 281C     		mov	r0, r5
 1084 02fc 06A9     		add	r1, sp, #24
 1085              	.LVL171:
 1086 02fe 0223     		mov	r3, #2
 1087 0300 FFF7FEFF 		bl	printk_mknumstr
 1088              	.LVL172:
 494:D:/kuaipan/SEMG/MEMS_SEMG_KL25/KL25 Sample Code_I2c/KL25 Sample Code/kl25_sc_rev10/klxx-sc-baremetal/src/common\printf.c ****                 uval = (unsigned int)va_arg(ap, unsigned int);
 1089              		.loc 1 494 0
 1090 0304 009A     		ldr	r2, [sp]
 495:D:/kuaipan/SEMG/MEMS_SEMG_KL25/KL25 Sample Code_I2c/KL25 Sample Code/kl25_sc_rev10/klxx-sc-baremetal/src/common\printf.c ****                 vlen = printk_mknumstr(vstr,&uval,FALSE,2);
 1091              		.loc 1 495 0
 1092 0306 8346     		mov	fp, r0
 1093              	.LVL173:
 494:D:/kuaipan/SEMG/MEMS_SEMG_KL25/KL25 Sample Code_I2c/KL25 Sample Code/kl25_sc_rev10/klxx-sc-baremetal/src/common\printf.c ****                 uval = (unsigned int)va_arg(ap, unsigned int);
 1094              		.loc 1 494 0
 1095 0308 9246     		mov	sl, r2
 496:D:/kuaipan/SEMG/MEMS_SEMG_KL25/KL25 Sample Code_I2c/KL25 Sample Code/kl25_sc_rev10/klxx-sc-baremetal/src/common\printf.c ****                 goto cont_u;
 1096              		.loc 1 496 0
 1097 030a 13E7     		b	.L86
 1098              	.L185:
 1099              		.align	2
 1100              	.L184:
 1101 030c 00000000 		.word	.L50
 1102 0310 44000000 		.word	.L68
 1103              	.LVL174:
 1104              	.L59:
 446:D:/kuaipan/SEMG/MEMS_SEMG_KL25/KL25 Sample Code_I2c/KL25 Sample Code/kl25_sc_rev10/klxx-sc-baremetal/src/common\printf.c ****                 uval = (unsigned int)va_arg(ap, unsigned int);
 1105              		.loc 1 446 0
 1106 0314 5346     		mov	r3, sl
 1107 0316 1A68     		ldr	r2, [r3]
 1108 0318 5046     		mov	r0, sl
 1109 031a 0430     		add	r0, r0, #4
 1110 031c 0190     		str	r0, [sp, #4]
 1111              	.LVL175:
 1112 031e 0692     		str	r2, [sp, #24]
 447:D:/kuaipan/SEMG/MEMS_SEMG_KL25/KL25 Sample Code_I2c/KL25 Sample Code/kl25_sc_rev10/klxx-sc-baremetal/src/common\printf.c ****                 vlen = printk_mknumstr(vstr,&uval,FALSE,16);
 1113              		.loc 1 447 0
 1114 0320 07A8     		add	r0, sp, #28
 1115              	.LVL176:
 1116 0322 06A9     		add	r1, sp, #24
 1117 0324 0022     		mov	r2, #0
 1118 0326 1023     		mov	r3, #16
 1119 0328 FFF7FEFF 		bl	printk_mknumstr
 1120              	.LVL177:
 448:D:/kuaipan/SEMG/MEMS_SEMG_KL25/KL25 Sample Code_I2c/KL25 Sample Code/kl25_sc_rev10/klxx-sc-baremetal/src/common\printf.c ****                 vstrp = &vstr[vlen];
 1121              		.loc 1 448 0
 1122 032c 07AD     		add	r5, sp, #28
 447:D:/kuaipan/SEMG/MEMS_SEMG_KL25/KL25 Sample Code_I2c/KL25 Sample Code/kl25_sc_rev10/klxx-sc-baremetal/src/common\printf.c ****                 vlen = printk_mknumstr(vstr,&uval,FALSE,16);
 1123              		.loc 1 447 0
 1124 032e 8346     		mov	fp, r0
 1125              	.LVL178:
 448:D:/kuaipan/SEMG/MEMS_SEMG_KL25/KL25 Sample Code_I2c/KL25 Sample Code/kl25_sc_rev10/klxx-sc-baremetal/src/common\printf.c ****                 vstrp = &vstr[vlen];
 1126              		.loc 1 448 0
 1127 0330 5D44     		add	r5, r5, fp
 1128              	.LVL179:
 451:D:/kuaipan/SEMG/MEMS_SEMG_KL25/KL25 Sample Code_I2c/KL25 Sample Code/kl25_sc_rev10/klxx-sc-baremetal/src/common\printf.c ****                 if (IS_FLAG_ZERO(flags_used))
 1129              		.loc 1 451 0
 1130 0332 3107     		lsl	r1, r6, #28
 1131 0334 4CD5     		bpl	.L78
 453:D:/kuaipan/SEMG/MEMS_SEMG_KL25/KL25 Sample Code_I2c/KL25 Sample Code/kl25_sc_rev10/klxx-sc-baremetal/src/common\printf.c ****                     if (IS_FLAG_POUND(flags_used))
 1132              		.loc 1 453 0
 1133 0336 1021     		mov	r1, #16
 1134 0338 3140     		and	r1, r6
 450:D:/kuaipan/SEMG/MEMS_SEMG_KL25/KL25 Sample Code_I2c/KL25 Sample Code/kl25_sc_rev10/klxx-sc-baremetal/src/common\printf.c ****                 dschar = FALSE;
 1135              		.loc 1 450 0
 1136 033a 0020     		mov	r0, #0
 1137              	.LVL180:
 453:D:/kuaipan/SEMG/MEMS_SEMG_KL25/KL25 Sample Code_I2c/KL25 Sample Code/kl25_sc_rev10/klxx-sc-baremetal/src/common\printf.c ****                     if (IS_FLAG_POUND(flags_used))
 1138              		.loc 1 453 0
 1139 033c 0091     		str	r1, [sp]
 450:D:/kuaipan/SEMG/MEMS_SEMG_KL25/KL25 Sample Code_I2c/KL25 Sample Code/kl25_sc_rev10/klxx-sc-baremetal/src/common\printf.c ****                 dschar = FALSE;
 1140              		.loc 1 450 0
 1141 033e 0290     		str	r0, [sp, #8]
 453:D:/kuaipan/SEMG/MEMS_SEMG_KL25/KL25 Sample Code_I2c/KL25 Sample Code/kl25_sc_rev10/klxx-sc-baremetal/src/common\printf.c ****                     if (IS_FLAG_POUND(flags_used))
 1142              		.loc 1 453 0
 1143 0340 0029     		cmp	r1, #0
 1144 0342 00D0     		beq	.LCB1200
 1145 0344 E8E0     		b	.L180	@long jump
 1146              	.LCB1200:
 1147              	.LVL181:
 1148              	.L79:
 1149              	.LBB10:
 1150              	.LBB11:
 162:D:/kuaipan/SEMG/MEMS_SEMG_KL25/KL25 Sample Code_I2c/KL25 Sample Code/kl25_sc_rev10/klxx-sc-baremetal/src/common\printf.c ****     for (i = curlen; i < field_width; i++)
 1151              		.loc 1 162 0
 1152 0346 BB45     		cmp	fp, r7
 1153 0348 2FDA     		bge	.L80
 1154 034a 5A46     		mov	r2, fp
 1155 034c D143     		mvn	r1, r2
 1156 034e C819     		add	r0, r1, r7
 1157 0350 0123     		mov	r3, #1
 1158 0352 0340     		and	r3, r0
 164:D:/kuaipan/SEMG/MEMS_SEMG_KL25/KL25 Sample Code_I2c/KL25 Sample Code/kl25_sc_rev10/klxx-sc-baremetal/src/common\printf.c ****         printk_putc('0',count, info);
 1159              		.loc 1 164 0
 1160 0354 4246     		mov	r2, r8
 1161 0356 3020     		mov	r0, #48
 1162 0358 04A9     		add	r1, sp, #16
 1163              	.LVL182:
 1164 035a 0393     		str	r3, [sp, #12]
 1165 035c FFF7FEFF 		bl	printk_putc
 1166              	.LVL183:
 162:D:/kuaipan/SEMG/MEMS_SEMG_KL25/KL25 Sample Code_I2c/KL25 Sample Code/kl25_sc_rev10/klxx-sc-baremetal/src/common\printf.c ****     for (i = curlen; i < field_width; i++)
 1167              		.loc 1 162 0
 1168 0360 0122     		mov	r2, #1
 1169 0362 9246     		mov	sl, r2
 1170 0364 DA44     		add	sl, sl, fp
 1171 0366 BA45     		cmp	sl, r7
 1172 0368 1FD0     		beq	.L80
 1173 036a 0399     		ldr	r1, [sp, #12]
 1174 036c 0029     		cmp	r1, #0
 1175 036e 08D0     		beq	.L166
 164:D:/kuaipan/SEMG/MEMS_SEMG_KL25/KL25 Sample Code_I2c/KL25 Sample Code/kl25_sc_rev10/klxx-sc-baremetal/src/common\printf.c ****         printk_putc('0',count, info);
 1176              		.loc 1 164 0
 1177 0370 3020     		mov	r0, #48
 1178 0372 04A9     		add	r1, sp, #16
 1179              	.LVL184:
 1180 0374 4246     		mov	r2, r8
 1181 0376 FFF7FEFF 		bl	printk_putc
 1182              	.LVL185:
 162:D:/kuaipan/SEMG/MEMS_SEMG_KL25/KL25 Sample Code_I2c/KL25 Sample Code/kl25_sc_rev10/klxx-sc-baremetal/src/common\printf.c ****     for (i = curlen; i < field_width; i++)
 1183              		.loc 1 162 0
 1184 037a 0120     		mov	r0, #1
 1185 037c 8244     		add	sl, sl, r0
 1186              	.LVL186:
 1187 037e BA45     		cmp	sl, r7
 1188 0380 13D0     		beq	.L80
 1189              	.L166:
 1190 0382 AB46     		mov	fp, r5
 1191              	.LVL187:
 1192 0384 4546     		mov	r5, r8
 1193              	.LVL188:
 1194 0386 A046     		mov	r8, r4
 1195              	.LVL189:
 1196 0388 5446     		mov	r4, sl
 1197              	.LVL190:
 1198              	.L81:
 164:D:/kuaipan/SEMG/MEMS_SEMG_KL25/KL25 Sample Code_I2c/KL25 Sample Code/kl25_sc_rev10/klxx-sc-baremetal/src/common\printf.c ****         printk_putc('0',count, info);
 1199              		.loc 1 164 0
 1200 038a 3020     		mov	r0, #48
 1201 038c 04A9     		add	r1, sp, #16
 1202              	.LVL191:
 1203 038e 2A1C     		mov	r2, r5
 1204 0390 FFF7FEFF 		bl	printk_putc
 1205              	.LVL192:
 162:D:/kuaipan/SEMG/MEMS_SEMG_KL25/KL25 Sample Code_I2c/KL25 Sample Code/kl25_sc_rev10/klxx-sc-baremetal/src/common\printf.c ****     for (i = curlen; i < field_width; i++)
 1206              		.loc 1 162 0
 1207 0394 0234     		add	r4, r4, #2
 164:D:/kuaipan/SEMG/MEMS_SEMG_KL25/KL25 Sample Code_I2c/KL25 Sample Code/kl25_sc_rev10/klxx-sc-baremetal/src/common\printf.c ****         printk_putc('0',count, info);
 1208              		.loc 1 164 0
 1209 0396 3020     		mov	r0, #48
 1210 0398 04A9     		add	r1, sp, #16
 1211              	.LVL193:
 1212 039a 2A1C     		mov	r2, r5
 1213 039c FFF7FEFF 		bl	printk_putc
 1214              	.LVL194:
 162:D:/kuaipan/SEMG/MEMS_SEMG_KL25/KL25 Sample Code_I2c/KL25 Sample Code/kl25_sc_rev10/klxx-sc-baremetal/src/common\printf.c ****     for (i = curlen; i < field_width; i++)
 1215              		.loc 1 162 0
 1216 03a0 BC42     		cmp	r4, r7
 1217 03a2 F2D1     		bne	.L81
 1218 03a4 4446     		mov	r4, r8
 1219 03a6 A846     		mov	r8, r5
 1220              	.LVL195:
 1221 03a8 5D46     		mov	r5, fp
 1222              	.LVL196:
 1223              	.L80:
 1224              	.LBE11:
 1225              	.LBE10:
 481:D:/kuaipan/SEMG/MEMS_SEMG_KL25/KL25 Sample Code_I2c/KL25 Sample Code/kl25_sc_rev10/klxx-sc-baremetal/src/common\printf.c ****                 if ((IS_FLAG_POUND(flags_used)) && !dschar)
 1226              		.loc 1 481 0
 1227 03aa 009A     		ldr	r2, [sp]
 1228 03ac 002A     		cmp	r2, #0
 1229 03ae 77D1     		bne	.L84
 1230 03b0 0121     		mov	r1, #1
 1231 03b2 3140     		and	r1, r6
 446:D:/kuaipan/SEMG/MEMS_SEMG_KL25/KL25 Sample Code_I2c/KL25 Sample Code/kl25_sc_rev10/klxx-sc-baremetal/src/common\printf.c ****                 uval = (unsigned int)va_arg(ap, unsigned int);
 1232              		.loc 1 446 0
 1233 03b4 019E     		ldr	r6, [sp, #4]
 1234              	.LVL197:
 1235 03b6 0091     		str	r1, [sp]
 1236 03b8 B246     		mov	sl, r6
 481:D:/kuaipan/SEMG/MEMS_SEMG_KL25/KL25 Sample Code_I2c/KL25 Sample Code/kl25_sc_rev10/klxx-sc-baremetal/src/common\printf.c ****                 if ((IS_FLAG_POUND(flags_used)) && !dschar)
 1237              		.loc 1 481 0
 1238 03ba BB46     		mov	fp, r7
 1239 03bc C2E6     		b	.L77
 1240              	.LVL198:
 1241              	.L177:
 517:D:/kuaipan/SEMG/MEMS_SEMG_KL25/KL25 Sample Code_I2c/KL25 Sample Code/kl25_sc_rev10/klxx-sc-baremetal/src/common\printf.c ****                             printk_pad_space (vlen, field_width, &count, info);
 1242              		.loc 1 517 0
 1243 03be 5846     		mov	r0, fp
 1244              	.LVL199:
 1245 03c0 391C     		mov	r1, r7
 1246 03c2 04AA     		add	r2, sp, #16
 1247 03c4 4346     		mov	r3, r8
 1248 03c6 0026     		mov	r6, #0
 1249              	.LVL200:
 1250 03c8 FFF7FEFF 		bl	printk_pad_space
 1251              	.LVL201:
 1252 03cc 0096     		str	r6, [sp]
 1253 03ce B9E6     		b	.L77
 1254              	.LVL202:
 1255              	.L78:
 465:D:/kuaipan/SEMG/MEMS_SEMG_KL25/KL25 Sample Code_I2c/KL25 Sample Code/kl25_sc_rev10/klxx-sc-baremetal/src/common\printf.c ****                     if (!IS_FLAG_MINUS(flags_used))
 1256              		.loc 1 465 0
 1257 03d0 0121     		mov	r1, #1
 1258 03d2 3140     		and	r1, r6
 1259 03d4 0091     		str	r1, [sp]
 1260 03d6 74D1     		bne	.L82
 467:D:/kuaipan/SEMG/MEMS_SEMG_KL25/KL25 Sample Code_I2c/KL25 Sample Code/kl25_sc_rev10/klxx-sc-baremetal/src/common\printf.c ****                         if (IS_FLAG_POUND(flags_used))
 1261              		.loc 1 467 0
 1262 03d8 F306     		lsl	r3, r6, #27
 1263 03da 00D4     		bmi	.LCB1354
 1264 03dc 8AE0     		b	.L83	@long jump
 1265              	.LCB1354:
 469:D:/kuaipan/SEMG/MEMS_SEMG_KL25/KL25 Sample Code_I2c/KL25 Sample Code/kl25_sc_rev10/klxx-sc-baremetal/src/common\printf.c ****                             vlen += 2;
 1266              		.loc 1 469 0
 1267 03de 0223     		mov	r3, #2
 1268 03e0 9B44     		add	fp, fp, r3
 1269              	.LVL203:
 471:D:/kuaipan/SEMG/MEMS_SEMG_KL25/KL25 Sample Code_I2c/KL25 Sample Code/kl25_sc_rev10/klxx-sc-baremetal/src/common\printf.c ****                         printk_pad_space (vlen, field_width, &count, info);
 1270              		.loc 1 471 0
 1271 03e2 5846     		mov	r0, fp
 1272 03e4 4346     		mov	r3, r8
 1273 03e6 391C     		mov	r1, r7
 1274 03e8 04AA     		add	r2, sp, #16
 1275 03ea FFF7FEFF 		bl	printk_pad_space
 1276              	.LVL204:
 474:D:/kuaipan/SEMG/MEMS_SEMG_KL25/KL25 Sample Code_I2c/KL25 Sample Code/kl25_sc_rev10/klxx-sc-baremetal/src/common\printf.c ****                             printk_putc('0', &count, info);
 1277              		.loc 1 474 0
 1278 03ee 3020     		mov	r0, #48
 1279 03f0 04A9     		add	r1, sp, #16
 1280 03f2 4246     		mov	r2, r8
 1281 03f4 FFF7FEFF 		bl	printk_putc
 1282              	.LVL205:
 475:D:/kuaipan/SEMG/MEMS_SEMG_KL25/KL25 Sample Code_I2c/KL25 Sample Code/kl25_sc_rev10/klxx-sc-baremetal/src/common\printf.c ****                             printk_putc('x', &count, info);
 1283              		.loc 1 475 0
 1284 03f8 4246     		mov	r2, r8
 1285 03fa 7820     		mov	r0, #120
 1286 03fc 04A9     		add	r1, sp, #16
 1287 03fe FFF7FEFF 		bl	printk_putc
 1288              	.LVL206:
 446:D:/kuaipan/SEMG/MEMS_SEMG_KL25/KL25 Sample Code_I2c/KL25 Sample Code/kl25_sc_rev10/klxx-sc-baremetal/src/common\printf.c ****                 uval = (unsigned int)va_arg(ap, unsigned int);
 1289              		.loc 1 446 0
 1290 0402 019A     		ldr	r2, [sp, #4]
 1291 0404 9246     		mov	sl, r2
 1292 0406 9DE6     		b	.L77
 1293              	.LVL207:
 1294              	.L71:
 399:D:/kuaipan/SEMG/MEMS_SEMG_KL25/KL25 Sample Code_I2c/KL25 Sample Code/kl25_sc_rev10/klxx-sc-baremetal/src/common\printf.c ****                         if (IS_FLAG_SPACE(flags_used))
 1295              		.loc 1 399 0
 1296 0408 7207     		lsl	r2, r6, #29
 1297 040a 6BD4     		bmi	.L181
 1298              	.LVL208:
 415:D:/kuaipan/SEMG/MEMS_SEMG_KL25/KL25 Sample Code_I2c/KL25 Sample Code/kl25_sc_rev10/klxx-sc-baremetal/src/common\printf.c ****                 if (IS_FLAG_ZERO(flags_used))
 1299              		.loc 1 415 0
 1300 040c 3107     		lsl	r1, r6, #28
 1301 040e 00D4     		bmi	.LCB1399
 1302 0410 AAE0     		b	.L182	@long jump
 1303              	.LCB1399:
 1304              	.LVL209:
 1305              	.L103:
 1306              	.LBB12:
 1307              	.LBB13:
 162:D:/kuaipan/SEMG/MEMS_SEMG_KL25/KL25 Sample Code_I2c/KL25 Sample Code/kl25_sc_rev10/klxx-sc-baremetal/src/common\printf.c ****     for (i = curlen; i < field_width; i++)
 1308              		.loc 1 162 0
 1309 0412 5F45     		cmp	r7, fp
 1310 0414 2FDD     		ble	.L73
 1311 0416 5A46     		mov	r2, fp
 1312 0418 D343     		mvn	r3, r2
 1313 041a D919     		add	r1, r3, r7
 1314 041c 0120     		mov	r0, #1
 1315 041e 0840     		and	r0, r1
 1316 0420 0090     		str	r0, [sp]
 164:D:/kuaipan/SEMG/MEMS_SEMG_KL25/KL25 Sample Code_I2c/KL25 Sample Code/kl25_sc_rev10/klxx-sc-baremetal/src/common\printf.c ****         printk_putc('0',count, info);
 1317              		.loc 1 164 0
 1318 0422 4246     		mov	r2, r8
 1319 0424 3020     		mov	r0, #48
 1320 0426 04A9     		add	r1, sp, #16
 1321 0428 FFF7FEFF 		bl	printk_putc
 1322              	.LVL210:
 162:D:/kuaipan/SEMG/MEMS_SEMG_KL25/KL25 Sample Code_I2c/KL25 Sample Code/kl25_sc_rev10/klxx-sc-baremetal/src/common\printf.c ****     for (i = curlen; i < field_width; i++)
 1323              		.loc 1 162 0
 1324 042c 0122     		mov	r2, #1
 1325 042e 9246     		mov	sl, r2
 1326 0430 DA44     		add	sl, sl, fp
 1327 0432 BA45     		cmp	sl, r7
 1328 0434 1FD0     		beq	.L73
 1329 0436 009B     		ldr	r3, [sp]
 1330 0438 002B     		cmp	r3, #0
 1331 043a 08D0     		beq	.L170
 164:D:/kuaipan/SEMG/MEMS_SEMG_KL25/KL25 Sample Code_I2c/KL25 Sample Code/kl25_sc_rev10/klxx-sc-baremetal/src/common\printf.c ****         printk_putc('0',count, info);
 1332              		.loc 1 164 0
 1333 043c 04A9     		add	r1, sp, #16
 1334 043e 3020     		mov	r0, #48
 1335 0440 4246     		mov	r2, r8
 1336 0442 FFF7FEFF 		bl	printk_putc
 1337              	.LVL211:
 162:D:/kuaipan/SEMG/MEMS_SEMG_KL25/KL25 Sample Code_I2c/KL25 Sample Code/kl25_sc_rev10/klxx-sc-baremetal/src/common\printf.c ****     for (i = curlen; i < field_width; i++)
 1338              		.loc 1 162 0
 1339 0446 0121     		mov	r1, #1
 1340 0448 8A44     		add	sl, sl, r1
 1341              	.LVL212:
 1342 044a BA45     		cmp	sl, r7
 1343 044c 13D0     		beq	.L73
 1344              	.L170:
 1345 044e AB46     		mov	fp, r5
 1346              	.LVL213:
 1347 0450 4546     		mov	r5, r8
 1348              	.LVL214:
 1349 0452 A046     		mov	r8, r4
 1350              	.LVL215:
 1351 0454 5446     		mov	r4, sl
 1352              	.LVL216:
 1353              	.L74:
 164:D:/kuaipan/SEMG/MEMS_SEMG_KL25/KL25 Sample Code_I2c/KL25 Sample Code/kl25_sc_rev10/klxx-sc-baremetal/src/common\printf.c ****         printk_putc('0',count, info);
 1354              		.loc 1 164 0
 1355 0456 3020     		mov	r0, #48
 1356 0458 04A9     		add	r1, sp, #16
 1357 045a 2A1C     		mov	r2, r5
 1358 045c FFF7FEFF 		bl	printk_putc
 1359              	.LVL217:
 162:D:/kuaipan/SEMG/MEMS_SEMG_KL25/KL25 Sample Code_I2c/KL25 Sample Code/kl25_sc_rev10/klxx-sc-baremetal/src/common\printf.c ****     for (i = curlen; i < field_width; i++)
 1360              		.loc 1 162 0
 1361 0460 0234     		add	r4, r4, #2
 164:D:/kuaipan/SEMG/MEMS_SEMG_KL25/KL25 Sample Code_I2c/KL25 Sample Code/kl25_sc_rev10/klxx-sc-baremetal/src/common\printf.c ****         printk_putc('0',count, info);
 1362              		.loc 1 164 0
 1363 0462 3020     		mov	r0, #48
 1364 0464 04A9     		add	r1, sp, #16
 1365 0466 2A1C     		mov	r2, r5
 1366 0468 FFF7FEFF 		bl	printk_putc
 1367              	.LVL218:
 162:D:/kuaipan/SEMG/MEMS_SEMG_KL25/KL25 Sample Code_I2c/KL25 Sample Code/kl25_sc_rev10/klxx-sc-baremetal/src/common\printf.c ****     for (i = curlen; i < field_width; i++)
 1368              		.loc 1 162 0
 1369 046c BC42     		cmp	r4, r7
 1370 046e F2D1     		bne	.L74
 1371 0470 4446     		mov	r4, r8
 1372 0472 A846     		mov	r8, r5
 1373              	.LVL219:
 1374 0474 5D46     		mov	r5, fp
 1375              	.LVL220:
 1376              	.L73:
 1377 0476 0122     		mov	r2, #1
 1378 0478 3240     		and	r2, r6
 1379 047a 0092     		str	r2, [sp]
 1380 047c BB46     		mov	fp, r7
 1381              	.LVL221:
 1382              	.L75:
 1383              	.LBE13:
 1384              	.LBE12:
 381:D:/kuaipan/SEMG/MEMS_SEMG_KL25/KL25 Sample Code_I2c/KL25 Sample Code/kl25_sc_rev10/klxx-sc-baremetal/src/common\printf.c ****                 ival = (int)va_arg(ap, int);
 1385              		.loc 1 381 0
 1386 047e 019E     		ldr	r6, [sp, #4]
 1387 0480 B246     		mov	sl, r6
 1388 0482 5FE6     		b	.L77
 1389              	.LVL222:
 1390              	.L96:
 548:D:/kuaipan/SEMG/MEMS_SEMG_KL25/KL25 Sample Code_I2c/KL25 Sample Code/kl25_sc_rev10/klxx-sc-baremetal/src/common\printf.c ****                         printk_pad_space (vlen, field_width, &count, info);
 1391              		.loc 1 548 0
 1392 0484 5046     		mov	r0, sl
 1393 0486 391C     		mov	r1, r7
 1394 0488 04AA     		add	r2, sp, #16
 1395 048a 4346     		mov	r3, r8
 1396 048c FFF7FEFF 		bl	printk_pad_space
 1397              	.LVL223:
 536:D:/kuaipan/SEMG/MEMS_SEMG_KL25/KL25 Sample Code_I2c/KL25 Sample Code/kl25_sc_rev10/klxx-sc-baremetal/src/common\printf.c ****                 sval = (char *)va_arg(ap, char *);
 1398              		.loc 1 536 0
 1399 0490 DA46     		mov	sl, fp
 1400              	.LVL224:
 1401 0492 CFE5     		b	.L42
 1402              	.LVL225:
 1403              	.L178:
 542:D:/kuaipan/SEMG/MEMS_SEMG_KL25/KL25 Sample Code_I2c/KL25 Sample Code/kl25_sc_rev10/klxx-sc-baremetal/src/common\printf.c ****                         printk_pad_space (vlen, field_width, &count, info);
 1404              		.loc 1 542 0
 1405 0494 391C     		mov	r1, r7
 1406 0496 04AA     		add	r2, sp, #16
 1407 0498 4346     		mov	r3, r8
 1408 049a FFF7FEFF 		bl	printk_pad_space
 1409              	.LVL226:
 1410 049e 78E6     		b	.L94
 1411              	.LVL227:
 1412              	.L84:
 1413 04a0 0123     		mov	r3, #1
 481:D:/kuaipan/SEMG/MEMS_SEMG_KL25/KL25 Sample Code_I2c/KL25 Sample Code/kl25_sc_rev10/klxx-sc-baremetal/src/common\printf.c ****                 if ((IS_FLAG_POUND(flags_used)) && !dschar)
 1414              		.loc 1 481 0
 1415 04a2 0298     		ldr	r0, [sp, #8]
 1416 04a4 3340     		and	r3, r6
 1417 04a6 0093     		str	r3, [sp]
 1418 04a8 0028     		cmp	r0, #0
 1419 04aa 55D0     		beq	.L85
 446:D:/kuaipan/SEMG/MEMS_SEMG_KL25/KL25 Sample Code_I2c/KL25 Sample Code/kl25_sc_rev10/klxx-sc-baremetal/src/common\printf.c ****                 uval = (unsigned int)va_arg(ap, unsigned int);
 1420              		.loc 1 446 0
 1421 04ac 019A     		ldr	r2, [sp, #4]
 481:D:/kuaipan/SEMG/MEMS_SEMG_KL25/KL25 Sample Code_I2c/KL25 Sample Code/kl25_sc_rev10/klxx-sc-baremetal/src/common\printf.c ****                 if ((IS_FLAG_POUND(flags_used)) && !dschar)
 1422              		.loc 1 481 0
 1423 04ae BB46     		mov	fp, r7
 446:D:/kuaipan/SEMG/MEMS_SEMG_KL25/KL25 Sample Code_I2c/KL25 Sample Code/kl25_sc_rev10/klxx-sc-baremetal/src/common\printf.c ****                 uval = (unsigned int)va_arg(ap, unsigned int);
 1424              		.loc 1 446 0
 1425 04b0 9246     		mov	sl, r2
 1426 04b2 47E6     		b	.L77
 1427              	.LVL228:
 1428              	.L107:
 214:D:/kuaipan/SEMG/MEMS_SEMG_KL25/KL25 Sample Code_I2c/KL25 Sample Code/kl25_sc_rev10/klxx-sc-baremetal/src/common\printf.c ****     for (p = (char *)fmt; (c = *p) != 0; p++)
 1429              		.loc 1 214 0
 1430 04b4 0020     		mov	r0, #0
 1431              	.LVL229:
 1432 04b6 EEE5     		b	.L160
 1433              	.LVL230:
 1434              	.L179:
 388:D:/kuaipan/SEMG/MEMS_SEMG_KL25/KL25 Sample Code_I2c/KL25 Sample Code/kl25_sc_rev10/klxx-sc-baremetal/src/common\printf.c ****                     ++vlen;
 1435              		.loc 1 388 0
 1436 04b8 0123     		mov	r3, #1
 387:D:/kuaipan/SEMG/MEMS_SEMG_KL25/KL25 Sample Code_I2c/KL25 Sample Code/kl25_sc_rev10/klxx-sc-baremetal/src/common\printf.c ****                     schar = '-';
 1437              		.loc 1 387 0
 1438 04ba 2D21     		mov	r1, #45
 388:D:/kuaipan/SEMG/MEMS_SEMG_KL25/KL25 Sample Code_I2c/KL25 Sample Code/kl25_sc_rev10/klxx-sc-baremetal/src/common\printf.c ****                     ++vlen;
 1439              		.loc 1 388 0
 1440 04bc 9B44     		add	fp, fp, r3
 1441              	.LVL231:
 387:D:/kuaipan/SEMG/MEMS_SEMG_KL25/KL25 Sample Code_I2c/KL25 Sample Code/kl25_sc_rev10/klxx-sc-baremetal/src/common\printf.c ****                     schar = '-';
 1442              		.loc 1 387 0
 1443 04be 8A46     		mov	sl, r1
 1444 04c0 FAE6     		b	.L70
 1445              	.LVL232:
 1446              	.L82:
 481:D:/kuaipan/SEMG/MEMS_SEMG_KL25/KL25 Sample Code_I2c/KL25 Sample Code/kl25_sc_rev10/klxx-sc-baremetal/src/common\printf.c ****                 if ((IS_FLAG_POUND(flags_used)) && !dschar)
 1447              		.loc 1 481 0
 1448 04c2 F206     		lsl	r2, r6, #27
 1449 04c4 13D5     		bpl	.L183
 1450              	.LVL233:
 1451              	.L105:
 483:D:/kuaipan/SEMG/MEMS_SEMG_KL25/KL25 Sample Code_I2c/KL25 Sample Code/kl25_sc_rev10/klxx-sc-baremetal/src/common\printf.c ****                     printk_putc('0', &count, info);
 1452              		.loc 1 483 0
 1453 04c6 3020     		mov	r0, #48
 1454 04c8 04A9     		add	r1, sp, #16
 1455 04ca 4246     		mov	r2, r8
 1456 04cc FFF7FEFF 		bl	printk_putc
 1457              	.LVL234:
 484:D:/kuaipan/SEMG/MEMS_SEMG_KL25/KL25 Sample Code_I2c/KL25 Sample Code/kl25_sc_rev10/klxx-sc-baremetal/src/common\printf.c ****                     printk_putc('x', &count, info);
 1458              		.loc 1 484 0
 1459 04d0 04A9     		add	r1, sp, #16
 1460 04d2 7820     		mov	r0, #120
 1461 04d4 4246     		mov	r2, r8
 1462 04d6 FFF7FEFF 		bl	printk_putc
 1463              	.LVL235:
 446:D:/kuaipan/SEMG/MEMS_SEMG_KL25/KL25 Sample Code_I2c/KL25 Sample Code/kl25_sc_rev10/klxx-sc-baremetal/src/common\printf.c ****                 uval = (unsigned int)va_arg(ap, unsigned int);
 1464              		.loc 1 446 0
 1465 04da 019E     		ldr	r6, [sp, #4]
 1466              	.LVL236:
 485:D:/kuaipan/SEMG/MEMS_SEMG_KL25/KL25 Sample Code_I2c/KL25 Sample Code/kl25_sc_rev10/klxx-sc-baremetal/src/common\printf.c ****                     vlen += 2;
 1467              		.loc 1 485 0
 1468 04dc 0221     		mov	r1, #2
 1469 04de 8B44     		add	fp, fp, r1
 1470              	.LVL237:
 446:D:/kuaipan/SEMG/MEMS_SEMG_KL25/KL25 Sample Code_I2c/KL25 Sample Code/kl25_sc_rev10/klxx-sc-baremetal/src/common\printf.c ****                 uval = (unsigned int)va_arg(ap, unsigned int);
 1471              		.loc 1 446 0
 1472 04e0 B246     		mov	sl, r6
 1473 04e2 2FE6     		b	.L77
 1474              	.LVL238:
 1475              	.L181:
 402:D:/kuaipan/SEMG/MEMS_SEMG_KL25/KL25 Sample Code_I2c/KL25 Sample Code/kl25_sc_rev10/klxx-sc-baremetal/src/common\printf.c ****                             ++vlen;
 1476              		.loc 1 402 0
 1477 04e4 0123     		mov	r3, #1
 401:D:/kuaipan/SEMG/MEMS_SEMG_KL25/KL25 Sample Code_I2c/KL25 Sample Code/kl25_sc_rev10/klxx-sc-baremetal/src/common\printf.c ****                             schar = ' ';
 1478              		.loc 1 401 0
 1479 04e6 2021     		mov	r1, #32
 402:D:/kuaipan/SEMG/MEMS_SEMG_KL25/KL25 Sample Code_I2c/KL25 Sample Code/kl25_sc_rev10/klxx-sc-baremetal/src/common\printf.c ****                             ++vlen;
 1480              		.loc 1 402 0
 1481 04e8 9B44     		add	fp, fp, r3
 1482              	.LVL239:
 401:D:/kuaipan/SEMG/MEMS_SEMG_KL25/KL25 Sample Code_I2c/KL25 Sample Code/kl25_sc_rev10/klxx-sc-baremetal/src/common\printf.c ****                             schar = ' ';
 1483              		.loc 1 401 0
 1484 04ea 8A46     		mov	sl, r1
 1485 04ec E4E6     		b	.L70
 1486              	.LVL240:
 1487              	.L183:
 446:D:/kuaipan/SEMG/MEMS_SEMG_KL25/KL25 Sample Code_I2c/KL25 Sample Code/kl25_sc_rev10/klxx-sc-baremetal/src/common\printf.c ****                 uval = (unsigned int)va_arg(ap, unsigned int);
 1488              		.loc 1 446 0
 1489 04ee 019E     		ldr	r6, [sp, #4]
 1490              	.LVL241:
 1491 04f0 B246     		mov	sl, r6
 1492 04f2 27E6     		b	.L77
 1493              	.LVL242:
 1494              	.L83:
 471:D:/kuaipan/SEMG/MEMS_SEMG_KL25/KL25 Sample Code_I2c/KL25 Sample Code/kl25_sc_rev10/klxx-sc-baremetal/src/common\printf.c ****                         printk_pad_space (vlen, field_width, &count, info);
 1495              		.loc 1 471 0
 1496 04f4 391C     		mov	r1, r7
 1497 04f6 04AA     		add	r2, sp, #16
 1498 04f8 4346     		mov	r3, r8
 1499 04fa FFF7FEFF 		bl	printk_pad_space
 1500              	.LVL243:
 446:D:/kuaipan/SEMG/MEMS_SEMG_KL25/KL25 Sample Code_I2c/KL25 Sample Code/kl25_sc_rev10/klxx-sc-baremetal/src/common\printf.c ****                 uval = (unsigned int)va_arg(ap, unsigned int);
 1501              		.loc 1 446 0
 1502 04fe 0198     		ldr	r0, [sp, #4]
 1503 0500 8246     		mov	sl, r0
 1504 0502 1FE6     		b	.L77
 1505              	.LVL244:
 1506              	.L100:
 440:D:/kuaipan/SEMG/MEMS_SEMG_KL25/KL25 Sample Code_I2c/KL25 Sample Code/kl25_sc_rev10/klxx-sc-baremetal/src/common\printf.c ****                     printk_putc(schar, &count, info);
 1507              		.loc 1 440 0
 1508 0504 5046     		mov	r0, sl
 1509 0506 04A9     		add	r1, sp, #16
 1510 0508 4246     		mov	r2, r8
 1511 050a FFF7FEFF 		bl	printk_putc
 1512              	.LVL245:
 381:D:/kuaipan/SEMG/MEMS_SEMG_KL25/KL25 Sample Code_I2c/KL25 Sample Code/kl25_sc_rev10/klxx-sc-baremetal/src/common\printf.c ****                 ival = (int)va_arg(ap, int);
 1513              		.loc 1 381 0
 1514 050e 019B     		ldr	r3, [sp, #4]
 440:D:/kuaipan/SEMG/MEMS_SEMG_KL25/KL25 Sample Code_I2c/KL25 Sample Code/kl25_sc_rev10/klxx-sc-baremetal/src/common\printf.c ****                     printk_putc(schar, &count, info);
 1515              		.loc 1 440 0
 1516 0510 0121     		mov	r1, #1
 381:D:/kuaipan/SEMG/MEMS_SEMG_KL25/KL25 Sample Code_I2c/KL25 Sample Code/kl25_sc_rev10/klxx-sc-baremetal/src/common\printf.c ****                 ival = (int)va_arg(ap, int);
 1517              		.loc 1 381 0
 1518 0512 9A46     		mov	sl, r3
 440:D:/kuaipan/SEMG/MEMS_SEMG_KL25/KL25 Sample Code_I2c/KL25 Sample Code/kl25_sc_rev10/klxx-sc-baremetal/src/common\printf.c ****                     printk_putc(schar, &count, info);
 1519              		.loc 1 440 0
 1520 0514 0091     		str	r1, [sp]
 1521 0516 15E6     		b	.L77
 1522              	.LVL246:
 1523              	.L180:
 455:D:/kuaipan/SEMG/MEMS_SEMG_KL25/KL25 Sample Code_I2c/KL25 Sample Code/kl25_sc_rev10/klxx-sc-baremetal/src/common\printf.c ****                         printk_putc('0', &count, info);
 1524              		.loc 1 455 0
 1525 0518 3020     		mov	r0, #48
 1526 051a 04A9     		add	r1, sp, #16
 1527 051c 4246     		mov	r2, r8
 1528 051e FFF7FEFF 		bl	printk_putc
 1529              	.LVL247:
 456:D:/kuaipan/SEMG/MEMS_SEMG_KL25/KL25 Sample Code_I2c/KL25 Sample Code/kl25_sc_rev10/klxx-sc-baremetal/src/common\printf.c ****                         printk_putc('x', &count, info);
 1530              		.loc 1 456 0
 1531 0522 7820     		mov	r0, #120
 1532 0524 04A9     		add	r1, sp, #16
 1533 0526 4246     		mov	r2, r8
 1534 0528 FFF7FEFF 		bl	printk_putc
 1535              	.LVL248:
 458:D:/kuaipan/SEMG/MEMS_SEMG_KL25/KL25 Sample Code_I2c/KL25 Sample Code/kl25_sc_rev10/klxx-sc-baremetal/src/common\printf.c ****                         dschar = TRUE;
 1536              		.loc 1 458 0
 1537 052c 0123     		mov	r3, #1
 1538 052e 0293     		str	r3, [sp, #8]
 1539 0530 09E7     		b	.L79
 1540              	.LVL249:
 1541              	.L113:
 406:D:/kuaipan/SEMG/MEMS_SEMG_KL25/KL25 Sample Code_I2c/KL25 Sample Code/kl25_sc_rev10/klxx-sc-baremetal/src/common\printf.c ****                             schar = 0;
 1542              		.loc 1 406 0
 1543 0532 0022     		mov	r2, #0
 1544 0534 9246     		mov	sl, r2
 1545              	.LVL250:
 1546              	.L106:
 428:D:/kuaipan/SEMG/MEMS_SEMG_KL25/KL25 Sample Code_I2c/KL25 Sample Code/kl25_sc_rev10/klxx-sc-baremetal/src/common\printf.c ****                         printk_pad_space (vlen, field_width, &count, info);
 1547              		.loc 1 428 0
 1548 0536 5846     		mov	r0, fp
 1549 0538 391C     		mov	r1, r7
 1550 053a 04AA     		add	r2, sp, #16
 1551 053c 4346     		mov	r3, r8
 1552 053e FFF7FEFF 		bl	printk_pad_space
 1553              	.LVL251:
 430:D:/kuaipan/SEMG/MEMS_SEMG_KL25/KL25 Sample Code_I2c/KL25 Sample Code/kl25_sc_rev10/klxx-sc-baremetal/src/common\printf.c ****                         if (schar)
 1554              		.loc 1 430 0
 1555 0542 0026     		mov	r6, #0
 1556              	.LVL252:
 1557 0544 5046     		mov	r0, sl
 1558 0546 0096     		str	r6, [sp]
 1559 0548 0028     		cmp	r0, #0
 1560 054a 98D0     		beq	.L75
 431:D:/kuaipan/SEMG/MEMS_SEMG_KL25/KL25 Sample Code_I2c/KL25 Sample Code/kl25_sc_rev10/klxx-sc-baremetal/src/common\printf.c ****                             printk_putc(schar, &count, info);
 1561              		.loc 1 431 0
 1562 054c 5046     		mov	r0, sl
 1563 054e 04A9     		add	r1, sp, #16
 1564 0550 4246     		mov	r2, r8
 1565 0552 FFF7FEFF 		bl	printk_putc
 1566              	.LVL253:
 1567 0556 92E7     		b	.L75
 1568              	.LVL254:
 1569              	.L85:
 481:D:/kuaipan/SEMG/MEMS_SEMG_KL25/KL25 Sample Code_I2c/KL25 Sample Code/kl25_sc_rev10/klxx-sc-baremetal/src/common\printf.c ****                 if ((IS_FLAG_POUND(flags_used)) && !dschar)
 1570              		.loc 1 481 0
 1571 0558 BB46     		mov	fp, r7
 1572 055a B4E7     		b	.L105
 1573              	.LVL255:
 1574              	.L101:
 418:D:/kuaipan/SEMG/MEMS_SEMG_KL25/KL25 Sample Code_I2c/KL25 Sample Code/kl25_sc_rev10/klxx-sc-baremetal/src/common\printf.c ****                         printk_putc(schar, &count, info);
 1575              		.loc 1 418 0
 1576 055c 5046     		mov	r0, sl
 1577 055e 04A9     		add	r1, sp, #16
 1578 0560 4246     		mov	r2, r8
 1579 0562 FFF7FEFF 		bl	printk_putc
 1580              	.LVL256:
 1581 0566 54E7     		b	.L103
 1582              	.LVL257:
 1583              	.L182:
 426:D:/kuaipan/SEMG/MEMS_SEMG_KL25/KL25 Sample Code_I2c/KL25 Sample Code/kl25_sc_rev10/klxx-sc-baremetal/src/common\printf.c ****                     if (!IS_FLAG_MINUS(flags_used))
 1584              		.loc 1 426 0
 1585 0568 F107     		lsl	r1, r6, #31
 1586 056a E2D5     		bpl	.L113
 381:D:/kuaipan/SEMG/MEMS_SEMG_KL25/KL25 Sample Code_I2c/KL25 Sample Code/kl25_sc_rev10/klxx-sc-baremetal/src/common\printf.c ****                 ival = (int)va_arg(ap, int);
 1587              		.loc 1 381 0
 1588 056c 019E     		ldr	r6, [sp, #4]
 1589              	.LVL258:
 426:D:/kuaipan/SEMG/MEMS_SEMG_KL25/KL25 Sample Code_I2c/KL25 Sample Code/kl25_sc_rev10/klxx-sc-baremetal/src/common\printf.c ****                     if (!IS_FLAG_MINUS(flags_used))
 1590              		.loc 1 426 0
 1591 056e 0120     		mov	r0, #1
 1592              	.LVL259:
 381:D:/kuaipan/SEMG/MEMS_SEMG_KL25/KL25 Sample Code_I2c/KL25 Sample Code/kl25_sc_rev10/klxx-sc-baremetal/src/common\printf.c ****                 ival = (int)va_arg(ap, int);
 1593              		.loc 1 381 0
 1594 0570 B246     		mov	sl, r6
 426:D:/kuaipan/SEMG/MEMS_SEMG_KL25/KL25 Sample Code_I2c/KL25 Sample Code/kl25_sc_rev10/klxx-sc-baremetal/src/common\printf.c ****                     if (!IS_FLAG_MINUS(flags_used))
 1595              		.loc 1 426 0
 1596 0572 0090     		str	r0, [sp]
 1597 0574 E6E5     		b	.L77
 1598              		.cfi_endproc
 1599              	.LFE4:
 1601 0576 C046     		.section	.text.printf,"ax",%progbits
 1602              		.align	2
 1603              		.global	printf
 1604              		.code	16
 1605              		.thumb_func
 1607              	printf:
 1608              	.LFB5:
 567:D:/kuaipan/SEMG/MEMS_SEMG_KL25/KL25 Sample Code_I2c/KL25 Sample Code/kl25_sc_rev10/klxx-sc-baremetal/src/common\printf.c **** {
 1609              		.loc 1 567 0
 1610              		.cfi_startproc
 1611              	.LVL260:
 1612 0000 0FB4     		push	{r0, r1, r2, r3}
 1613              	.LCFI8:
 1614              		.cfi_def_cfa_offset 16
 1615 0002 00B5     		push	{lr}
 1616              	.LCFI9:
 1617              		.cfi_def_cfa_offset 20
 1618              		.cfi_offset 14, -20
 1619 0004 85B0     		sub	sp, sp, #20
 1620              	.LCFI10:
 1621              		.cfi_def_cfa_offset 40
 567:D:/kuaipan/SEMG/MEMS_SEMG_KL25/KL25 Sample Code_I2c/KL25 Sample Code/kl25_sc_rev10/klxx-sc-baremetal/src/common\printf.c **** {
 1622              		.loc 1 567 0
 1623 0006 06AA     		add	r2, sp, #24
 574:D:/kuaipan/SEMG/MEMS_SEMG_KL25/KL25 Sample Code_I2c/KL25 Sample Code/kl25_sc_rev10/klxx-sc-baremetal/src/common\printf.c ****     info.func = &out_char;
 1624              		.loc 1 574 0
 1625 0008 0648     		ldr	r0, .L187
 567:D:/kuaipan/SEMG/MEMS_SEMG_KL25/KL25 Sample Code_I2c/KL25 Sample Code/kl25_sc_rev10/klxx-sc-baremetal/src/common\printf.c **** {
 1626              		.loc 1 567 0
 1627 000a 08CA     		ldmia	r2!, {r3}
 574:D:/kuaipan/SEMG/MEMS_SEMG_KL25/KL25 Sample Code_I2c/KL25 Sample Code/kl25_sc_rev10/klxx-sc-baremetal/src/common\printf.c ****     info.func = &out_char;
 1628              		.loc 1 574 0
 1629 000c 0290     		str	r0, [sp, #8]
 573:D:/kuaipan/SEMG/MEMS_SEMG_KL25/KL25 Sample Code_I2c/KL25 Sample Code/kl25_sc_rev10/klxx-sc-baremetal/src/common\printf.c ****     info.dest = DEST_CONSOLE;
 1630              		.loc 1 573 0
 1631 000e 0123     		mov	r3, #1
 579:D:/kuaipan/SEMG/MEMS_SEMG_KL25/KL25 Sample Code_I2c/KL25 Sample Code/kl25_sc_rev10/klxx-sc-baremetal/src/common\printf.c ****     rvalue = printk(&info, fmt, ap);
 1632              		.loc 1 579 0
 1633 0010 01A8     		add	r0, sp, #4
 1634 0012 0699     		ldr	r1, [sp, #24]
 573:D:/kuaipan/SEMG/MEMS_SEMG_KL25/KL25 Sample Code_I2c/KL25 Sample Code/kl25_sc_rev10/klxx-sc-baremetal/src/common\printf.c ****     info.dest = DEST_CONSOLE;
 1635              		.loc 1 573 0
 1636 0014 0193     		str	r3, [sp, #4]
 578:D:/kuaipan/SEMG/MEMS_SEMG_KL25/KL25 Sample Code_I2c/KL25 Sample Code/kl25_sc_rev10/klxx-sc-baremetal/src/common\printf.c ****     va_start(ap, fmt);
 1637              		.loc 1 578 0
 1638 0016 0092     		str	r2, [sp]
 579:D:/kuaipan/SEMG/MEMS_SEMG_KL25/KL25 Sample Code_I2c/KL25 Sample Code/kl25_sc_rev10/klxx-sc-baremetal/src/common\printf.c ****     rvalue = printk(&info, fmt, ap);
 1639              		.loc 1 579 0
 1640 0018 FFF7FEFF 		bl	printk
 1641              	.LVL261:
 585:D:/kuaipan/SEMG/MEMS_SEMG_KL25/KL25 Sample Code_I2c/KL25 Sample Code/kl25_sc_rev10/klxx-sc-baremetal/src/common\printf.c **** }
 1642              		.loc 1 585 0
 1643 001c 05B0     		add	sp, sp, #20
 1644              		@ sp needed for prologue
 1645 001e 08BC     		pop	{r3}
 1646 0020 04B0     		add	sp, sp, #16
 1647 0022 1847     		bx	r3
 1648              	.L188:
 1649              		.align	2
 1650              	.L187:
 1651 0024 00000000 		.word	out_char
 1652              		.cfi_endproc
 1653              	.LFE5:
 1655              		.section	.text.sprintf,"ax",%progbits
 1656              		.align	2
 1657              		.global	sprintf
 1658              		.code	16
 1659              		.thumb_func
 1661              	sprintf:
 1662              	.LFB6:
 590:D:/kuaipan/SEMG/MEMS_SEMG_KL25/KL25 Sample Code_I2c/KL25 Sample Code/kl25_sc_rev10/klxx-sc-baremetal/src/common\printf.c **** {
 1663              		.loc 1 590 0
 1664              		.cfi_startproc
 1665              	.LVL262:
 1666 0000 0EB4     		push	{r1, r2, r3}
 1667              	.LCFI11:
 1668              		.cfi_def_cfa_offset 12
 1669 0002 00B5     		push	{lr}
 1670              	.LCFI12:
 1671              		.cfi_def_cfa_offset 16
 1672              		.cfi_offset 14, -16
 1673 0004 84B0     		sub	sp, sp, #16
 1674              	.LCFI13:
 1675              		.cfi_def_cfa_offset 32
 598:D:/kuaipan/SEMG/MEMS_SEMG_KL25/KL25 Sample Code_I2c/KL25 Sample Code/kl25_sc_rev10/klxx-sc-baremetal/src/common\printf.c ****     if (s != 0)
 1676              		.loc 1 598 0
 1677 0006 0028     		cmp	r0, #0
 1678 0008 0FD0     		beq	.L191
 602:D:/kuaipan/SEMG/MEMS_SEMG_KL25/KL25 Sample Code_I2c/KL25 Sample Code/kl25_sc_rev10/klxx-sc-baremetal/src/common\printf.c ****         va_start(ap, fmt);
 1679              		.loc 1 602 0
 1680 000a 06AA     		add	r2, sp, #24
 600:D:/kuaipan/SEMG/MEMS_SEMG_KL25/KL25 Sample Code_I2c/KL25 Sample Code/kl25_sc_rev10/klxx-sc-baremetal/src/common\printf.c ****         info.dest = DEST_STRING;
 1681              		.loc 1 600 0
 1682 000c 0223     		mov	r3, #2
 601:D:/kuaipan/SEMG/MEMS_SEMG_KL25/KL25 Sample Code_I2c/KL25 Sample Code/kl25_sc_rev10/klxx-sc-baremetal/src/common\printf.c ****         info.loc = s;
 1683              		.loc 1 601 0
 1684 000e 0390     		str	r0, [sp, #12]
 603:D:/kuaipan/SEMG/MEMS_SEMG_KL25/KL25 Sample Code_I2c/KL25 Sample Code/kl25_sc_rev10/klxx-sc-baremetal/src/common\printf.c ****         rvalue = printk(&info, fmt, ap);
 1685              		.loc 1 603 0
 1686 0010 0599     		ldr	r1, [sp, #20]
 1687 0012 01A8     		add	r0, sp, #4
 1688              	.LVL263:
 602:D:/kuaipan/SEMG/MEMS_SEMG_KL25/KL25 Sample Code_I2c/KL25 Sample Code/kl25_sc_rev10/klxx-sc-baremetal/src/common\printf.c ****         va_start(ap, fmt);
 1689              		.loc 1 602 0
 1690 0014 0092     		str	r2, [sp]
 600:D:/kuaipan/SEMG/MEMS_SEMG_KL25/KL25 Sample Code_I2c/KL25 Sample Code/kl25_sc_rev10/klxx-sc-baremetal/src/common\printf.c ****         info.dest = DEST_STRING;
 1691              		.loc 1 600 0
 1692 0016 0193     		str	r3, [sp, #4]
 603:D:/kuaipan/SEMG/MEMS_SEMG_KL25/KL25 Sample Code_I2c/KL25 Sample Code/kl25_sc_rev10/klxx-sc-baremetal/src/common\printf.c ****         rvalue = printk(&info, fmt, ap);
 1693              		.loc 1 603 0
 1694 0018 FFF7FEFF 		bl	printk
 1695              	.LVL264:
 604:D:/kuaipan/SEMG/MEMS_SEMG_KL25/KL25 Sample Code_I2c/KL25 Sample Code/kl25_sc_rev10/klxx-sc-baremetal/src/common\printf.c ****         *info.loc = '\0';
 1696              		.loc 1 604 0
 1697 001c 0399     		ldr	r1, [sp, #12]
 1698 001e 0022     		mov	r2, #0
 1699 0020 0A70     		strb	r2, [r1]
 1700              	.LVL265:
 1701              	.L190:
 1702              		.loc 1 608 0
 1703 0022 04B0     		add	sp, sp, #16
 1704              		@ sp needed for prologue
 1705 0024 08BC     		pop	{r3}
 1706 0026 03B0     		add	sp, sp, #12
 1707 0028 1847     		bx	r3
 1708              	.LVL266:
 1709              	.L191:
 592:D:/kuaipan/SEMG/MEMS_SEMG_KL25/KL25 Sample Code_I2c/KL25 Sample Code/kl25_sc_rev10/klxx-sc-baremetal/src/common\printf.c ****     int rvalue = 0;
 1710              		.loc 1 592 0
 1711 002a 0020     		mov	r0, #0
 1712              	.LVL267:
 1713 002c F9E7     		b	.L190
 1714              		.cfi_endproc
 1715              	.LFE6:
 1717 002e C046     		.text
 1718              	.Letext0:
 1719              		.file 2 "E:/Freescale/CW MCU v10.5/MCU/ARM_GCC_Support/ewl/EWL_C/include/va_list.h"
 1720              		.file 3 "<built-in>"