   1              		.cpu cortex-m0
   2              		.fpu softvfp
   3              		.eabi_attribute 20, 1
   4              		.eabi_attribute 21, 1
   5              		.eabi_attribute 23, 3
   6              		.eabi_attribute 24, 1
   7              		.eabi_attribute 25, 1
   8              		.eabi_attribute 26, 1
   9              		.eabi_attribute 30, 6
  10              		.eabi_attribute 34, 0
  11              		.eabi_attribute 18, 4
  12              		.code	16
  13              		.file	"Bit1.c"
  14              		.text
  15              	.Ltext0:
  16              		.cfi_sections	.debug_frame
  17              		.section	.bss.DeviceDataPrv__DEFAULT_RTOS_ALLOC,"aw",%nobits
  18              		.align	2
  21              	DeviceDataPrv__DEFAULT_RTOS_ALLOC:
  22 0000 00000000 		.space	4
  23              		.section	.text.Bit1_Init,"ax",%progbits
  24              		.align	2
  25              		.global	Bit1_Init
  26              		.code	16
  27              		.thumb_func
  29              	Bit1_Init:
  30              	.LFB0:
  31              		.file 1 "../Generated_Code/Bit1.c"
   1:../Generated_Code/Bit1.c **** /* ###################################################################
   2:../Generated_Code/Bit1.c **** **     THIS COMPONENT MODULE IS GENERATED BY THE TOOL. DO NOT MODIFY IT.
   3:../Generated_Code/Bit1.c **** **     Filename    : Bit1.c
   4:../Generated_Code/Bit1.c **** **     Project     : ProcessorExpert
   5:../Generated_Code/Bit1.c **** **     Processor   : MKL25Z128VFM4
   6:../Generated_Code/Bit1.c **** **     Component   : BitIO_LDD
   7:../Generated_Code/Bit1.c **** **     Version     : Component 01.033, Driver 01.03, CPU db: 3.00.000
   8:../Generated_Code/Bit1.c **** **     Compiler    : GNU C Compiler
   9:../Generated_Code/Bit1.c **** **     Date/Time   : 2015-10-19, 21:52, # CodeGen: 28
  10:../Generated_Code/Bit1.c **** **     Abstract    :
  11:../Generated_Code/Bit1.c **** **         The HAL BitIO component provides a low level API for unified
  12:../Generated_Code/Bit1.c **** **         access to general purpose digital input/output pins across
  13:../Generated_Code/Bit1.c **** **         various device designs.
  14:../Generated_Code/Bit1.c **** **
  15:../Generated_Code/Bit1.c **** **         RTOS drivers using HAL BitIO API are simpler and more
  16:../Generated_Code/Bit1.c **** **         portable to various microprocessors.
  17:../Generated_Code/Bit1.c **** **     Settings    :
  18:../Generated_Code/Bit1.c **** **          Component name                                 : Bit1
  19:../Generated_Code/Bit1.c **** **          Pin for I/O                                    : DAC0_OUT/ADC0_SE23/CMP0_IN4/PTE30/TPM0
  20:../Generated_Code/Bit1.c **** **          Pin signal                                     : 
  21:../Generated_Code/Bit1.c **** **          Direction                                      : Output
  22:../Generated_Code/Bit1.c **** **          Initialization                                 : 
  23:../Generated_Code/Bit1.c **** **            Init. direction                              : Output
  24:../Generated_Code/Bit1.c **** **            Init. value                                  : 0
  25:../Generated_Code/Bit1.c **** **            Auto initialization                          : yes
  26:../Generated_Code/Bit1.c **** **          Safe mode                                      : no
  27:../Generated_Code/Bit1.c **** **     Contents    :
  28:../Generated_Code/Bit1.c **** **         Init   - LDD_TDeviceData* Bit1_Init(LDD_TUserData *UserDataPtr);
  29:../Generated_Code/Bit1.c **** **         GetVal - bool Bit1_GetVal(LDD_TDeviceData *DeviceDataPtr);
  30:../Generated_Code/Bit1.c **** **         PutVal - void Bit1_PutVal(LDD_TDeviceData *DeviceDataPtr, bool Val);
  31:../Generated_Code/Bit1.c **** **         ClrVal - void Bit1_ClrVal(LDD_TDeviceData *DeviceDataPtr);
  32:../Generated_Code/Bit1.c **** **         SetVal - void Bit1_SetVal(LDD_TDeviceData *DeviceDataPtr);
  33:../Generated_Code/Bit1.c **** **
  34:../Generated_Code/Bit1.c **** **     Copyright : 1997 - 2013 Freescale Semiconductor, Inc. All Rights Reserved.
  35:../Generated_Code/Bit1.c **** **     SOURCE DISTRIBUTION PERMISSIBLE as directed in End User License Agreement.
  36:../Generated_Code/Bit1.c **** **     
  37:../Generated_Code/Bit1.c **** **     http      : www.freescale.com
  38:../Generated_Code/Bit1.c **** **     mail      : support@freescale.com
  39:../Generated_Code/Bit1.c **** ** ###################################################################*/
  40:../Generated_Code/Bit1.c **** /*!
  41:../Generated_Code/Bit1.c **** ** @file Bit1.c
  42:../Generated_Code/Bit1.c **** ** @version 01.03
  43:../Generated_Code/Bit1.c **** ** @brief
  44:../Generated_Code/Bit1.c **** **         The HAL BitIO component provides a low level API for unified
  45:../Generated_Code/Bit1.c **** **         access to general purpose digital input/output pins across
  46:../Generated_Code/Bit1.c **** **         various device designs.
  47:../Generated_Code/Bit1.c **** **
  48:../Generated_Code/Bit1.c **** **         RTOS drivers using HAL BitIO API are simpler and more
  49:../Generated_Code/Bit1.c **** **         portable to various microprocessors.
  50:../Generated_Code/Bit1.c **** */         
  51:../Generated_Code/Bit1.c **** /*!
  52:../Generated_Code/Bit1.c **** **  @addtogroup Bit1_module Bit1 module documentation
  53:../Generated_Code/Bit1.c **** **  @{
  54:../Generated_Code/Bit1.c **** */         
  55:../Generated_Code/Bit1.c **** 
  56:../Generated_Code/Bit1.c **** /* MODULE Bit1. */
  57:../Generated_Code/Bit1.c **** 
  58:../Generated_Code/Bit1.c **** /* {Default RTOS Adapter} No RTOS includes */
  59:../Generated_Code/Bit1.c **** #include "Bit1.h"
  60:../Generated_Code/Bit1.c **** 
  61:../Generated_Code/Bit1.c **** #ifdef __cplusplus
  62:../Generated_Code/Bit1.c **** extern "C" {
  63:../Generated_Code/Bit1.c **** #endif 
  64:../Generated_Code/Bit1.c **** 
  65:../Generated_Code/Bit1.c **** typedef struct {
  66:../Generated_Code/Bit1.c ****   LDD_TUserData *UserDataPtr;          /* Pointer to user data */
  67:../Generated_Code/Bit1.c **** } Bit1_TDeviceData;                    /* Device data structure type */
  68:../Generated_Code/Bit1.c **** 
  69:../Generated_Code/Bit1.c **** typedef Bit1_TDeviceData *Bit1_TDeviceDataPtr ; /* Pointer to the device data structure. */
  70:../Generated_Code/Bit1.c **** 
  71:../Generated_Code/Bit1.c **** /* {Default RTOS Adapter} Static object used for simulation of dynamic driver memory allocation */
  72:../Generated_Code/Bit1.c **** static Bit1_TDeviceData DeviceDataPrv__DEFAULT_RTOS_ALLOC;
  73:../Generated_Code/Bit1.c **** /*
  74:../Generated_Code/Bit1.c **** ** ===================================================================
  75:../Generated_Code/Bit1.c **** **     Method      :  Bit1_Init (component BitIO_LDD)
  76:../Generated_Code/Bit1.c **** */
  77:../Generated_Code/Bit1.c **** /*!
  78:../Generated_Code/Bit1.c **** **     @brief
  79:../Generated_Code/Bit1.c **** **         Initializes the device. Allocates memory for the device data
  80:../Generated_Code/Bit1.c **** **         structure, allocates interrupt vectors and sets interrupt
  81:../Generated_Code/Bit1.c **** **         priority, sets pin routing, sets timing, etc. If the "Enable
  82:../Generated_Code/Bit1.c **** **         in init. code" is set to "yes" value then the device is also
  83:../Generated_Code/Bit1.c **** **         enabled(see the description of the Enable() method). In this
  84:../Generated_Code/Bit1.c **** **         case the Enable() method is not necessary and needn't to be
  85:../Generated_Code/Bit1.c **** **         generated. 
  86:../Generated_Code/Bit1.c **** **     @param
  87:../Generated_Code/Bit1.c **** **         UserDataPtr     - Pointer to the user or
  88:../Generated_Code/Bit1.c **** **                           RTOS specific data. This pointer will be
  89:../Generated_Code/Bit1.c **** **                           passed as an event or callback parameter.
  90:../Generated_Code/Bit1.c **** **     @return
  91:../Generated_Code/Bit1.c **** **                         - Pointer to the dynamically allocated private
  92:../Generated_Code/Bit1.c **** **                           structure or NULL if there was an error.
  93:../Generated_Code/Bit1.c **** */
  94:../Generated_Code/Bit1.c **** /* ===================================================================*/
  95:../Generated_Code/Bit1.c **** LDD_TDeviceData* Bit1_Init(LDD_TUserData *UserDataPtr)
  96:../Generated_Code/Bit1.c **** {
  32              		.loc 1 96 0
  33              		.cfi_startproc
  34 0000 80B5     		push	{r7, lr}
  35              	.LCFI0:
  36              		.cfi_def_cfa_offset 8
  37              		.cfi_offset 7, -8
  38              		.cfi_offset 14, -4
  39 0002 84B0     		sub	sp, sp, #16
  40              	.LCFI1:
  41              		.cfi_def_cfa_offset 24
  42 0004 00AF     		add	r7, sp, #0
  43              	.LCFI2:
  44              		.cfi_def_cfa_register 7
  45 0006 7860     		str	r0, [r7, #4]
  97:../Generated_Code/Bit1.c ****   /* Allocate device structure */
  98:../Generated_Code/Bit1.c ****   Bit1_TDeviceDataPtr DeviceDataPrv;
  99:../Generated_Code/Bit1.c **** 
 100:../Generated_Code/Bit1.c ****   /* {Default RTOS Adapter} Driver memory allocation: Dynamic allocation is simulated by a pointer 
 101:../Generated_Code/Bit1.c ****   DeviceDataPrv = &DeviceDataPrv__DEFAULT_RTOS_ALLOC;
  46              		.loc 1 101 0
  47 0008 114B     		ldr	r3, .L3
  48 000a FB60     		str	r3, [r7, #12]
 102:../Generated_Code/Bit1.c ****   DeviceDataPrv->UserDataPtr = UserDataPtr; /* Store the RTOS device structure */
  49              		.loc 1 102 0
  50 000c FB68     		ldr	r3, [r7, #12]
  51 000e 7A68     		ldr	r2, [r7, #4]
  52 0010 1A60     		str	r2, [r3]
 103:../Generated_Code/Bit1.c ****   /* Configure pin as output */
 104:../Generated_Code/Bit1.c ****   /* GPIOE_PDDR: PDD|=0x40000000 */
 105:../Generated_Code/Bit1.c ****   GPIOE_PDDR |= GPIO_PDDR_PDD(0x40000000);                                   
  53              		.loc 1 105 0
  54 0012 104B     		ldr	r3, .L3+4
  55 0014 0F4A     		ldr	r2, .L3+4
  56 0016 5269     		ldr	r2, [r2, #20]
  57 0018 8021     		mov	r1, #128
  58 001a C905     		lsl	r1, r1, #23
  59 001c 0A43     		orr	r2, r1
  60 001e 5A61     		str	r2, [r3, #20]
 106:../Generated_Code/Bit1.c ****   /* Set initialization value */
 107:../Generated_Code/Bit1.c ****   /* GPIOE_PDOR: PDO&=~0x40000000 */
 108:../Generated_Code/Bit1.c ****   GPIOE_PDOR &= (uint32_t)~(uint32_t)(GPIO_PDOR_PDO(0x40000000));                                  
  61              		.loc 1 108 0
  62 0020 0C4B     		ldr	r3, .L3+4
  63 0022 0C4A     		ldr	r2, .L3+4
  64 0024 1168     		ldr	r1, [r2]
  65 0026 0C4A     		ldr	r2, .L3+8
  66 0028 0A40     		and	r2, r1
  67 002a 1A60     		str	r2, [r3]
 109:../Generated_Code/Bit1.c ****   /* Initialization of Port Control register */
 110:../Generated_Code/Bit1.c ****   /* PORTE_PCR30: ISF=0,MUX=1 */
 111:../Generated_Code/Bit1.c ****   PORTE_PCR30 = (uint32_t)((PORTE_PCR30 & (uint32_t)~(uint32_t)(
  68              		.loc 1 111 0
  69 002c 0B4B     		ldr	r3, .L3+12
  70 002e 0B4A     		ldr	r2, .L3+12
  71 0030 916F     		ldr	r1, [r2, #120]
  72 0032 0B4A     		ldr	r2, .L3+16
  73 0034 0A40     		and	r2, r1
  74 0036 8021     		mov	r1, #128
  75 0038 4900     		lsl	r1, r1, #1
  76 003a 0A43     		orr	r2, r1
  77 003c 9A67     		str	r2, [r3, #120]
 112:../Generated_Code/Bit1.c ****                  PORT_PCR_ISF_MASK |
 113:../Generated_Code/Bit1.c ****                  PORT_PCR_MUX(0x06)
 114:../Generated_Code/Bit1.c ****                 )) | (uint32_t)(
 115:../Generated_Code/Bit1.c ****                  PORT_PCR_MUX(0x01)
 116:../Generated_Code/Bit1.c ****                 ));                                  
 117:../Generated_Code/Bit1.c ****   /* Registration of the device structure */
 118:../Generated_Code/Bit1.c ****   PE_LDD_RegisterDeviceStructure(PE_LDD_COMPONENT_Bit1_ID,DeviceDataPrv);
  78              		.loc 1 118 0
  79 003e 094B     		ldr	r3, .L3+20
  80 0040 FA68     		ldr	r2, [r7, #12]
  81 0042 9A60     		str	r2, [r3, #8]
 119:../Generated_Code/Bit1.c ****   return ((LDD_TDeviceData *)DeviceDataPrv);
  82              		.loc 1 119 0
  83 0044 FB68     		ldr	r3, [r7, #12]
 120:../Generated_Code/Bit1.c **** }
  84              		.loc 1 120 0
  85 0046 181C     		mov	r0, r3
  86 0048 BD46     		mov	sp, r7
  87 004a 04B0     		add	sp, sp, #16
  88              		@ sp needed for prologue
  89 004c 80BD     		pop	{r7, pc}
  90              	.L4:
  91 004e C046     		.align	2
  92              	.L3:
  93 0050 00000000 		.word	DeviceDataPrv__DEFAULT_RTOS_ALLOC
  94 0054 00F10F40 		.word	1074786560
  95 0058 FFFFFFBF 		.word	-1073741825
  96 005c 00D00440 		.word	1074057216
  97 0060 FFF8FFFE 		.word	-16779009
  98 0064 00000000 		.word	PE_LDD_DeviceDataList
  99              		.cfi_endproc
 100              	.LFE0:
 102              		.section	.text.Bit1_GetVal,"ax",%progbits
 103              		.align	2
 104              		.global	Bit1_GetVal
 105              		.code	16
 106              		.thumb_func
 108              	Bit1_GetVal:
 109              	.LFB1:
 121:../Generated_Code/Bit1.c **** /*
 122:../Generated_Code/Bit1.c **** ** ===================================================================
 123:../Generated_Code/Bit1.c **** **     Method      :  Bit1_GetVal (component BitIO_LDD)
 124:../Generated_Code/Bit1.c **** */
 125:../Generated_Code/Bit1.c **** /*!
 126:../Generated_Code/Bit1.c **** **     @brief
 127:../Generated_Code/Bit1.c **** **         Returns the input/output value. If the direction is [input]
 128:../Generated_Code/Bit1.c **** **         then the input value of the pin is read and returned. If the
 129:../Generated_Code/Bit1.c **** **         direction is [output] then the last written value is read
 130:../Generated_Code/Bit1.c **** **         and returned (see <Safe mode> property for limitations).
 131:../Generated_Code/Bit1.c **** **         This method cannot be disabled if direction is [input].
 132:../Generated_Code/Bit1.c **** **     @param
 133:../Generated_Code/Bit1.c **** **         DeviceDataPtr   - Device data structure
 134:../Generated_Code/Bit1.c **** **                           pointer returned by <Init> method.
 135:../Generated_Code/Bit1.c **** **     @return
 136:../Generated_Code/Bit1.c **** **                         - Input or output value. Possible values:
 137:../Generated_Code/Bit1.c **** **                           <false> - logical "0" (Low level)
 138:../Generated_Code/Bit1.c **** **                           <true> - logical "1" (High level)
 139:../Generated_Code/Bit1.c **** */
 140:../Generated_Code/Bit1.c **** /* ===================================================================*/
 141:../Generated_Code/Bit1.c **** bool Bit1_GetVal(LDD_TDeviceData *DeviceDataPtr)
 142:../Generated_Code/Bit1.c **** {
 110              		.loc 1 142 0
 111              		.cfi_startproc
 112 0000 80B5     		push	{r7, lr}
 113              	.LCFI3:
 114              		.cfi_def_cfa_offset 8
 115              		.cfi_offset 7, -8
 116              		.cfi_offset 14, -4
 117 0002 84B0     		sub	sp, sp, #16
 118              	.LCFI4:
 119              		.cfi_def_cfa_offset 24
 120 0004 00AF     		add	r7, sp, #0
 121              	.LCFI5:
 122              		.cfi_def_cfa_register 7
 123 0006 7860     		str	r0, [r7, #4]
 143:../Generated_Code/Bit1.c ****   uint32_t PortData;                   /* Port data masked according to the bit used */
 144:../Generated_Code/Bit1.c **** 
 145:../Generated_Code/Bit1.c ****   (void)DeviceDataPtr;                 /* Parameter is not used, suppress unused argument warning *
 146:../Generated_Code/Bit1.c ****   PortData = GPIO_PDD_GetPortDataOutput(Bit1_MODULE_BASE_ADDRESS) & Bit1_PORT_MASK;
 124              		.loc 1 146 0
 125 0008 064B     		ldr	r3, .L7
 126 000a 1A68     		ldr	r2, [r3]
 127 000c 8023     		mov	r3, #128
 128 000e DB05     		lsl	r3, r3, #23
 129 0010 1340     		and	r3, r2
 130 0012 FB60     		str	r3, [r7, #12]
 147:../Generated_Code/Bit1.c ****   return (PortData != 0U) ? (bool)TRUE : (bool)FALSE;
 131              		.loc 1 147 0
 132 0014 FB68     		ldr	r3, [r7, #12]
 133 0016 5A1E     		sub	r2, r3, #1
 134 0018 9341     		sbc	r3, r3, r2
 135 001a DBB2     		uxtb	r3, r3
 148:../Generated_Code/Bit1.c **** }
 136              		.loc 1 148 0
 137 001c 181C     		mov	r0, r3
 138 001e BD46     		mov	sp, r7
 139 0020 04B0     		add	sp, sp, #16
 140              		@ sp needed for prologue
 141 0022 80BD     		pop	{r7, pc}
 142              	.L8:
 143              		.align	2
 144              	.L7:
 145 0024 00F10FF8 		.word	-133172992
 146              		.cfi_endproc
 147              	.LFE1:
 149              		.section	.text.Bit1_PutVal,"ax",%progbits
 150              		.align	2
 151              		.global	Bit1_PutVal
 152              		.code	16
 153              		.thumb_func
 155              	Bit1_PutVal:
 156              	.LFB2:
 149:../Generated_Code/Bit1.c **** 
 150:../Generated_Code/Bit1.c **** /*
 151:../Generated_Code/Bit1.c **** ** ===================================================================
 152:../Generated_Code/Bit1.c **** **     Method      :  Bit1_PutVal (component BitIO_LDD)
 153:../Generated_Code/Bit1.c **** */
 154:../Generated_Code/Bit1.c **** /*!
 155:../Generated_Code/Bit1.c **** **     @brief
 156:../Generated_Code/Bit1.c **** **         The specified output value is set. If the direction is <b>
 157:../Generated_Code/Bit1.c **** **         input</b>, the component saves the value to a memory or a
 158:../Generated_Code/Bit1.c **** **         register and this value will be written to the pin after
 159:../Generated_Code/Bit1.c **** **         switching to the output mode (using <tt>SetDir(TRUE)</tt>;
 160:../Generated_Code/Bit1.c **** **         see <a href="BitIOProperties.html#SafeMode">Safe mode</a>
 161:../Generated_Code/Bit1.c **** **         property for limitations). If the direction is <b>output</b>,
 162:../Generated_Code/Bit1.c **** **         it writes the value to the pin. (Method is available only if
 163:../Generated_Code/Bit1.c **** **         the direction = <u><tt>output</tt></u> or <u><tt>
 164:../Generated_Code/Bit1.c **** **         input/output</tt></u>).
 165:../Generated_Code/Bit1.c **** **     @param
 166:../Generated_Code/Bit1.c **** **         DeviceDataPtr   - Device data structure
 167:../Generated_Code/Bit1.c **** **                           pointer returned by <Init> method.
 168:../Generated_Code/Bit1.c **** **     @param
 169:../Generated_Code/Bit1.c **** **         Val             - Output value. Possible values:
 170:../Generated_Code/Bit1.c **** **                           <false> - logical "0" (Low level)
 171:../Generated_Code/Bit1.c **** **                           <true> - logical "1" (High level)
 172:../Generated_Code/Bit1.c **** */
 173:../Generated_Code/Bit1.c **** /* ===================================================================*/
 174:../Generated_Code/Bit1.c **** void Bit1_PutVal(LDD_TDeviceData *DeviceDataPtr, bool Val)
 175:../Generated_Code/Bit1.c **** {
 157              		.loc 1 175 0
 158              		.cfi_startproc
 159 0000 80B5     		push	{r7, lr}
 160              	.LCFI6:
 161              		.cfi_def_cfa_offset 8
 162              		.cfi_offset 7, -8
 163              		.cfi_offset 14, -4
 164 0002 82B0     		sub	sp, sp, #8
 165              	.LCFI7:
 166              		.cfi_def_cfa_offset 16
 167 0004 00AF     		add	r7, sp, #0
 168              	.LCFI8:
 169              		.cfi_def_cfa_register 7
 170 0006 7860     		str	r0, [r7, #4]
 171 0008 0A1C     		mov	r2, r1
 172 000a FB1C     		add	r3, r7, #3
 173 000c 1A70     		strb	r2, [r3]
 176:../Generated_Code/Bit1.c ****   (void)DeviceDataPtr;                 /* Parameter is not used, suppress unused argument warning *
 177:../Generated_Code/Bit1.c ****   if (Val) {
 174              		.loc 1 177 0
 175 000e FB1C     		add	r3, r7, #3
 176 0010 1B78     		ldrb	r3, [r3]
 177 0012 002B     		cmp	r3, #0
 178 0014 04D0     		beq	.L10
 178:../Generated_Code/Bit1.c ****     GPIO_PDD_SetPortDataOutputMask(Bit1_MODULE_BASE_ADDRESS, Bit1_PORT_MASK);
 179              		.loc 1 178 0
 180 0016 064B     		ldr	r3, .L12
 181 0018 8022     		mov	r2, #128
 182 001a D205     		lsl	r2, r2, #23
 183 001c 5A60     		str	r2, [r3, #4]
 184 001e 03E0     		b	.L9
 185              	.L10:
 179:../Generated_Code/Bit1.c ****   } else { /* !Val */
 180:../Generated_Code/Bit1.c ****     GPIO_PDD_ClearPortDataOutputMask(Bit1_MODULE_BASE_ADDRESS, Bit1_PORT_MASK);
 186              		.loc 1 180 0
 187 0020 034B     		ldr	r3, .L12
 188 0022 8022     		mov	r2, #128
 189 0024 D205     		lsl	r2, r2, #23
 190 0026 9A60     		str	r2, [r3, #8]
 191              	.L9:
 181:../Generated_Code/Bit1.c ****   } /* !Val */
 182:../Generated_Code/Bit1.c **** }
 192              		.loc 1 182 0
 193 0028 BD46     		mov	sp, r7
 194 002a 02B0     		add	sp, sp, #8
 195              		@ sp needed for prologue
 196 002c 80BD     		pop	{r7, pc}
 197              	.L13:
 198 002e C046     		.align	2
 199              	.L12:
 200 0030 00F10FF8 		.word	-133172992
 201              		.cfi_endproc
 202              	.LFE2:
 204              		.section	.text.Bit1_ClrVal,"ax",%progbits
 205              		.align	2
 206              		.global	Bit1_ClrVal
 207              		.code	16
 208              		.thumb_func
 210              	Bit1_ClrVal:
 211              	.LFB3:
 183:../Generated_Code/Bit1.c **** 
 184:../Generated_Code/Bit1.c **** /*
 185:../Generated_Code/Bit1.c **** ** ===================================================================
 186:../Generated_Code/Bit1.c **** **     Method      :  Bit1_ClrVal (component BitIO_LDD)
 187:../Generated_Code/Bit1.c **** */
 188:../Generated_Code/Bit1.c **** /*!
 189:../Generated_Code/Bit1.c **** **     @brief
 190:../Generated_Code/Bit1.c **** **         Clears (set to zero) the output value. It is equivalent to
 191:../Generated_Code/Bit1.c **** **         the [PutVal(FALSE)]. This method is available only if the
 192:../Generated_Code/Bit1.c **** **         direction = _[output]_ or _[input/output]_.
 193:../Generated_Code/Bit1.c **** **     @param
 194:../Generated_Code/Bit1.c **** **         DeviceDataPtr   - Pointer to device data
 195:../Generated_Code/Bit1.c **** **                           structure returned by <Init> method.
 196:../Generated_Code/Bit1.c **** */
 197:../Generated_Code/Bit1.c **** /* ===================================================================*/
 198:../Generated_Code/Bit1.c **** void Bit1_ClrVal(LDD_TDeviceData *DeviceDataPtr)
 199:../Generated_Code/Bit1.c **** {
 212              		.loc 1 199 0
 213              		.cfi_startproc
 214 0000 80B5     		push	{r7, lr}
 215              	.LCFI9:
 216              		.cfi_def_cfa_offset 8
 217              		.cfi_offset 7, -8
 218              		.cfi_offset 14, -4
 219 0002 82B0     		sub	sp, sp, #8
 220              	.LCFI10:
 221              		.cfi_def_cfa_offset 16
 222 0004 00AF     		add	r7, sp, #0
 223              	.LCFI11:
 224              		.cfi_def_cfa_register 7
 225 0006 7860     		str	r0, [r7, #4]
 200:../Generated_Code/Bit1.c ****   (void)DeviceDataPtr;                 /* Parameter is not used, suppress unused argument warning *
 201:../Generated_Code/Bit1.c ****   GPIO_PDD_ClearPortDataOutputMask(Bit1_MODULE_BASE_ADDRESS, Bit1_PORT_MASK);
 226              		.loc 1 201 0
 227 0008 034B     		ldr	r3, .L15
 228 000a 8022     		mov	r2, #128
 229 000c D205     		lsl	r2, r2, #23
 230 000e 9A60     		str	r2, [r3, #8]
 202:../Generated_Code/Bit1.c **** }
 231              		.loc 1 202 0
 232 0010 BD46     		mov	sp, r7
 233 0012 02B0     		add	sp, sp, #8
 234              		@ sp needed for prologue
 235 0014 80BD     		pop	{r7, pc}
 236              	.L16:
 237 0016 C046     		.align	2
 238              	.L15:
 239 0018 00F10FF8 		.word	-133172992
 240              		.cfi_endproc
 241              	.LFE3:
 243              		.section	.text.Bit1_SetVal,"ax",%progbits
 244              		.align	2
 245              		.global	Bit1_SetVal
 246              		.code	16
 247              		.thumb_func
 249              	Bit1_SetVal:
 250              	.LFB4:
 203:../Generated_Code/Bit1.c **** 
 204:../Generated_Code/Bit1.c **** /*
 205:../Generated_Code/Bit1.c **** ** ===================================================================
 206:../Generated_Code/Bit1.c **** **     Method      :  Bit1_SetVal (component BitIO_LDD)
 207:../Generated_Code/Bit1.c **** */
 208:../Generated_Code/Bit1.c **** /*!
 209:../Generated_Code/Bit1.c **** **     @brief
 210:../Generated_Code/Bit1.c **** **         Sets (to one) the output value. It is equivalent to the
 211:../Generated_Code/Bit1.c **** **         [PutVal(TRUE)]. This method is available only if the
 212:../Generated_Code/Bit1.c **** **         direction = _[output]_ or _[input/output]_.
 213:../Generated_Code/Bit1.c **** **     @param
 214:../Generated_Code/Bit1.c **** **         DeviceDataPtr   - Pointer to device data
 215:../Generated_Code/Bit1.c **** **                           structure returned by <Init> method.
 216:../Generated_Code/Bit1.c **** */
 217:../Generated_Code/Bit1.c **** /* ===================================================================*/
 218:../Generated_Code/Bit1.c **** void Bit1_SetVal(LDD_TDeviceData *DeviceDataPtr)
 219:../Generated_Code/Bit1.c **** {
 251              		.loc 1 219 0
 252              		.cfi_startproc
 253 0000 80B5     		push	{r7, lr}
 254              	.LCFI12:
 255              		.cfi_def_cfa_offset 8
 256              		.cfi_offset 7, -8
 257              		.cfi_offset 14, -4
 258 0002 82B0     		sub	sp, sp, #8
 259              	.LCFI13:
 260              		.cfi_def_cfa_offset 16
 261 0004 00AF     		add	r7, sp, #0
 262              	.LCFI14:
 263              		.cfi_def_cfa_register 7
 264 0006 7860     		str	r0, [r7, #4]
 220:../Generated_Code/Bit1.c ****   (void)DeviceDataPtr;                 /* Parameter is not used, suppress unused argument warning *
 221:../Generated_Code/Bit1.c ****   GPIO_PDD_SetPortDataOutputMask(Bit1_MODULE_BASE_ADDRESS, Bit1_PORT_MASK);
 265              		.loc 1 221 0
 266 0008 034B     		ldr	r3, .L18
 267 000a 8022     		mov	r2, #128
 268 000c D205     		lsl	r2, r2, #23
 269 000e 5A60     		str	r2, [r3, #4]
 222:../Generated_Code/Bit1.c **** }
 270              		.loc 1 222 0
 271 0010 BD46     		mov	sp, r7
 272 0012 02B0     		add	sp, sp, #8
 273              		@ sp needed for prologue
 274 0014 80BD     		pop	{r7, pc}
 275              	.L19:
 276 0016 C046     		.align	2
 277              	.L18:
 278 0018 00F10FF8 		.word	-133172992
 279              		.cfi_endproc
 280              	.LFE4:
 282              		.text
 283              	.Letext0:
 284              		.file 2 "E:/Freescale/CW MCU v10.5/MCU/ARM_GCC_Support/ewl/EWL_C/include/cstdint"
 285              		.file 3 "../Generated_Code/PE_Types.h"
 286              		.file 4 "../Generated_Code/IO_Map.h"