   1              		.cpu cortex-m0
   2              		.fpu softvfp
   3              		.eabi_attribute 20, 1
   4              		.eabi_attribute 21, 1
   5              		.eabi_attribute 23, 3
   6              		.eabi_attribute 24, 1
   7              		.eabi_attribute 25, 1
   8              		.eabi_attribute 26, 1
   9              		.eabi_attribute 30, 6
  10              		.eabi_attribute 34, 0
  11              		.eabi_attribute 18, 4
  12              		.code	16
  13              		.file	"SS0.c"
  14              		.text
  15              	.Ltext0:
  16              		.cfi_sections	.debug_frame
  17              		.section	.bss.DeviceDataPrv__DEFAULT_RTOS_ALLOC,"aw",%nobits
  18              		.align	2
  21              	DeviceDataPrv__DEFAULT_RTOS_ALLOC:
  22 0000 00000000 		.space	28
  22      00000000 
  22      00000000 
  22      00000000 
  22      00000000 
  23              		.section	.bss.INT_SPI0__DEFAULT_RTOS_ISRPARAM,"aw",%nobits
  24              		.align	2
  27              	INT_SPI0__DEFAULT_RTOS_ISRPARAM:
  28 0000 00000000 		.space	4
  29              		.section	.text.SS0_Init,"ax",%progbits
  30              		.align	2
  31              		.global	SS0_Init
  32              		.code	16
  33              		.thumb_func
  35              	SS0_Init:
  36              	.LFB0:
  37              		.file 1 "../Generated_Code/SS0.c"
   1:../Generated_Code/SS0.c **** /* ###################################################################
   2:../Generated_Code/SS0.c **** **     THIS COMPONENT MODULE IS GENERATED BY THE TOOL. DO NOT MODIFY IT.
   3:../Generated_Code/SS0.c **** **     Filename    : SS0.c
   4:../Generated_Code/SS0.c **** **     Project     : ProcessorExpert
   5:../Generated_Code/SS0.c **** **     Processor   : MKL25Z128VFM4
   6:../Generated_Code/SS0.c **** **     Component   : SPISlave_LDD
   7:../Generated_Code/SS0.c **** **     Version     : Component 01.047, Driver 01.02, CPU db: 3.00.000
   8:../Generated_Code/SS0.c **** **     Compiler    : GNU C Compiler
   9:../Generated_Code/SS0.c **** **     Date/Time   : 2015-10-19, 21:38, # CodeGen: 26
  10:../Generated_Code/SS0.c **** **     Abstract    :
  11:../Generated_Code/SS0.c **** **         This component "SPISlave_LDD" implements SLAVE part of synchronous
  12:../Generated_Code/SS0.c **** **         serial master-slave communication.
  13:../Generated_Code/SS0.c **** **     Settings    :
  14:../Generated_Code/SS0.c **** **          Component name                                 : SS0
  15:../Generated_Code/SS0.c **** **          Device                                         : SPI0
  16:../Generated_Code/SS0.c **** **          Interrupt service/event                        : Enabled
  17:../Generated_Code/SS0.c **** **            Input interrupt                              : INT_SPI0
  18:../Generated_Code/SS0.c **** **            Input interrupt priority                     : medium priority
  19:../Generated_Code/SS0.c **** **            Output interrupt                             : INT_SPI0
  20:../Generated_Code/SS0.c **** **            Output interrupt priority                    : medium priority
  21:../Generated_Code/SS0.c **** **          Settings                                       : 
  22:../Generated_Code/SS0.c **** **            Input pin                                    : Enabled
  23:../Generated_Code/SS0.c **** **              Pin                                        : CMP0_IN0/PTC6/LLWU_P10/SPI0_MOSI/EXTRG
  24:../Generated_Code/SS0.c **** **              Pin signal                                 : 
  25:../Generated_Code/SS0.c **** **            Output pin                                   : Enabled
  26:../Generated_Code/SS0.c **** **              Pin                                        : CMP0_IN1/PTC7/SPI0_MISO/SPI0_MOSI
  27:../Generated_Code/SS0.c **** **              Pin signal                                 : 
  28:../Generated_Code/SS0.c **** **            Clock pin                                    : 
  29:../Generated_Code/SS0.c **** **              Pin                                        : PTC5/LLWU_P9/SPI0_SCK/LPTMR0_ALT2/CMP0
  30:../Generated_Code/SS0.c **** **              Pin signal                                 : 
  31:../Generated_Code/SS0.c **** **            Slave select                                 : 
  32:../Generated_Code/SS0.c **** **              Pin                                        : PTC4/LLWU_P8/SPI0_PCS0/UART1_TX/TPM0_C
  33:../Generated_Code/SS0.c **** **              Pin signal                                 : 
  34:../Generated_Code/SS0.c **** **              Active level                               : Low
  35:../Generated_Code/SS0.c **** **            Attribute set                                : 
  36:../Generated_Code/SS0.c **** **              Width                                      : 8 bits
  37:../Generated_Code/SS0.c **** **              MSB first                                  : yes
  38:../Generated_Code/SS0.c **** **              Clock polarity                             : High
  39:../Generated_Code/SS0.c **** **              Clock phase                                : Change on leading edge
  40:../Generated_Code/SS0.c **** **              Parity                                     : None
  41:../Generated_Code/SS0.c **** **            HW input buffer size                         : 1
  42:../Generated_Code/SS0.c **** **            HW input watermark                           : 1
  43:../Generated_Code/SS0.c **** **            Receiver DMA                                 : Disabled
  44:../Generated_Code/SS0.c **** **            HW output buffer size                        : 1
  45:../Generated_Code/SS0.c **** **            HW output watermark                          : 1
  46:../Generated_Code/SS0.c **** **            Transmitter DMA                              : Disabled
  47:../Generated_Code/SS0.c **** **          Initialization                                 : 
  48:../Generated_Code/SS0.c **** **            Enabled in init. code                        : yes
  49:../Generated_Code/SS0.c **** **            Auto initialization                          : yes
  50:../Generated_Code/SS0.c **** **            Event mask                                   : 
  51:../Generated_Code/SS0.c **** **              OnBlockSent                                : Enabled
  52:../Generated_Code/SS0.c **** **              OnBlockReceived                            : Enabled
  53:../Generated_Code/SS0.c **** **              OnError                                    : Disabled
  54:../Generated_Code/SS0.c **** **     Contents    :
  55:../Generated_Code/SS0.c **** **         Init               - LDD_TDeviceData* SS0_Init(LDD_TUserData *UserDataPtr);
  56:../Generated_Code/SS0.c **** **         Deinit             - void SS0_Deinit(LDD_TDeviceData *DeviceDataPtr);
  57:../Generated_Code/SS0.c **** **         SendBlock          - LDD_TError SS0_SendBlock(LDD_TDeviceData *DeviceDataPtr, LDD_TData.
  58:../Generated_Code/SS0.c **** **         ReceiveBlock       - LDD_TError SS0_ReceiveBlock(LDD_TDeviceData *DeviceDataPtr, LDD_TDa
  59:../Generated_Code/SS0.c **** **         GetSentDataNum     - uint16_t SS0_GetSentDataNum(LDD_TDeviceData *DeviceDataPtr);
  60:../Generated_Code/SS0.c **** **         GetReceivedDataNum - uint16_t SS0_GetReceivedDataNum(LDD_TDeviceData *DeviceDataPtr);
  61:../Generated_Code/SS0.c **** **
  62:../Generated_Code/SS0.c **** **     Copyright : 1997 - 2013 Freescale Semiconductor, Inc. All Rights Reserved.
  63:../Generated_Code/SS0.c **** **     SOURCE DISTRIBUTION PERMISSIBLE as directed in End User License Agreement.
  64:../Generated_Code/SS0.c **** **     
  65:../Generated_Code/SS0.c **** **     http      : www.freescale.com
  66:../Generated_Code/SS0.c **** **     mail      : support@freescale.com
  67:../Generated_Code/SS0.c **** ** ###################################################################*/
  68:../Generated_Code/SS0.c **** /*!
  69:../Generated_Code/SS0.c **** ** @file SS0.c
  70:../Generated_Code/SS0.c **** ** @version 01.02
  71:../Generated_Code/SS0.c **** ** @brief
  72:../Generated_Code/SS0.c **** **         This component "SPISlave_LDD" implements SLAVE part of synchronous
  73:../Generated_Code/SS0.c **** **         serial master-slave communication.
  74:../Generated_Code/SS0.c **** */         
  75:../Generated_Code/SS0.c **** /*!
  76:../Generated_Code/SS0.c **** **  @addtogroup SS0_module SS0 module documentation
  77:../Generated_Code/SS0.c **** **  @{
  78:../Generated_Code/SS0.c **** */         
  79:../Generated_Code/SS0.c **** 
  80:../Generated_Code/SS0.c **** /* MODULE SS0. */
  81:../Generated_Code/SS0.c **** /*lint -save  -e926 -e927 -e928 -e929 Disable MISRA rule (11.4) checking. */
  82:../Generated_Code/SS0.c **** 
  83:../Generated_Code/SS0.c **** #include "Events.h"
  84:../Generated_Code/SS0.c **** #include "SS0.h"
  85:../Generated_Code/SS0.c **** /* {Default RTOS Adapter} No RTOS includes */
  86:../Generated_Code/SS0.c **** 
  87:../Generated_Code/SS0.c **** #ifdef __cplusplus
  88:../Generated_Code/SS0.c **** extern "C" {
  89:../Generated_Code/SS0.c **** #endif 
  90:../Generated_Code/SS0.c **** 
  91:../Generated_Code/SS0.c **** #define AVAILABLE_EVENTS_MASK (LDD_SPISLAVE_ON_BLOCK_RECEIVED | LDD_SPISLAVE_ON_BLOCK_SENT)
  92:../Generated_Code/SS0.c **** 
  93:../Generated_Code/SS0.c **** /* These constants contain pins masks */
  94:../Generated_Code/SS0.c **** #define SS0_AVAILABLE_PIN_MASK (LDD_SPISLAVE_INPUT_PIN | LDD_SPISLAVE_OUTPUT_PIN | LDD_SPISLAVE_CLK
  95:../Generated_Code/SS0.c **** 
  96:../Generated_Code/SS0.c **** typedef struct {
  97:../Generated_Code/SS0.c ****   LDD_SPISLAVE_TError ErrFlag;         /* Error flags */
  98:../Generated_Code/SS0.c ****   uint16_t InpRecvDataNum;             /* The counter of received characters */
  99:../Generated_Code/SS0.c ****   uint8_t *InpDataPtr;                 /* The buffer pointer for received characters */
 100:../Generated_Code/SS0.c ****   uint16_t InpDataNumReq;              /* The counter of characters to receive by ReceiveBlock() */
 101:../Generated_Code/SS0.c ****   uint16_t OutSentDataNum;             /* The counter of sent characters */
 102:../Generated_Code/SS0.c ****   uint8_t *OutDataPtr;                 /* The buffer pointer for data to be transmitted */
 103:../Generated_Code/SS0.c ****   uint16_t OutDataNumReq;              /* The counter of characters to be send by SendBlock() */
 104:../Generated_Code/SS0.c ****   LDD_TUserData *UserData;             /* User device data structure */
 105:../Generated_Code/SS0.c **** } SS0_TDeviceData;                     /* Device data structure type */
 106:../Generated_Code/SS0.c **** 
 107:../Generated_Code/SS0.c **** typedef SS0_TDeviceData* SS0_TDeviceDataPtr; /* Pointer to the device data structure */
 108:../Generated_Code/SS0.c **** 
 109:../Generated_Code/SS0.c **** /* {Default RTOS Adapter} Static object used for simulation of dynamic driver memory allocation */
 110:../Generated_Code/SS0.c **** static SS0_TDeviceData DeviceDataPrv__DEFAULT_RTOS_ALLOC;
 111:../Generated_Code/SS0.c **** /* {Default RTOS Adapter} Global variable used for passing a parameter into ISR */
 112:../Generated_Code/SS0.c **** static SS0_TDeviceDataPtr INT_SPI0__DEFAULT_RTOS_ISRPARAM;
 113:../Generated_Code/SS0.c **** /* Internal method prototypes */
 114:../Generated_Code/SS0.c **** 
 115:../Generated_Code/SS0.c **** /*
 116:../Generated_Code/SS0.c **** ** ===================================================================
 117:../Generated_Code/SS0.c **** **     Method      :  SS0_Init (component SPISlave_LDD)
 118:../Generated_Code/SS0.c **** */
 119:../Generated_Code/SS0.c **** /*!
 120:../Generated_Code/SS0.c **** **     @brief
 121:../Generated_Code/SS0.c **** **         Initializes the device. Allocates memory for the device data
 122:../Generated_Code/SS0.c **** **         structure, allocates interrupt vectors and sets interrupt
 123:../Generated_Code/SS0.c **** **         priority, sets pin routing, sets timing, etc.
 124:../Generated_Code/SS0.c **** **         If the "Enable in init. code" is set to "yes" value then the
 125:../Generated_Code/SS0.c **** **         device is also enabled(see the description of the Enable()
 126:../Generated_Code/SS0.c **** **         method). In this case the Enable() method is not necessary
 127:../Generated_Code/SS0.c **** **         and needn't to be generated. 
 128:../Generated_Code/SS0.c **** **         This method can be called only once. Before the second call
 129:../Generated_Code/SS0.c **** **         of Init() the Deinit() must be called first.
 130:../Generated_Code/SS0.c **** **     @param
 131:../Generated_Code/SS0.c **** **         UserDataPtr     - Pointer to the user or
 132:../Generated_Code/SS0.c **** **                           RTOS specific data. This pointer will be
 133:../Generated_Code/SS0.c **** **                           passed as an event or callback parameter.
 134:../Generated_Code/SS0.c **** **     @return
 135:../Generated_Code/SS0.c **** **                         - Device data structure pointer.
 136:../Generated_Code/SS0.c **** */
 137:../Generated_Code/SS0.c **** /* ===================================================================*/
 138:../Generated_Code/SS0.c **** LDD_TDeviceData* SS0_Init(LDD_TUserData *UserDataPtr)
 139:../Generated_Code/SS0.c **** {
  38              		.loc 1 139 0
  39              		.cfi_startproc
  40 0000 80B5     		push	{r7, lr}
  41              	.LCFI0:
  42              		.cfi_def_cfa_offset 8
  43              		.cfi_offset 7, -8
  44              		.cfi_offset 14, -4
  45 0002 84B0     		sub	sp, sp, #16
  46              	.LCFI1:
  47              		.cfi_def_cfa_offset 24
  48 0004 00AF     		add	r7, sp, #0
  49              	.LCFI2:
  50              		.cfi_def_cfa_register 7
  51 0006 7860     		str	r0, [r7, #4]
 140:../Generated_Code/SS0.c ****   /* Allocate LDD device structure */
 141:../Generated_Code/SS0.c ****   SS0_TDeviceDataPtr DeviceDataPrv;
 142:../Generated_Code/SS0.c **** 
 143:../Generated_Code/SS0.c ****   /* {Default RTOS Adapter} Driver memory allocation: Dynamic allocation is simulated by a pointer 
 144:../Generated_Code/SS0.c ****   DeviceDataPrv = &DeviceDataPrv__DEFAULT_RTOS_ALLOC;
  52              		.loc 1 144 0
  53 0008 3C4B     		ldr	r3, .L3
  54 000a FB60     		str	r3, [r7, #12]
 145:../Generated_Code/SS0.c ****   DeviceDataPrv->UserData = UserDataPtr; /* Store the RTOS device structure */
  55              		.loc 1 145 0
  56 000c FB68     		ldr	r3, [r7, #12]
  57 000e 7A68     		ldr	r2, [r7, #4]
  58 0010 9A61     		str	r2, [r3, #24]
 146:../Generated_Code/SS0.c ****   /* Interrupt vector(s) allocation */
 147:../Generated_Code/SS0.c ****   /* {Default RTOS Adapter} Set interrupt vector: IVT is static, ISR parameter is passed by the glo
 148:../Generated_Code/SS0.c ****   INT_SPI0__DEFAULT_RTOS_ISRPARAM = DeviceDataPrv;
  59              		.loc 1 148 0
  60 0012 3B4B     		ldr	r3, .L3+4
  61 0014 FA68     		ldr	r2, [r7, #12]
  62 0016 1A60     		str	r2, [r3]
 149:../Generated_Code/SS0.c ****   DeviceDataPrv->ErrFlag = 0x00U;      /* Clear error flags */
  63              		.loc 1 149 0
  64 0018 FB68     		ldr	r3, [r7, #12]
  65 001a 0022     		mov	r2, #0
  66 001c 1A60     		str	r2, [r3]
 150:../Generated_Code/SS0.c ****   /* Clear the receive counters and pointer */
 151:../Generated_Code/SS0.c ****   DeviceDataPrv->InpRecvDataNum = 0x00U; /* Clear the counter of received characters */
  67              		.loc 1 151 0
  68 001e FB68     		ldr	r3, [r7, #12]
  69 0020 0022     		mov	r2, #0
  70 0022 9A80     		strh	r2, [r3, #4]
 152:../Generated_Code/SS0.c ****   DeviceDataPrv->InpDataNumReq = 0x00U; /* Clear the counter of characters to receive by ReceiveBlo
  71              		.loc 1 152 0
  72 0024 FB68     		ldr	r3, [r7, #12]
  73 0026 0022     		mov	r2, #0
  74 0028 9A81     		strh	r2, [r3, #12]
 153:../Generated_Code/SS0.c ****   DeviceDataPrv->InpDataPtr = NULL;    /* Clear the buffer pointer for received characters */
  75              		.loc 1 153 0
  76 002a FB68     		ldr	r3, [r7, #12]
  77 002c 0022     		mov	r2, #0
  78 002e 9A60     		str	r2, [r3, #8]
 154:../Generated_Code/SS0.c ****   /* Clear the transmit counters and pointer */
 155:../Generated_Code/SS0.c ****   DeviceDataPrv->OutSentDataNum = 0x00U; /* Clear the counter of sent characters */
  79              		.loc 1 155 0
  80 0030 FB68     		ldr	r3, [r7, #12]
  81 0032 0022     		mov	r2, #0
  82 0034 DA81     		strh	r2, [r3, #14]
 156:../Generated_Code/SS0.c ****   DeviceDataPrv->OutDataNumReq = 0x00U; /* Clear the counter of characters to be send by SendBlock(
  83              		.loc 1 156 0
  84 0036 FB68     		ldr	r3, [r7, #12]
  85 0038 0022     		mov	r2, #0
  86 003a 9A82     		strh	r2, [r3, #20]
 157:../Generated_Code/SS0.c ****   DeviceDataPrv->OutDataPtr = NULL;    /* Clear the buffer pointer for data to be transmitted */
  87              		.loc 1 157 0
  88 003c FB68     		ldr	r3, [r7, #12]
  89 003e 0022     		mov	r2, #0
  90 0040 1A61     		str	r2, [r3, #16]
 158:../Generated_Code/SS0.c ****   /* SIM_SCGC4: SPI0=1 */
 159:../Generated_Code/SS0.c ****   SIM_SCGC4 |= SIM_SCGC4_SPI0_MASK;                                   
  91              		.loc 1 159 0
  92 0042 304A     		ldr	r2, .L3+8
  93 0044 2F49     		ldr	r1, .L3+8
  94 0046 304B     		ldr	r3, .L3+12
  95 0048 CB58     		ldr	r3, [r1, r3]
  96 004a 8021     		mov	r1, #128
  97 004c C903     		lsl	r1, r1, #15
  98 004e 1943     		orr	r1, r3
  99 0050 2D4B     		ldr	r3, .L3+12
 100 0052 D150     		str	r1, [r2, r3]
 160:../Generated_Code/SS0.c ****   /* SPI0_C1: SPIE=0,SPE=0,SPTIE=0,MSTR=0,CPOL=0,CPHA=1,SSOE=0,LSBFE=0 */
 161:../Generated_Code/SS0.c ****   SPI0_C1 = SPI_C1_CPHA_MASK;          /* Clear control register */
 101              		.loc 1 161 0
 102 0054 2D4B     		ldr	r3, .L3+16
 103 0056 0422     		mov	r2, #4
 104 0058 1A70     		strb	r2, [r3]
 162:../Generated_Code/SS0.c ****   /* Interrupt vector(s) priority setting */
 163:../Generated_Code/SS0.c ****   /* NVIC_IPR2: PRI_10=0x80 */
 164:../Generated_Code/SS0.c ****   NVIC_IPR2 = (uint32_t)((NVIC_IPR2 & (uint32_t)~(uint32_t)(
 105              		.loc 1 164 0
 106 005a 2D4A     		ldr	r2, .L3+20
 107 005c 2C49     		ldr	r1, .L3+20
 108 005e C223     		mov	r3, #194
 109 0060 9B00     		lsl	r3, r3, #2
 110 0062 C958     		ldr	r1, [r1, r3]
 111 0064 2B4B     		ldr	r3, .L3+24
 112 0066 0B40     		and	r3, r1
 113 0068 8021     		mov	r1, #128
 114 006a 0904     		lsl	r1, r1, #16
 115 006c 1943     		orr	r1, r3
 116 006e C223     		mov	r3, #194
 117 0070 9B00     		lsl	r3, r3, #2
 118 0072 D150     		str	r1, [r2, r3]
 165:../Generated_Code/SS0.c ****                NVIC_IP_PRI_10(0x7F)
 166:../Generated_Code/SS0.c ****               )) | (uint32_t)(
 167:../Generated_Code/SS0.c ****                NVIC_IP_PRI_10(0x80)
 168:../Generated_Code/SS0.c ****               ));                                  
 169:../Generated_Code/SS0.c ****   /* NVIC_ISER: SETENA|=0x0400 */
 170:../Generated_Code/SS0.c ****   NVIC_ISER |= NVIC_ISER_SETENA(0x0400);                                   
 119              		.loc 1 170 0
 120 0074 264B     		ldr	r3, .L3+20
 121 0076 264A     		ldr	r2, .L3+20
 122 0078 1268     		ldr	r2, [r2]
 123 007a 8021     		mov	r1, #128
 124 007c C900     		lsl	r1, r1, #3
 125 007e 0A43     		orr	r2, r1
 126 0080 1A60     		str	r2, [r3]
 171:../Generated_Code/SS0.c ****   /* PORTC_PCR6: ISF=0,MUX=2 */
 172:../Generated_Code/SS0.c ****   PORTC_PCR6 = (uint32_t)((PORTC_PCR6 & (uint32_t)~(uint32_t)(
 127              		.loc 1 172 0
 128 0082 254B     		ldr	r3, .L3+28
 129 0084 244A     		ldr	r2, .L3+28
 130 0086 9169     		ldr	r1, [r2, #24]
 131 0088 244A     		ldr	r2, .L3+32
 132 008a 0A40     		and	r2, r1
 133 008c 8021     		mov	r1, #128
 134 008e 8900     		lsl	r1, r1, #2
 135 0090 0A43     		orr	r2, r1
 136 0092 9A61     		str	r2, [r3, #24]
 173:../Generated_Code/SS0.c ****                 PORT_PCR_ISF_MASK |
 174:../Generated_Code/SS0.c ****                 PORT_PCR_MUX(0x05)
 175:../Generated_Code/SS0.c ****                )) | (uint32_t)(
 176:../Generated_Code/SS0.c ****                 PORT_PCR_MUX(0x02)
 177:../Generated_Code/SS0.c ****                ));                                  
 178:../Generated_Code/SS0.c ****   /* PORTC_PCR7: ISF=0,MUX=2 */
 179:../Generated_Code/SS0.c ****   PORTC_PCR7 = (uint32_t)((PORTC_PCR7 & (uint32_t)~(uint32_t)(
 137              		.loc 1 179 0
 138 0094 204B     		ldr	r3, .L3+28
 139 0096 204A     		ldr	r2, .L3+28
 140 0098 D169     		ldr	r1, [r2, #28]
 141 009a 204A     		ldr	r2, .L3+32
 142 009c 0A40     		and	r2, r1
 143 009e 8021     		mov	r1, #128
 144 00a0 8900     		lsl	r1, r1, #2
 145 00a2 0A43     		orr	r2, r1
 146 00a4 DA61     		str	r2, [r3, #28]
 180:../Generated_Code/SS0.c ****                 PORT_PCR_ISF_MASK |
 181:../Generated_Code/SS0.c ****                 PORT_PCR_MUX(0x05)
 182:../Generated_Code/SS0.c ****                )) | (uint32_t)(
 183:../Generated_Code/SS0.c ****                 PORT_PCR_MUX(0x02)
 184:../Generated_Code/SS0.c ****                ));                                  
 185:../Generated_Code/SS0.c ****   /* PORTC_PCR5: ISF=0,MUX=2 */
 186:../Generated_Code/SS0.c ****   PORTC_PCR5 = (uint32_t)((PORTC_PCR5 & (uint32_t)~(uint32_t)(
 147              		.loc 1 186 0
 148 00a6 1C4B     		ldr	r3, .L3+28
 149 00a8 1B4A     		ldr	r2, .L3+28
 150 00aa 5169     		ldr	r1, [r2, #20]
 151 00ac 1B4A     		ldr	r2, .L3+32
 152 00ae 0A40     		and	r2, r1
 153 00b0 8021     		mov	r1, #128
 154 00b2 8900     		lsl	r1, r1, #2
 155 00b4 0A43     		orr	r2, r1
 156 00b6 5A61     		str	r2, [r3, #20]
 187:../Generated_Code/SS0.c ****                 PORT_PCR_ISF_MASK |
 188:../Generated_Code/SS0.c ****                 PORT_PCR_MUX(0x05)
 189:../Generated_Code/SS0.c ****                )) | (uint32_t)(
 190:../Generated_Code/SS0.c ****                 PORT_PCR_MUX(0x02)
 191:../Generated_Code/SS0.c ****                ));                                  
 192:../Generated_Code/SS0.c ****   /* PORTC_PCR4: ISF=0,MUX=2 */
 193:../Generated_Code/SS0.c ****   PORTC_PCR4 = (uint32_t)((PORTC_PCR4 & (uint32_t)~(uint32_t)(
 157              		.loc 1 193 0
 158 00b8 174B     		ldr	r3, .L3+28
 159 00ba 174A     		ldr	r2, .L3+28
 160 00bc 1169     		ldr	r1, [r2, #16]
 161 00be 174A     		ldr	r2, .L3+32
 162 00c0 0A40     		and	r2, r1
 163 00c2 8021     		mov	r1, #128
 164 00c4 8900     		lsl	r1, r1, #2
 165 00c6 0A43     		orr	r2, r1
 166 00c8 1A61     		str	r2, [r3, #16]
 194:../Generated_Code/SS0.c ****                 PORT_PCR_ISF_MASK |
 195:../Generated_Code/SS0.c ****                 PORT_PCR_MUX(0x05)
 196:../Generated_Code/SS0.c ****                )) | (uint32_t)(
 197:../Generated_Code/SS0.c ****                 PORT_PCR_MUX(0x02)
 198:../Generated_Code/SS0.c ****                ));                                  
 199:../Generated_Code/SS0.c ****   /* SPI0_C1: SPIE=0,SPE=0,SPTIE=0,MSTR=0,CPOL=1,CPHA=1,SSOE=0,LSBFE=0 */
 200:../Generated_Code/SS0.c ****   SPI0_C1 = (SPI_C1_CPOL_MASK | SPI_C1_CPHA_MASK); /* Set Configuration register */
 167              		.loc 1 200 0
 168 00ca 104B     		ldr	r3, .L3+16
 169 00cc 0C22     		mov	r2, #12
 170 00ce 1A70     		strb	r2, [r3]
 201:../Generated_Code/SS0.c ****   /* SPI0_C2: SPMIE=0,??=0,TXDMAE=0,MODFEN=0,BIDIROE=0,RXDMAE=0,SPISWAI=0,SPC0=0 */
 202:../Generated_Code/SS0.c ****   SPI0_C2 = 0x00U;                     /* Set Configuration register */
 171              		.loc 1 202 0
 172 00d0 0E4B     		ldr	r3, .L3+16
 173 00d2 0022     		mov	r2, #0
 174 00d4 5A70     		strb	r2, [r3, #1]
 203:../Generated_Code/SS0.c ****   /* SPI0_BR: ??=0,SPPR=0,SPR=0 */
 204:../Generated_Code/SS0.c ****   SPI0_BR = (SPI_BR_SPPR(0x00) | SPI_BR_SPR(0x00)); /* Set baud rate register */
 175              		.loc 1 204 0
 176 00d6 0D4B     		ldr	r3, .L3+16
 177 00d8 0022     		mov	r2, #0
 178 00da 9A70     		strb	r2, [r3, #2]
 205:../Generated_Code/SS0.c ****   /* SPI0_C1: SPE=1 */
 206:../Generated_Code/SS0.c ****   SPI0_C1 |= SPI_C1_SPE_MASK;          /* Enable device */
 179              		.loc 1 206 0
 180 00dc 0B4B     		ldr	r3, .L3+16
 181 00de 0B4A     		ldr	r2, .L3+16
 182 00e0 1278     		ldrb	r2, [r2]
 183 00e2 D2B2     		uxtb	r2, r2
 184 00e4 4021     		mov	r1, #64
 185 00e6 0A43     		orr	r2, r1
 186 00e8 D2B2     		uxtb	r2, r2
 187 00ea 1A70     		strb	r2, [r3]
 207:../Generated_Code/SS0.c ****   /* Registration of the device structure */
 208:../Generated_Code/SS0.c ****   PE_LDD_RegisterDeviceStructure(PE_LDD_COMPONENT_SS0_ID,DeviceDataPrv);
 188              		.loc 1 208 0
 189 00ec 0C4B     		ldr	r3, .L3+36
 190 00ee FA68     		ldr	r2, [r7, #12]
 191 00f0 5A60     		str	r2, [r3, #4]
 209:../Generated_Code/SS0.c ****   return ((LDD_TDeviceData *)DeviceDataPrv); /* Return pointer to the data data structure */
 192              		.loc 1 209 0
 193 00f2 FB68     		ldr	r3, [r7, #12]
 210:../Generated_Code/SS0.c **** }
 194              		.loc 1 210 0
 195 00f4 181C     		mov	r0, r3
 196 00f6 BD46     		mov	sp, r7
 197 00f8 04B0     		add	sp, sp, #16
 198              		@ sp needed for prologue
 199 00fa 80BD     		pop	{r7, pc}
 200              	.L4:
 201              		.align	2
 202              	.L3:
 203 00fc 00000000 		.word	DeviceDataPrv__DEFAULT_RTOS_ALLOC
 204 0100 00000000 		.word	INT_SPI0__DEFAULT_RTOS_ISRPARAM
 205 0104 00700440 		.word	1074032640
 206 0108 34100000 		.word	4148
 207 010c 00600740 		.word	1074225152
 208 0110 00E100E0 		.word	-536813312
 209 0114 FFFF00FF 		.word	-16711681
 210 0118 00B00440 		.word	1074049024
 211 011c FFF8FFFE 		.word	-16779009
 212 0120 00000000 		.word	PE_LDD_DeviceDataList
 213              		.cfi_endproc
 214              	.LFE0:
 216              		.section	.text.SS0_Deinit,"ax",%progbits
 217              		.align	2
 218              		.global	SS0_Deinit
 219              		.code	16
 220              		.thumb_func
 222              	SS0_Deinit:
 223              	.LFB1:
 211:../Generated_Code/SS0.c **** 
 212:../Generated_Code/SS0.c **** /*
 213:../Generated_Code/SS0.c **** ** ===================================================================
 214:../Generated_Code/SS0.c **** **     Method      :  SS0_Deinit (component SPISlave_LDD)
 215:../Generated_Code/SS0.c **** */
 216:../Generated_Code/SS0.c **** /*!
 217:../Generated_Code/SS0.c **** **     @brief
 218:../Generated_Code/SS0.c **** **         This method deinitializes the device. It switches off the
 219:../Generated_Code/SS0.c **** **         device, frees the device data structure memory, interrupts
 220:../Generated_Code/SS0.c **** **         vectors, etc.
 221:../Generated_Code/SS0.c **** **     @param
 222:../Generated_Code/SS0.c **** **         DeviceDataPtr   - Device data structure
 223:../Generated_Code/SS0.c **** **                           pointer returned by <Init> method.
 224:../Generated_Code/SS0.c **** */
 225:../Generated_Code/SS0.c **** /* ===================================================================*/
 226:../Generated_Code/SS0.c **** void SS0_Deinit(LDD_TDeviceData *DeviceDataPtr)
 227:../Generated_Code/SS0.c **** {
 224              		.loc 1 227 0
 225              		.cfi_startproc
 226 0000 80B5     		push	{r7, lr}
 227              	.LCFI3:
 228              		.cfi_def_cfa_offset 8
 229              		.cfi_offset 7, -8
 230              		.cfi_offset 14, -4
 231 0002 82B0     		sub	sp, sp, #8
 232              	.LCFI4:
 233              		.cfi_def_cfa_offset 16
 234 0004 00AF     		add	r7, sp, #0
 235              	.LCFI5:
 236              		.cfi_def_cfa_register 7
 237 0006 7860     		str	r0, [r7, #4]
 228:../Generated_Code/SS0.c ****   (void)DeviceDataPtr;                 /* Parameter is not used, suppress unused argument warning *
 229:../Generated_Code/SS0.c ****   /* SPI0_C1: SPIE=0,SPE=0,SPTIE=0,MSTR=0,CPOL=0,CPHA=1,SSOE=0,LSBFE=0 */
 230:../Generated_Code/SS0.c ****   SPI0_C1 = SPI_C1_CPHA_MASK;          /* Disable device */
 238              		.loc 1 230 0
 239 0008 084B     		ldr	r3, .L6
 240 000a 0422     		mov	r2, #4
 241 000c 1A70     		strb	r2, [r3]
 231:../Generated_Code/SS0.c ****   /* Restoring the interrupt vector */
 232:../Generated_Code/SS0.c ****   /* {Default RTOS Adapter} Restore interrupt vector: IVT is static, no code is generated */
 233:../Generated_Code/SS0.c ****   /* Unregistration of the device structure */
 234:../Generated_Code/SS0.c ****   PE_LDD_UnregisterDeviceStructure(PE_LDD_COMPONENT_SS0_ID);
 242              		.loc 1 234 0
 243 000e 084B     		ldr	r3, .L6+4
 244 0010 0022     		mov	r2, #0
 245 0012 5A60     		str	r2, [r3, #4]
 235:../Generated_Code/SS0.c ****   /* Deallocation of the device structure */
 236:../Generated_Code/SS0.c ****   /* {Default RTOS Adapter} Driver memory deallocation: Dynamic allocation is simulated, no dealloc
 237:../Generated_Code/SS0.c ****   /* SIM_SCGC4: SPI0=0 */
 238:../Generated_Code/SS0.c ****   SIM_SCGC4 &= (uint32_t)~(uint32_t)(SIM_SCGC4_SPI0_MASK);                                   
 246              		.loc 1 238 0
 247 0014 074A     		ldr	r2, .L6+8
 248 0016 0749     		ldr	r1, .L6+8
 249 0018 074B     		ldr	r3, .L6+12
 250 001a C958     		ldr	r1, [r1, r3]
 251 001c 074B     		ldr	r3, .L6+16
 252 001e 1940     		and	r1, r3
 253 0020 054B     		ldr	r3, .L6+12
 254 0022 D150     		str	r1, [r2, r3]
 239:../Generated_Code/SS0.c **** }
 255              		.loc 1 239 0
 256 0024 BD46     		mov	sp, r7
 257 0026 02B0     		add	sp, sp, #8
 258              		@ sp needed for prologue
 259 0028 80BD     		pop	{r7, pc}
 260              	.L7:
 261 002a C046     		.align	2
 262              	.L6:
 263 002c 00600740 		.word	1074225152
 264 0030 00000000 		.word	PE_LDD_DeviceDataList
 265 0034 00700440 		.word	1074032640
 266 0038 34100000 		.word	4148
 267 003c FFFFBFFF 		.word	-4194305
 268              		.cfi_endproc
 269              	.LFE1:
 271              		.section	.text.SS0_ReceiveBlock,"ax",%progbits
 272              		.align	2
 273              		.global	SS0_ReceiveBlock
 274              		.code	16
 275              		.thumb_func
 277              	SS0_ReceiveBlock:
 278              	.LFB2:
 240:../Generated_Code/SS0.c **** 
 241:../Generated_Code/SS0.c **** /*
 242:../Generated_Code/SS0.c **** ** ===================================================================
 243:../Generated_Code/SS0.c **** **     Method      :  SS0_ReceiveBlock (component SPISlave_LDD)
 244:../Generated_Code/SS0.c **** */
 245:../Generated_Code/SS0.c **** /*!
 246:../Generated_Code/SS0.c **** **     @brief
 247:../Generated_Code/SS0.c **** **         This method specifies the number of data to receive. The
 248:../Generated_Code/SS0.c **** **         method returns ERR_BUSY until the specified number of
 249:../Generated_Code/SS0.c **** **         characters is received. The method <CancelBlockReception>
 250:../Generated_Code/SS0.c **** **         can be used to cancel a running receive operation.
 251:../Generated_Code/SS0.c **** **     @param
 252:../Generated_Code/SS0.c **** **         DeviceDataPtr   - Device data structure
 253:../Generated_Code/SS0.c **** **                           pointer returned by <Init> method.
 254:../Generated_Code/SS0.c **** **     @param
 255:../Generated_Code/SS0.c **** **         BufferPtr       - Pointer to A buffer where
 256:../Generated_Code/SS0.c **** **                           received characters will be stored.
 257:../Generated_Code/SS0.c **** **     @param
 258:../Generated_Code/SS0.c **** **         Size            - Size of the block
 259:../Generated_Code/SS0.c **** **     @return
 260:../Generated_Code/SS0.c **** **                         - Error code, possible codes:
 261:../Generated_Code/SS0.c **** **                           ERR_OK - OK
 262:../Generated_Code/SS0.c **** **                           ERR_DISABLED - Component is disabled
 263:../Generated_Code/SS0.c **** **                           ERR_BUSY - The previous receive request is
 264:../Generated_Code/SS0.c **** **                           pending
 265:../Generated_Code/SS0.c **** */
 266:../Generated_Code/SS0.c **** /* ===================================================================*/
 267:../Generated_Code/SS0.c **** LDD_TError SS0_ReceiveBlock(LDD_TDeviceData *DeviceDataPtr, LDD_TData *BufferPtr, uint16_t Size)
 268:../Generated_Code/SS0.c **** {
 279              		.loc 1 268 0
 280              		.cfi_startproc
 281 0000 80B5     		push	{r7, lr}
 282              	.LCFI6:
 283              		.cfi_def_cfa_offset 8
 284              		.cfi_offset 7, -8
 285              		.cfi_offset 14, -4
 286 0002 84B0     		sub	sp, sp, #16
 287              	.LCFI7:
 288              		.cfi_def_cfa_offset 24
 289 0004 00AF     		add	r7, sp, #0
 290              	.LCFI8:
 291              		.cfi_def_cfa_register 7
 292 0006 F860     		str	r0, [r7, #12]
 293 0008 B960     		str	r1, [r7, #8]
 294 000a BB1D     		add	r3, r7, #6
 295 000c 1A80     		strh	r2, [r3]
 269:../Generated_Code/SS0.c ****   if (((SS0_TDeviceDataPtr)DeviceDataPtr)->InpDataNumReq != 0x00U) { /* Is the previous receive ope
 296              		.loc 1 269 0
 297 000e FB68     		ldr	r3, [r7, #12]
 298 0010 9B89     		ldrh	r3, [r3, #12]
 299 0012 002B     		cmp	r3, #0
 300 0014 01D0     		beq	.L9
 270:../Generated_Code/SS0.c ****     return ERR_BUSY;                   /* If yes then error */
 301              		.loc 1 270 0
 302 0016 0823     		mov	r3, #8
 303 0018 39E0     		b	.L10
 304              	.L9:
 271:../Generated_Code/SS0.c ****   }
 272:../Generated_Code/SS0.c ****   /* {Default RTOS Adapter} Critical section begin, general PE function is used */
 273:../Generated_Code/SS0.c ****   EnterCritical();
 305              		.loc 1 273 0
 306 001a 1F4B     		ldr	r3, .L14
 307 001c 1B78     		ldrb	r3, [r3]
 308 001e DBB2     		uxtb	r3, r3
 309 0020 0133     		add	r3, r3, #1
 310 0022 DBB2     		uxtb	r3, r3
 311 0024 1C4A     		ldr	r2, .L14
 312 0026 191C     		add	r1, r3, #0
 313 0028 1170     		strb	r1, [r2]
 314 002a 012B     		cmp	r3, #1
 315 002c 04D1     		bne	.L11
 316              		.loc 1 273 0 is_stmt 0
 317 002e 1B4B     		ldr	r3, .L14+4
 318              	@ 273 "../Generated_Code/SS0.c" 1
 319 0030 EFF31080 		MRS R0, PRIMASK
 320 0034 72B6     		CPSID i
 321 0036 1870     		STRB R0, [r3]
 322              	@ 0 "" 2
 323              		.code	16
 324              	.L11:
 274:../Generated_Code/SS0.c ****   ((SS0_TDeviceDataPtr)DeviceDataPtr)->InpDataPtr = (uint8_t*)BufferPtr; /* Store a pointer to the 
 325              		.loc 1 274 0 is_stmt 1
 326 0038 FB68     		ldr	r3, [r7, #12]
 327 003a BA68     		ldr	r2, [r7, #8]
 328 003c 9A60     		str	r2, [r3, #8]
 275:../Generated_Code/SS0.c ****   ((SS0_TDeviceDataPtr)DeviceDataPtr)->InpDataNumReq = Size; /* Store a number of characters to be 
 329              		.loc 1 275 0
 330 003e FB68     		ldr	r3, [r7, #12]
 331 0040 BA1D     		add	r2, r7, #6
 332 0042 1288     		ldrh	r2, [r2]
 333 0044 9A81     		strh	r2, [r3, #12]
 276:../Generated_Code/SS0.c ****   ((SS0_TDeviceDataPtr)DeviceDataPtr)->InpRecvDataNum = 0x00U; /* Set number of received characters
 334              		.loc 1 276 0
 335 0046 FB68     		ldr	r3, [r7, #12]
 336 0048 0022     		mov	r2, #0
 337 004a 9A80     		strh	r2, [r3, #4]
 277:../Generated_Code/SS0.c ****   if ((SPI_PDD_ReadStatusReg(SPI0_BASE_PTR) & SPI_PDD_RX_BUFFER_FULL) != 0U) {
 338              		.loc 1 277 0
 339 004c 144B     		ldr	r3, .L14+8
 340 004e DB78     		ldrb	r3, [r3, #3]
 341 0050 DBB2     		uxtb	r3, r3
 342 0052 DBB2     		uxtb	r3, r3
 343 0054 5BB2     		sxtb	r3, r3
 344 0056 002B     		cmp	r3, #0
 345 0058 01DA     		bge	.L12
 278:../Generated_Code/SS0.c ****     (void)SPI_PDD_ReadData8bit(SPI0_BASE_PTR); /* Dummy read of the data register */
 346              		.loc 1 278 0
 347 005a 114B     		ldr	r3, .L14+8
 348 005c 5B79     		ldrb	r3, [r3, #5]
 349              	.L12:
 279:../Generated_Code/SS0.c ****   }
 280:../Generated_Code/SS0.c ****   SPI_PDD_EnableInterruptMask(SPI0_BASE_PTR, SPI_PDD_RX_BUFFER_FULL_OR_FAULT); /* Enable Rx buffer 
 350              		.loc 1 280 0
 351 005e 104B     		ldr	r3, .L14+8
 352 0060 0F4A     		ldr	r2, .L14+8
 353 0062 1278     		ldrb	r2, [r2]
 354 0064 D2B2     		uxtb	r2, r2
 355 0066 8021     		mov	r1, #128
 356 0068 4942     		neg	r1, r1
 357 006a 0A43     		orr	r2, r1
 358 006c D2B2     		uxtb	r2, r2
 359 006e 1A70     		strb	r2, [r3]
 281:../Generated_Code/SS0.c ****   /* {Default RTOS Adapter} Critical section end, general PE function is used */
 282:../Generated_Code/SS0.c ****   ExitCritical();
 360              		.loc 1 282 0
 361 0070 094B     		ldr	r3, .L14
 362 0072 1B78     		ldrb	r3, [r3]
 363 0074 DBB2     		uxtb	r3, r3
 364 0076 013B     		sub	r3, r3, #1
 365 0078 DBB2     		uxtb	r3, r3
 366 007a 074A     		ldr	r2, .L14
 367 007c 191C     		add	r1, r3, #0
 368 007e 1170     		strb	r1, [r2]
 369 0080 002B     		cmp	r3, #0
 370 0082 03D1     		bne	.L13
 371              		.loc 1 282 0 is_stmt 0
 372 0084 054B     		ldr	r3, .L14+4
 373              	@ 282 "../Generated_Code/SS0.c" 1
 374 0086 1878     		ldrb r0, [r3]
 375 0088 80F31088 		msr PRIMASK,r0;
 376              		
 377              	@ 0 "" 2
 378              		.code	16
 379              	.L13:
 283:../Generated_Code/SS0.c ****   return ERR_OK;                       /* OK */
 380              		.loc 1 283 0 is_stmt 1
 381 008c 0023     		mov	r3, #0
 382              	.L10:
 284:../Generated_Code/SS0.c **** }
 383              		.loc 1 284 0
 384 008e 181C     		mov	r0, r3
 385 0090 BD46     		mov	sp, r7
 386 0092 04B0     		add	sp, sp, #16
 387              		@ sp needed for prologue
 388 0094 80BD     		pop	{r7, pc}
 389              	.L15:
 390 0096 C046     		.align	2
 391              	.L14:
 392 0098 00000000 		.word	SR_lock
 393 009c 00000000 		.word	SR_reg
 394 00a0 00600740 		.word	1074225152
 395              		.cfi_endproc
 396              	.LFE2:
 398              		.section	.text.SS0_SendBlock,"ax",%progbits
 399              		.align	2
 400              		.global	SS0_SendBlock
 401              		.code	16
 402              		.thumb_func
 404              	SS0_SendBlock:
 405              	.LFB3:
 285:../Generated_Code/SS0.c **** 
 286:../Generated_Code/SS0.c **** /*
 287:../Generated_Code/SS0.c **** ** ===================================================================
 288:../Generated_Code/SS0.c **** **     Method      :  SS0_SendBlock (component SPISlave_LDD)
 289:../Generated_Code/SS0.c **** */
 290:../Generated_Code/SS0.c **** /*!
 291:../Generated_Code/SS0.c **** **     @brief
 292:../Generated_Code/SS0.c **** **         This method sends a block of characters. The method returns
 293:../Generated_Code/SS0.c **** **         ERR_BUSY when the previous block transmission is not
 294:../Generated_Code/SS0.c **** **         completed. The method <CancelBlockTransmission> can be used
 295:../Generated_Code/SS0.c **** **         to cancel a transmit operation.
 296:../Generated_Code/SS0.c **** **     @param
 297:../Generated_Code/SS0.c **** **         DeviceDataPtr   - Device data structure
 298:../Generated_Code/SS0.c **** **                           pointer returned by <Init> method.
 299:../Generated_Code/SS0.c **** **     @param
 300:../Generated_Code/SS0.c **** **         BufferPtr       - Pointer to the block of data
 301:../Generated_Code/SS0.c **** **                           to send.
 302:../Generated_Code/SS0.c **** **     @param
 303:../Generated_Code/SS0.c **** **         Size            - Number of characters in the buffer.
 304:../Generated_Code/SS0.c **** **     @return
 305:../Generated_Code/SS0.c **** **                         - Error code, possible codes:
 306:../Generated_Code/SS0.c **** **                           ERR_OK - OK
 307:../Generated_Code/SS0.c **** **                           ERR_DISABLED - Component is disabled
 308:../Generated_Code/SS0.c **** **                           ERR_BUSY - The previous transmit request is
 309:../Generated_Code/SS0.c **** **                           pending
 310:../Generated_Code/SS0.c **** */
 311:../Generated_Code/SS0.c **** /* ===================================================================*/
 312:../Generated_Code/SS0.c **** LDD_TError SS0_SendBlock(LDD_TDeviceData *DeviceDataPtr, LDD_TData *BufferPtr, uint16_t Size)
 313:../Generated_Code/SS0.c **** {
 406              		.loc 1 313 0
 407              		.cfi_startproc
 408 0000 80B5     		push	{r7, lr}
 409              	.LCFI9:
 410              		.cfi_def_cfa_offset 8
 411              		.cfi_offset 7, -8
 412              		.cfi_offset 14, -4
 413 0002 84B0     		sub	sp, sp, #16
 414              	.LCFI10:
 415              		.cfi_def_cfa_offset 24
 416 0004 00AF     		add	r7, sp, #0
 417              	.LCFI11:
 418              		.cfi_def_cfa_register 7
 419 0006 F860     		str	r0, [r7, #12]
 420 0008 B960     		str	r1, [r7, #8]
 421 000a BB1D     		add	r3, r7, #6
 422 000c 1A80     		strh	r2, [r3]
 314:../Generated_Code/SS0.c ****   if (((SS0_TDeviceDataPtr)DeviceDataPtr)->OutDataNumReq != 0x00U) { /* Is the previous transmit op
 423              		.loc 1 314 0
 424 000e FB68     		ldr	r3, [r7, #12]
 425 0010 9B8A     		ldrh	r3, [r3, #20]
 426 0012 002B     		cmp	r3, #0
 427 0014 01D0     		beq	.L17
 315:../Generated_Code/SS0.c ****     return ERR_BUSY;                   /* If yes then error */
 428              		.loc 1 315 0
 429 0016 0823     		mov	r3, #8
 430 0018 2FE0     		b	.L18
 431              	.L17:
 316:../Generated_Code/SS0.c ****   }
 317:../Generated_Code/SS0.c ****   /* {Default RTOS Adapter} Critical section begin, general PE function is used */
 318:../Generated_Code/SS0.c ****   EnterCritical();
 432              		.loc 1 318 0
 433 001a 1A4B     		ldr	r3, .L21
 434 001c 1B78     		ldrb	r3, [r3]
 435 001e DBB2     		uxtb	r3, r3
 436 0020 0133     		add	r3, r3, #1
 437 0022 DBB2     		uxtb	r3, r3
 438 0024 174A     		ldr	r2, .L21
 439 0026 191C     		add	r1, r3, #0
 440 0028 1170     		strb	r1, [r2]
 441 002a 012B     		cmp	r3, #1
 442 002c 04D1     		bne	.L19
 443              		.loc 1 318 0 is_stmt 0
 444 002e 164B     		ldr	r3, .L21+4
 445              	@ 318 "../Generated_Code/SS0.c" 1
 446 0030 EFF31080 		MRS R0, PRIMASK
 447 0034 72B6     		CPSID i
 448 0036 1870     		STRB R0, [r3]
 449              	@ 0 "" 2
 450              		.code	16
 451              	.L19:
 319:../Generated_Code/SS0.c ****   ((SS0_TDeviceDataPtr)DeviceDataPtr)->OutDataPtr = (uint8_t*)BufferPtr; /* Set a pointer to the ou
 452              		.loc 1 319 0 is_stmt 1
 453 0038 FB68     		ldr	r3, [r7, #12]
 454 003a BA68     		ldr	r2, [r7, #8]
 455 003c 1A61     		str	r2, [r3, #16]
 320:../Generated_Code/SS0.c ****   ((SS0_TDeviceDataPtr)DeviceDataPtr)->OutDataNumReq = Size; /* Set the counter of characters to be
 456              		.loc 1 320 0
 457 003e FB68     		ldr	r3, [r7, #12]
 458 0040 BA1D     		add	r2, r7, #6
 459 0042 1288     		ldrh	r2, [r2]
 460 0044 9A82     		strh	r2, [r3, #20]
 321:../Generated_Code/SS0.c ****   ((SS0_TDeviceDataPtr)DeviceDataPtr)->OutSentDataNum = 0x00U; /* Clear the counter of sent charact
 461              		.loc 1 321 0
 462 0046 FB68     		ldr	r3, [r7, #12]
 463 0048 0022     		mov	r2, #0
 464 004a DA81     		strh	r2, [r3, #14]
 322:../Generated_Code/SS0.c ****   SPI_PDD_EnableInterruptMask(SPI0_BASE_PTR, SPI_PDD_TX_BUFFER_EMPTY); /* Enable Tx buffer empty in
 465              		.loc 1 322 0
 466 004c 0F4B     		ldr	r3, .L21+8
 467 004e 0F4A     		ldr	r2, .L21+8
 468 0050 1278     		ldrb	r2, [r2]
 469 0052 D2B2     		uxtb	r2, r2
 470 0054 2021     		mov	r1, #32
 471 0056 0A43     		orr	r2, r1
 472 0058 D2B2     		uxtb	r2, r2
 473 005a 1A70     		strb	r2, [r3]
 323:../Generated_Code/SS0.c ****   /* {Default RTOS Adapter} Critical section end, general PE function is used */
 324:../Generated_Code/SS0.c ****   ExitCritical();
 474              		.loc 1 324 0
 475 005c 094B     		ldr	r3, .L21
 476 005e 1B78     		ldrb	r3, [r3]
 477 0060 DBB2     		uxtb	r3, r3
 478 0062 013B     		sub	r3, r3, #1
 479 0064 DBB2     		uxtb	r3, r3
 480 0066 074A     		ldr	r2, .L21
 481 0068 191C     		add	r1, r3, #0
 482 006a 1170     		strb	r1, [r2]
 483 006c 002B     		cmp	r3, #0
 484 006e 03D1     		bne	.L20
 485              		.loc 1 324 0 is_stmt 0
 486 0070 054B     		ldr	r3, .L21+4
 487              	@ 324 "../Generated_Code/SS0.c" 1
 488 0072 1878     		ldrb r0, [r3]
 489 0074 80F31088 		msr PRIMASK,r0;
 490              		
 491              	@ 0 "" 2
 492              		.code	16
 493              	.L20:
 325:../Generated_Code/SS0.c ****   return ERR_OK;                       /* OK */
 494              		.loc 1 325 0 is_stmt 1
 495 0078 0023     		mov	r3, #0
 496              	.L18:
 326:../Generated_Code/SS0.c **** }
 497              		.loc 1 326 0
 498 007a 181C     		mov	r0, r3
 499 007c BD46     		mov	sp, r7
 500 007e 04B0     		add	sp, sp, #16
 501              		@ sp needed for prologue
 502 0080 80BD     		pop	{r7, pc}
 503              	.L22:
 504 0082 C046     		.align	2
 505              	.L21:
 506 0084 00000000 		.word	SR_lock
 507 0088 00000000 		.word	SR_reg
 508 008c 00600740 		.word	1074225152
 509              		.cfi_endproc
 510              	.LFE3:
 512              		.section	.text.SS0_GetReceivedDataNum,"ax",%progbits
 513              		.align	2
 514              		.global	SS0_GetReceivedDataNum
 515              		.code	16
 516              		.thumb_func
 518              	SS0_GetReceivedDataNum:
 519              	.LFB4:
 327:../Generated_Code/SS0.c **** 
 328:../Generated_Code/SS0.c **** /*
 329:../Generated_Code/SS0.c **** ** ===================================================================
 330:../Generated_Code/SS0.c **** **     Method      :  SS0_GetReceivedDataNum (component SPISlave_LDD)
 331:../Generated_Code/SS0.c **** */
 332:../Generated_Code/SS0.c **** /*!
 333:../Generated_Code/SS0.c **** **     @brief
 334:../Generated_Code/SS0.c **** **         Returns the number of received characters in the receive
 335:../Generated_Code/SS0.c **** **         buffer. This method is available only if the ReceiveBlock
 336:../Generated_Code/SS0.c **** **         method is enabled.
 337:../Generated_Code/SS0.c **** **     @param
 338:../Generated_Code/SS0.c **** **         DeviceDataPtr   - Device data structure
 339:../Generated_Code/SS0.c **** **                           pointer returned by <Init> method.
 340:../Generated_Code/SS0.c **** **     @return
 341:../Generated_Code/SS0.c **** **                         - The number of characters in the input
 342:../Generated_Code/SS0.c **** **                           buffer.
 343:../Generated_Code/SS0.c **** */
 344:../Generated_Code/SS0.c **** /* ===================================================================*/
 345:../Generated_Code/SS0.c **** uint16_t SS0_GetReceivedDataNum(LDD_TDeviceData *DeviceDataPtr)
 346:../Generated_Code/SS0.c **** {
 520              		.loc 1 346 0
 521              		.cfi_startproc
 522 0000 80B5     		push	{r7, lr}
 523              	.LCFI12:
 524              		.cfi_def_cfa_offset 8
 525              		.cfi_offset 7, -8
 526              		.cfi_offset 14, -4
 527 0002 82B0     		sub	sp, sp, #8
 528              	.LCFI13:
 529              		.cfi_def_cfa_offset 16
 530 0004 00AF     		add	r7, sp, #0
 531              	.LCFI14:
 532              		.cfi_def_cfa_register 7
 533 0006 7860     		str	r0, [r7, #4]
 347:../Generated_Code/SS0.c ****   return (((SS0_TDeviceDataPtr)DeviceDataPtr)->InpRecvDataNum); /* Return the number of received ch
 534              		.loc 1 347 0
 535 0008 7B68     		ldr	r3, [r7, #4]
 536 000a 9B88     		ldrh	r3, [r3, #4]
 348:../Generated_Code/SS0.c **** }
 537              		.loc 1 348 0
 538 000c 181C     		mov	r0, r3
 539 000e BD46     		mov	sp, r7
 540 0010 02B0     		add	sp, sp, #8
 541              		@ sp needed for prologue
 542 0012 80BD     		pop	{r7, pc}
 543              		.cfi_endproc
 544              	.LFE4:
 546              		.section	.text.SS0_GetSentDataNum,"ax",%progbits
 547              		.align	2
 548              		.global	SS0_GetSentDataNum
 549              		.code	16
 550              		.thumb_func
 552              	SS0_GetSentDataNum:
 553              	.LFB5:
 349:../Generated_Code/SS0.c **** 
 350:../Generated_Code/SS0.c **** /*
 351:../Generated_Code/SS0.c **** ** ===================================================================
 352:../Generated_Code/SS0.c **** **     Method      :  SS0_GetSentDataNum (component SPISlave_LDD)
 353:../Generated_Code/SS0.c **** */
 354:../Generated_Code/SS0.c **** /*!
 355:../Generated_Code/SS0.c **** **     @brief
 356:../Generated_Code/SS0.c **** **         Returns the number of sent characters. This method is
 357:../Generated_Code/SS0.c **** **         available only if method SendBlock is enabled.
 358:../Generated_Code/SS0.c **** **     @param
 359:../Generated_Code/SS0.c **** **         DeviceDataPtr   - Device data structure
 360:../Generated_Code/SS0.c **** **                           pointer returned by <Init> method.
 361:../Generated_Code/SS0.c **** **     @return
 362:../Generated_Code/SS0.c **** **                         - The number of characters in the output
 363:../Generated_Code/SS0.c **** **                           buffer.
 364:../Generated_Code/SS0.c **** */
 365:../Generated_Code/SS0.c **** /* ===================================================================*/
 366:../Generated_Code/SS0.c **** uint16_t SS0_GetSentDataNum(LDD_TDeviceData *DeviceDataPtr)
 367:../Generated_Code/SS0.c **** {
 554              		.loc 1 367 0
 555              		.cfi_startproc
 556 0000 80B5     		push	{r7, lr}
 557              	.LCFI15:
 558              		.cfi_def_cfa_offset 8
 559              		.cfi_offset 7, -8
 560              		.cfi_offset 14, -4
 561 0002 82B0     		sub	sp, sp, #8
 562              	.LCFI16:
 563              		.cfi_def_cfa_offset 16
 564 0004 00AF     		add	r7, sp, #0
 565              	.LCFI17:
 566              		.cfi_def_cfa_register 7
 567 0006 7860     		str	r0, [r7, #4]
 368:../Generated_Code/SS0.c ****   return (((SS0_TDeviceDataPtr)DeviceDataPtr)->OutSentDataNum); /* Return the number of sent charac
 568              		.loc 1 368 0
 569 0008 7B68     		ldr	r3, [r7, #4]
 570 000a DB89     		ldrh	r3, [r3, #14]
 369:../Generated_Code/SS0.c **** }
 571              		.loc 1 369 0
 572 000c 181C     		mov	r0, r3
 573 000e BD46     		mov	sp, r7
 574 0010 02B0     		add	sp, sp, #8
 575              		@ sp needed for prologue
 576 0012 80BD     		pop	{r7, pc}
 577              		.cfi_endproc
 578              	.LFE5:
 580              		.section	.text.SS0_Interrupt,"ax",%progbits
 581              		.align	2
 582              		.global	SS0_Interrupt
 583              		.code	16
 584              		.thumb_func
 586              	SS0_Interrupt:
 587              	.LFB6:
 370:../Generated_Code/SS0.c **** 
 371:../Generated_Code/SS0.c **** /*
 372:../Generated_Code/SS0.c **** ** ===================================================================
 373:../Generated_Code/SS0.c **** **     Method      :  SS0_Interrupt (component SPISlave_LDD)
 374:../Generated_Code/SS0.c **** **
 375:../Generated_Code/SS0.c **** **     Description :
 376:../Generated_Code/SS0.c **** **         The ISR function handling the device receive/transmit 
 377:../Generated_Code/SS0.c **** **         interrupt.
 378:../Generated_Code/SS0.c **** **         This method is internal. It is used by Processor Expert only.
 379:../Generated_Code/SS0.c **** ** ===================================================================
 380:../Generated_Code/SS0.c **** */
 381:../Generated_Code/SS0.c **** PE_ISR(SS0_Interrupt)
 382:../Generated_Code/SS0.c **** {
 588              		.loc 1 382 0
 589              		.cfi_startproc
 590 0000 80B5     		push	{r7, lr}
 591              	.LCFI18:
 592              		.cfi_def_cfa_offset 8
 593              		.cfi_offset 7, -8
 594              		.cfi_offset 14, -4
 595 0002 82B0     		sub	sp, sp, #8
 596              	.LCFI19:
 597              		.cfi_def_cfa_offset 16
 598 0004 00AF     		add	r7, sp, #0
 599              	.LCFI20:
 600              		.cfi_def_cfa_register 7
 383:../Generated_Code/SS0.c ****   /* {Default RTOS Adapter} ISR parameter is passed through the global variable */
 384:../Generated_Code/SS0.c ****   SS0_TDeviceDataPtr DeviceDataPrv = INT_SPI0__DEFAULT_RTOS_ISRPARAM;
 601              		.loc 1 384 0
 602 0006 344B     		ldr	r3, .L31
 603 0008 1B68     		ldr	r3, [r3]
 604 000a 7B60     		str	r3, [r7, #4]
 385:../Generated_Code/SS0.c ****   uint8_t StatReg = SPI_PDD_ReadStatusReg(SPI0_BASE_PTR); /* Read status register */
 605              		.loc 1 385 0
 606 000c 334A     		ldr	r2, .L31+4
 607 000e FB1C     		add	r3, r7, #3
 608 0010 D278     		ldrb	r2, [r2, #3]
 609 0012 1A70     		strb	r2, [r3]
 386:../Generated_Code/SS0.c **** 
 387:../Generated_Code/SS0.c ****   (void)DeviceDataPrv;                 /* Supress unused variable warning if needed */
 388:../Generated_Code/SS0.c ****   if ((StatReg & SPI_PDD_RX_BUFFER_FULL) != 0U) { /* Is any char in HW Rx buffer? */
 610              		.loc 1 388 0
 611 0014 FB1C     		add	r3, r7, #3
 612 0016 1B78     		ldrb	r3, [r3]
 613 0018 5BB2     		sxtb	r3, r3
 614 001a 002B     		cmp	r3, #0
 615 001c 28DA     		bge	.L28
 389:../Generated_Code/SS0.c ****     if (DeviceDataPrv->InpDataNumReq != 0x00U) { /* Is the receive block operation pending? */
 616              		.loc 1 389 0
 617 001e 7B68     		ldr	r3, [r7, #4]
 618 0020 9B89     		ldrh	r3, [r3, #12]
 619 0022 002B     		cmp	r3, #0
 620 0024 24D0     		beq	.L28
 390:../Generated_Code/SS0.c ****       *(DeviceDataPrv->InpDataPtr++) = SPI_PDD_ReadData8bit(SPI0_BASE_PTR); /* Put a character to t
 621              		.loc 1 390 0
 622 0026 7B68     		ldr	r3, [r7, #4]
 623 0028 9B68     		ldr	r3, [r3, #8]
 624 002a 2C4A     		ldr	r2, .L31+4
 625 002c 5279     		ldrb	r2, [r2, #5]
 626 002e D2B2     		uxtb	r2, r2
 627 0030 1A70     		strb	r2, [r3]
 628 0032 5A1C     		add	r2, r3, #1
 629 0034 7B68     		ldr	r3, [r7, #4]
 630 0036 9A60     		str	r2, [r3, #8]
 391:../Generated_Code/SS0.c ****       DeviceDataPrv->InpRecvDataNum++; /* Increment received char. counter */
 631              		.loc 1 391 0
 632 0038 7B68     		ldr	r3, [r7, #4]
 633 003a 9B88     		ldrh	r3, [r3, #4]
 634 003c 0133     		add	r3, r3, #1
 635 003e 9AB2     		uxth	r2, r3
 636 0040 7B68     		ldr	r3, [r7, #4]
 637 0042 9A80     		strh	r2, [r3, #4]
 392:../Generated_Code/SS0.c ****       if (DeviceDataPrv->InpRecvDataNum == DeviceDataPrv->InpDataNumReq) { /* Is the requested numb
 638              		.loc 1 392 0
 639 0044 7B68     		ldr	r3, [r7, #4]
 640 0046 9A88     		ldrh	r2, [r3, #4]
 641 0048 7B68     		ldr	r3, [r7, #4]
 642 004a 9B89     		ldrh	r3, [r3, #12]
 643 004c 9A42     		cmp	r2, r3
 644 004e 0FD1     		bne	.L28
 393:../Generated_Code/SS0.c ****         SPI_PDD_DisableInterruptMask(SPI0_BASE_PTR, SPI_PDD_RX_BUFFER_FULL_OR_FAULT); /* Disable Rx
 645              		.loc 1 393 0
 646 0050 224B     		ldr	r3, .L31+4
 647 0052 224A     		ldr	r2, .L31+4
 648 0054 1278     		ldrb	r2, [r2]
 649 0056 D1B2     		uxtb	r1, r2
 650 0058 7F22     		mov	r2, #127
 651 005a 0A40     		and	r2, r1
 652 005c D2B2     		uxtb	r2, r2
 653 005e 1A70     		strb	r2, [r3]
 394:../Generated_Code/SS0.c ****         DeviceDataPrv->InpDataNumReq = 0x00U; /* If yes then clear number of requested characters t
 654              		.loc 1 394 0
 655 0060 7B68     		ldr	r3, [r7, #4]
 656 0062 0022     		mov	r2, #0
 657 0064 9A81     		strh	r2, [r3, #12]
 395:../Generated_Code/SS0.c ****         SS0_OnBlockReceived(DeviceDataPrv->UserData);
 658              		.loc 1 395 0
 659 0066 7B68     		ldr	r3, [r7, #4]
 660 0068 9B69     		ldr	r3, [r3, #24]
 661 006a 181C     		mov	r0, r3
 662 006c FFF7FEFF 		bl	SS0_OnBlockReceived
 663              	.L28:
 396:../Generated_Code/SS0.c ****       }
 397:../Generated_Code/SS0.c ****     }
 398:../Generated_Code/SS0.c ****   }
 399:../Generated_Code/SS0.c ****   if ((StatReg & SPI_PDD_TX_BUFFER_EMPTYG) != 0U) { /* Is HW Tx buffer empty? */
 664              		.loc 1 399 0
 665 0070 FB1C     		add	r3, r7, #3
 666 0072 1A78     		ldrb	r2, [r3]
 667 0074 2023     		mov	r3, #32
 668 0076 1340     		and	r3, r2
 669 0078 2AD0     		beq	.L27
 400:../Generated_Code/SS0.c ****     if (DeviceDataPrv->OutSentDataNum < DeviceDataPrv->OutDataNumReq) { /* Is number of sent charac
 670              		.loc 1 400 0
 671 007a 7B68     		ldr	r3, [r7, #4]
 672 007c DA89     		ldrh	r2, [r3, #14]
 673 007e 7B68     		ldr	r3, [r7, #4]
 674 0080 9B8A     		ldrh	r3, [r3, #20]
 675 0082 9A42     		cmp	r2, r3
 676 0084 1CD2     		bcs	.L30
 401:../Generated_Code/SS0.c ****       SPI_PDD_WriteData8Bit(SPI0_BASE_PTR, (*((uint8_t *)DeviceDataPrv->OutDataPtr++))); /* Put a c
 677              		.loc 1 401 0
 678 0086 154A     		ldr	r2, .L31+4
 679 0088 7B68     		ldr	r3, [r7, #4]
 680 008a 1B69     		ldr	r3, [r3, #16]
 681 008c 1978     		ldrb	r1, [r3]
 682 008e 5171     		strb	r1, [r2, #5]
 683 0090 5A1C     		add	r2, r3, #1
 684 0092 7B68     		ldr	r3, [r7, #4]
 685 0094 1A61     		str	r2, [r3, #16]
 402:../Generated_Code/SS0.c ****       DeviceDataPrv->OutSentDataNum++; /* Increment the counter of sent characters. */
 686              		.loc 1 402 0
 687 0096 7B68     		ldr	r3, [r7, #4]
 688 0098 DB89     		ldrh	r3, [r3, #14]
 689 009a 0133     		add	r3, r3, #1
 690 009c 9AB2     		uxth	r2, r3
 691 009e 7B68     		ldr	r3, [r7, #4]
 692 00a0 DA81     		strh	r2, [r3, #14]
 403:../Generated_Code/SS0.c ****       if (DeviceDataPrv->OutSentDataNum == DeviceDataPrv->OutDataNumReq) {
 693              		.loc 1 403 0
 694 00a2 7B68     		ldr	r3, [r7, #4]
 695 00a4 DA89     		ldrh	r2, [r3, #14]
 696 00a6 7B68     		ldr	r3, [r7, #4]
 697 00a8 9B8A     		ldrh	r3, [r3, #20]
 698 00aa 9A42     		cmp	r2, r3
 699 00ac 10D1     		bne	.L27
 404:../Generated_Code/SS0.c ****         DeviceDataPrv->OutDataNumReq = 0x00U; /* Clear the counter of characters to be send by Send
 700              		.loc 1 404 0
 701 00ae 7B68     		ldr	r3, [r7, #4]
 702 00b0 0022     		mov	r2, #0
 703 00b2 9A82     		strh	r2, [r3, #20]
 405:../Generated_Code/SS0.c ****         SS0_OnBlockSent(DeviceDataPrv->UserData);
 704              		.loc 1 405 0
 705 00b4 7B68     		ldr	r3, [r7, #4]
 706 00b6 9B69     		ldr	r3, [r3, #24]
 707 00b8 181C     		mov	r0, r3
 708 00ba FFF7FEFF 		bl	SS0_OnBlockSent
 709 00be 07E0     		b	.L27
 710              	.L30:
 406:../Generated_Code/SS0.c ****       }
 407:../Generated_Code/SS0.c ****     } else {
 408:../Generated_Code/SS0.c ****       SPI_PDD_DisableInterruptMask(SPI0_BASE_PTR, SPI_PDD_TX_BUFFER_EMPTY); /* Disable TX interrupt
 711              		.loc 1 408 0
 712 00c0 064B     		ldr	r3, .L31+4
 713 00c2 064A     		ldr	r2, .L31+4
 714 00c4 1278     		ldrb	r2, [r2]
 715 00c6 D2B2     		uxtb	r2, r2
 716 00c8 2021     		mov	r1, #32
 717 00ca 8A43     		bic	r2, r1
 718 00cc D2B2     		uxtb	r2, r2
 719 00ce 1A70     		strb	r2, [r3]
 720              	.L27:
 409:../Generated_Code/SS0.c ****     }
 410:../Generated_Code/SS0.c ****   }
 411:../Generated_Code/SS0.c **** }
 721              		.loc 1 411 0
 722 00d0 BD46     		mov	sp, r7
 723 00d2 02B0     		add	sp, sp, #8
 724              		@ sp needed for prologue
 725 00d4 80BD     		pop	{r7, pc}
 726              	.L32:
 727 00d6 C046     		.align	2
 728              	.L31:
 729 00d8 00000000 		.word	INT_SPI0__DEFAULT_RTOS_ISRPARAM
 730 00dc 00600740 		.word	1074225152
 731              		.cfi_endproc
 732              	.LFE6:
 734              		.text
 735              	.Letext0:
 736              		.file 2 "E:/Freescale/CW MCU v10.5/MCU/ARM_GCC_Support/ewl/EWL_C/include/cstdint"
 737              		.file 3 "D:/kuaipan/SEMG/MEMS_KL25_PIN32/spi_demo_slave/Generated_Code/PE_Types.h"
 738              		.file 4 "D:/kuaipan/SEMG/MEMS_KL25_PIN32/spi_demo_slave/Generated_Code/IO_Map.h"
 739              		.file 5 "D:/kuaipan/SEMG/MEMS_KL25_PIN32/spi_demo_slave/Generated_Code/Cpu.h"