   1              		.cpu cortex-m0
   2              		.fpu softvfp
   3              		.eabi_attribute 20, 1
   4              		.eabi_attribute 21, 1
   5              		.eabi_attribute 23, 3
   6              		.eabi_attribute 24, 1
   7              		.eabi_attribute 25, 1
   8              		.eabi_attribute 26, 1
   9              		.eabi_attribute 30, 6
  10              		.eabi_attribute 34, 0
  11              		.eabi_attribute 18, 4
  12              		.code	16
  13              		.file	"Red_LED.c"
  14              		.text
  15              	.Ltext0:
  16              		.cfi_sections	.debug_frame
  17              		.section	.bss.DeviceDataPrv__DEFAULT_RTOS_ALLOC,"aw",%nobits
  18              		.align	2
  21              	DeviceDataPrv__DEFAULT_RTOS_ALLOC:
  22 0000 00000000 		.space	4
  23              		.section	.text.Red_LED_Init,"ax",%progbits
  24              		.align	2
  25              		.global	Red_LED_Init
  26              		.code	16
  27              		.thumb_func
  29              	Red_LED_Init:
  30              	.LFB0:
  31              		.file 1 "../Generated_Code/Red_LED.c"
   1:../Generated_Code/Red_LED.c **** /* ###################################################################
   2:../Generated_Code/Red_LED.c **** **     THIS COMPONENT MODULE IS GENERATED BY THE TOOL. DO NOT MODIFY IT.
   3:../Generated_Code/Red_LED.c **** **     Filename    : Red_LED.c
   4:../Generated_Code/Red_LED.c **** **     Project     : ProcessorExpert
   5:../Generated_Code/Red_LED.c **** **     Processor   : MKL25Z128VLK4
   6:../Generated_Code/Red_LED.c **** **     Component   : BitIO_LDD
   7:../Generated_Code/Red_LED.c **** **     Version     : Component 01.033, Driver 01.03, CPU db: 3.00.000
   8:../Generated_Code/Red_LED.c **** **     Compiler    : GNU C Compiler
   9:../Generated_Code/Red_LED.c **** **     Date/Time   : 2015-10-12, 14:23, # CodeGen: 6
  10:../Generated_Code/Red_LED.c **** **     Abstract    :
  11:../Generated_Code/Red_LED.c **** **         The HAL BitIO component provides a low level API for unified
  12:../Generated_Code/Red_LED.c **** **         access to general purpose digital input/output pins across
  13:../Generated_Code/Red_LED.c **** **         various device designs.
  14:../Generated_Code/Red_LED.c **** **
  15:../Generated_Code/Red_LED.c **** **         RTOS drivers using HAL BitIO API are simpler and more
  16:../Generated_Code/Red_LED.c **** **         portable to various microprocessors.
  17:../Generated_Code/Red_LED.c **** **     Settings    :
  18:../Generated_Code/Red_LED.c **** **          Component name                                 : Red_LED
  19:../Generated_Code/Red_LED.c **** **          Pin for I/O                                    : TSI0_CH11/PTB18/TPM2_CH0
  20:../Generated_Code/Red_LED.c **** **          Pin signal                                     : 
  21:../Generated_Code/Red_LED.c **** **          Direction                                      : Output
  22:../Generated_Code/Red_LED.c **** **          Initialization                                 : 
  23:../Generated_Code/Red_LED.c **** **            Init. direction                              : Output
  24:../Generated_Code/Red_LED.c **** **            Init. value                                  : 1
  25:../Generated_Code/Red_LED.c **** **            Auto initialization                          : yes
  26:../Generated_Code/Red_LED.c **** **          Safe mode                                      : no
  27:../Generated_Code/Red_LED.c **** **     Contents    :
  28:../Generated_Code/Red_LED.c **** **         Init   - LDD_TDeviceData* Red_LED_Init(LDD_TUserData *UserDataPtr);
  29:../Generated_Code/Red_LED.c **** **         Deinit - void Red_LED_Deinit(LDD_TDeviceData *DeviceDataPtr);
  30:../Generated_Code/Red_LED.c **** **         PutVal - void Red_LED_PutVal(LDD_TDeviceData *DeviceDataPtr, bool Val);
  31:../Generated_Code/Red_LED.c **** **         ClrVal - void Red_LED_ClrVal(LDD_TDeviceData *DeviceDataPtr);
  32:../Generated_Code/Red_LED.c **** **         SetVal - void Red_LED_SetVal(LDD_TDeviceData *DeviceDataPtr);
  33:../Generated_Code/Red_LED.c **** **         NegVal - void Red_LED_NegVal(LDD_TDeviceData *DeviceDataPtr);
  34:../Generated_Code/Red_LED.c **** **
  35:../Generated_Code/Red_LED.c **** **     Copyright : 1997 - 2013 Freescale Semiconductor, Inc. All Rights Reserved.
  36:../Generated_Code/Red_LED.c **** **     SOURCE DISTRIBUTION PERMISSIBLE as directed in End User License Agreement.
  37:../Generated_Code/Red_LED.c **** **     
  38:../Generated_Code/Red_LED.c **** **     http      : www.freescale.com
  39:../Generated_Code/Red_LED.c **** **     mail      : support@freescale.com
  40:../Generated_Code/Red_LED.c **** ** ###################################################################*/
  41:../Generated_Code/Red_LED.c **** /*!
  42:../Generated_Code/Red_LED.c **** ** @file Red_LED.c
  43:../Generated_Code/Red_LED.c **** ** @version 01.03
  44:../Generated_Code/Red_LED.c **** ** @brief
  45:../Generated_Code/Red_LED.c **** **         The HAL BitIO component provides a low level API for unified
  46:../Generated_Code/Red_LED.c **** **         access to general purpose digital input/output pins across
  47:../Generated_Code/Red_LED.c **** **         various device designs.
  48:../Generated_Code/Red_LED.c **** **
  49:../Generated_Code/Red_LED.c **** **         RTOS drivers using HAL BitIO API are simpler and more
  50:../Generated_Code/Red_LED.c **** **         portable to various microprocessors.
  51:../Generated_Code/Red_LED.c **** */         
  52:../Generated_Code/Red_LED.c **** /*!
  53:../Generated_Code/Red_LED.c **** **  @addtogroup Red_LED_module Red_LED module documentation
  54:../Generated_Code/Red_LED.c **** **  @{
  55:../Generated_Code/Red_LED.c **** */         
  56:../Generated_Code/Red_LED.c **** 
  57:../Generated_Code/Red_LED.c **** /* MODULE Red_LED. */
  58:../Generated_Code/Red_LED.c **** 
  59:../Generated_Code/Red_LED.c **** /* {Default RTOS Adapter} No RTOS includes */
  60:../Generated_Code/Red_LED.c **** #include "Red_LED.h"
  61:../Generated_Code/Red_LED.c **** 
  62:../Generated_Code/Red_LED.c **** #ifdef __cplusplus
  63:../Generated_Code/Red_LED.c **** extern "C" {
  64:../Generated_Code/Red_LED.c **** #endif 
  65:../Generated_Code/Red_LED.c **** 
  66:../Generated_Code/Red_LED.c **** typedef struct {
  67:../Generated_Code/Red_LED.c ****   LDD_TUserData *UserDataPtr;          /* Pointer to user data */
  68:../Generated_Code/Red_LED.c **** } Red_LED_TDeviceData;                 /* Device data structure type */
  69:../Generated_Code/Red_LED.c **** 
  70:../Generated_Code/Red_LED.c **** typedef Red_LED_TDeviceData *Red_LED_TDeviceDataPtr ; /* Pointer to the device data structure. */
  71:../Generated_Code/Red_LED.c **** 
  72:../Generated_Code/Red_LED.c **** /* {Default RTOS Adapter} Static object used for simulation of dynamic driver memory allocation */
  73:../Generated_Code/Red_LED.c **** static Red_LED_TDeviceData DeviceDataPrv__DEFAULT_RTOS_ALLOC;
  74:../Generated_Code/Red_LED.c **** /*
  75:../Generated_Code/Red_LED.c **** ** ===================================================================
  76:../Generated_Code/Red_LED.c **** **     Method      :  Red_LED_Init (component BitIO_LDD)
  77:../Generated_Code/Red_LED.c **** */
  78:../Generated_Code/Red_LED.c **** /*!
  79:../Generated_Code/Red_LED.c **** **     @brief
  80:../Generated_Code/Red_LED.c **** **         Initializes the device. Allocates memory for the device data
  81:../Generated_Code/Red_LED.c **** **         structure, allocates interrupt vectors and sets interrupt
  82:../Generated_Code/Red_LED.c **** **         priority, sets pin routing, sets timing, etc. If the "Enable
  83:../Generated_Code/Red_LED.c **** **         in init. code" is set to "yes" value then the device is also
  84:../Generated_Code/Red_LED.c **** **         enabled(see the description of the Enable() method). In this
  85:../Generated_Code/Red_LED.c **** **         case the Enable() method is not necessary and needn't to be
  86:../Generated_Code/Red_LED.c **** **         generated. 
  87:../Generated_Code/Red_LED.c **** **     @param
  88:../Generated_Code/Red_LED.c **** **         UserDataPtr     - Pointer to the user or
  89:../Generated_Code/Red_LED.c **** **                           RTOS specific data. This pointer will be
  90:../Generated_Code/Red_LED.c **** **                           passed as an event or callback parameter.
  91:../Generated_Code/Red_LED.c **** **     @return
  92:../Generated_Code/Red_LED.c **** **                         - Pointer to the dynamically allocated private
  93:../Generated_Code/Red_LED.c **** **                           structure or NULL if there was an error.
  94:../Generated_Code/Red_LED.c **** */
  95:../Generated_Code/Red_LED.c **** /* ===================================================================*/
  96:../Generated_Code/Red_LED.c **** LDD_TDeviceData* Red_LED_Init(LDD_TUserData *UserDataPtr)
  97:../Generated_Code/Red_LED.c **** {
  32              		.loc 1 97 0
  33              		.cfi_startproc
  34 0000 80B5     		push	{r7, lr}
  35              	.LCFI0:
  36              		.cfi_def_cfa_offset 8
  37              		.cfi_offset 7, -8
  38              		.cfi_offset 14, -4
  39 0002 84B0     		sub	sp, sp, #16
  40              	.LCFI1:
  41              		.cfi_def_cfa_offset 24
  42 0004 00AF     		add	r7, sp, #0
  43              	.LCFI2:
  44              		.cfi_def_cfa_register 7
  45 0006 7860     		str	r0, [r7, #4]
  98:../Generated_Code/Red_LED.c ****   /* Allocate device structure */
  99:../Generated_Code/Red_LED.c ****   Red_LED_TDeviceDataPtr DeviceDataPrv;
 100:../Generated_Code/Red_LED.c **** 
 101:../Generated_Code/Red_LED.c ****   /* {Default RTOS Adapter} Driver memory allocation: Dynamic allocation is simulated by a pointer 
 102:../Generated_Code/Red_LED.c ****   DeviceDataPrv = &DeviceDataPrv__DEFAULT_RTOS_ALLOC;
  46              		.loc 1 102 0
  47 0008 114B     		ldr	r3, .L3
  48 000a FB60     		str	r3, [r7, #12]
 103:../Generated_Code/Red_LED.c ****   DeviceDataPrv->UserDataPtr = UserDataPtr; /* Store the RTOS device structure */
  49              		.loc 1 103 0
  50 000c FB68     		ldr	r3, [r7, #12]
  51 000e 7A68     		ldr	r2, [r7, #4]
  52 0010 1A60     		str	r2, [r3]
 104:../Generated_Code/Red_LED.c ****   /* Configure pin as output */
 105:../Generated_Code/Red_LED.c ****   /* GPIOB_PDDR: PDD|=0x00040000 */
 106:../Generated_Code/Red_LED.c ****   GPIOB_PDDR |= GPIO_PDDR_PDD(0x00040000);                                   
  53              		.loc 1 106 0
  54 0012 104B     		ldr	r3, .L3+4
  55 0014 0F4A     		ldr	r2, .L3+4
  56 0016 5269     		ldr	r2, [r2, #20]
  57 0018 8021     		mov	r1, #128
  58 001a C902     		lsl	r1, r1, #11
  59 001c 0A43     		orr	r2, r1
  60 001e 5A61     		str	r2, [r3, #20]
 107:../Generated_Code/Red_LED.c ****   /* Set initialization value */
 108:../Generated_Code/Red_LED.c ****   /* GPIOB_PDOR: PDO|=0x00040000 */
 109:../Generated_Code/Red_LED.c ****   GPIOB_PDOR |= GPIO_PDOR_PDO(0x00040000);                                   
  61              		.loc 1 109 0
  62 0020 0C4B     		ldr	r3, .L3+4
  63 0022 0C4A     		ldr	r2, .L3+4
  64 0024 1268     		ldr	r2, [r2]
  65 0026 8021     		mov	r1, #128
  66 0028 C902     		lsl	r1, r1, #11
  67 002a 0A43     		orr	r2, r1
  68 002c 1A60     		str	r2, [r3]
 110:../Generated_Code/Red_LED.c ****   /* Initialization of Port Control register */
 111:../Generated_Code/Red_LED.c ****   /* PORTB_PCR18: ISF=0,MUX=1 */
 112:../Generated_Code/Red_LED.c ****   PORTB_PCR18 = (uint32_t)((PORTB_PCR18 & (uint32_t)~(uint32_t)(
  69              		.loc 1 112 0
  70 002e 0A4B     		ldr	r3, .L3+8
  71 0030 094A     		ldr	r2, .L3+8
  72 0032 916C     		ldr	r1, [r2, #72]
  73 0034 094A     		ldr	r2, .L3+12
  74 0036 0A40     		and	r2, r1
  75 0038 8021     		mov	r1, #128
  76 003a 4900     		lsl	r1, r1, #1
  77 003c 0A43     		orr	r2, r1
  78 003e 9A64     		str	r2, [r3, #72]
 113:../Generated_Code/Red_LED.c ****                  PORT_PCR_ISF_MASK |
 114:../Generated_Code/Red_LED.c ****                  PORT_PCR_MUX(0x06)
 115:../Generated_Code/Red_LED.c ****                 )) | (uint32_t)(
 116:../Generated_Code/Red_LED.c ****                  PORT_PCR_MUX(0x01)
 117:../Generated_Code/Red_LED.c ****                 ));                                  
 118:../Generated_Code/Red_LED.c ****   /* Registration of the device structure */
 119:../Generated_Code/Red_LED.c ****   PE_LDD_RegisterDeviceStructure(PE_LDD_COMPONENT_Red_LED_ID,DeviceDataPrv);
  79              		.loc 1 119 0
  80 0040 074B     		ldr	r3, .L3+16
  81 0042 FA68     		ldr	r2, [r7, #12]
  82 0044 9A60     		str	r2, [r3, #8]
 120:../Generated_Code/Red_LED.c ****   return ((LDD_TDeviceData *)DeviceDataPrv);
  83              		.loc 1 120 0
  84 0046 FB68     		ldr	r3, [r7, #12]
 121:../Generated_Code/Red_LED.c **** }
  85              		.loc 1 121 0
  86 0048 181C     		mov	r0, r3
  87 004a BD46     		mov	sp, r7
  88 004c 04B0     		add	sp, sp, #16
  89              		@ sp needed for prologue
  90 004e 80BD     		pop	{r7, pc}
  91              	.L4:
  92              		.align	2
  93              	.L3:
  94 0050 00000000 		.word	DeviceDataPrv__DEFAULT_RTOS_ALLOC
  95 0054 40F00F40 		.word	1074786368
  96 0058 00A00440 		.word	1074044928
  97 005c FFF8FFFE 		.word	-16779009
  98 0060 00000000 		.word	PE_LDD_DeviceDataList
  99              		.cfi_endproc
 100              	.LFE0:
 102              		.section	.text.Red_LED_Deinit,"ax",%progbits
 103              		.align	2
 104              		.global	Red_LED_Deinit
 105              		.code	16
 106              		.thumb_func
 108              	Red_LED_Deinit:
 109              	.LFB1:
 122:../Generated_Code/Red_LED.c **** /*
 123:../Generated_Code/Red_LED.c **** ** ===================================================================
 124:../Generated_Code/Red_LED.c **** **     Method      :  Red_LED_Deinit (component BitIO_LDD)
 125:../Generated_Code/Red_LED.c **** */
 126:../Generated_Code/Red_LED.c **** /*!
 127:../Generated_Code/Red_LED.c **** **     @brief
 128:../Generated_Code/Red_LED.c **** **          Deinitializes the device. Switches off the device, frees
 129:../Generated_Code/Red_LED.c **** **         the device data structure memory, interrupts vectors, etc.
 130:../Generated_Code/Red_LED.c **** **     @param
 131:../Generated_Code/Red_LED.c **** **         DeviceDataPtr   - Device data structure
 132:../Generated_Code/Red_LED.c **** **                           pointer returned by <Init> method.
 133:../Generated_Code/Red_LED.c **** */
 134:../Generated_Code/Red_LED.c **** /* ===================================================================*/
 135:../Generated_Code/Red_LED.c **** void Red_LED_Deinit(LDD_TDeviceData *DeviceDataPtr)
 136:../Generated_Code/Red_LED.c **** {
 110              		.loc 1 136 0
 111              		.cfi_startproc
 112 0000 80B5     		push	{r7, lr}
 113              	.LCFI3:
 114              		.cfi_def_cfa_offset 8
 115              		.cfi_offset 7, -8
 116              		.cfi_offset 14, -4
 117 0002 82B0     		sub	sp, sp, #8
 118              	.LCFI4:
 119              		.cfi_def_cfa_offset 16
 120 0004 00AF     		add	r7, sp, #0
 121              	.LCFI5:
 122              		.cfi_def_cfa_register 7
 123 0006 7860     		str	r0, [r7, #4]
 137:../Generated_Code/Red_LED.c ****   (void)DeviceDataPtr;                 /* Parameter is not used, suppress unused argument warning *
 138:../Generated_Code/Red_LED.c ****   /* GPIOB_PDDR: PDD&=~0x00040000 */
 139:../Generated_Code/Red_LED.c ****   GPIOB_PDDR &= (uint32_t)~(uint32_t)(GPIO_PDDR_PDD(0x00040000));                                  
 124              		.loc 1 139 0
 125 0008 054B     		ldr	r3, .L6
 126 000a 054A     		ldr	r2, .L6
 127 000c 5169     		ldr	r1, [r2, #20]
 128 000e 054A     		ldr	r2, .L6+4
 129 0010 0A40     		and	r2, r1
 130 0012 5A61     		str	r2, [r3, #20]
 140:../Generated_Code/Red_LED.c ****   /* Unregistration of the device structure */
 141:../Generated_Code/Red_LED.c ****   PE_LDD_UnregisterDeviceStructure(PE_LDD_COMPONENT_Red_LED_ID);
 131              		.loc 1 141 0
 132 0014 044B     		ldr	r3, .L6+8
 133 0016 0022     		mov	r2, #0
 134 0018 9A60     		str	r2, [r3, #8]
 142:../Generated_Code/Red_LED.c ****   /* Deallocation of the device structure */
 143:../Generated_Code/Red_LED.c ****   /* {Default RTOS Adapter} Driver memory deallocation: Dynamic allocation is simulated, no dealloc
 144:../Generated_Code/Red_LED.c **** }
 135              		.loc 1 144 0
 136 001a BD46     		mov	sp, r7
 137 001c 02B0     		add	sp, sp, #8
 138              		@ sp needed for prologue
 139 001e 80BD     		pop	{r7, pc}
 140              	.L7:
 141              		.align	2
 142              	.L6:
 143 0020 40F00F40 		.word	1074786368
 144 0024 FFFFFBFF 		.word	-262145
 145 0028 00000000 		.word	PE_LDD_DeviceDataList
 146              		.cfi_endproc
 147              	.LFE1:
 149              		.section	.text.Red_LED_PutVal,"ax",%progbits
 150              		.align	2
 151              		.global	Red_LED_PutVal
 152              		.code	16
 153              		.thumb_func
 155              	Red_LED_PutVal:
 156              	.LFB2:
 145:../Generated_Code/Red_LED.c **** 
 146:../Generated_Code/Red_LED.c **** /*
 147:../Generated_Code/Red_LED.c **** ** ===================================================================
 148:../Generated_Code/Red_LED.c **** **     Method      :  Red_LED_PutVal (component BitIO_LDD)
 149:../Generated_Code/Red_LED.c **** */
 150:../Generated_Code/Red_LED.c **** /*!
 151:../Generated_Code/Red_LED.c **** **     @brief
 152:../Generated_Code/Red_LED.c **** **         The specified output value is set. If the direction is <b>
 153:../Generated_Code/Red_LED.c **** **         input</b>, the component saves the value to a memory or a
 154:../Generated_Code/Red_LED.c **** **         register and this value will be written to the pin after
 155:../Generated_Code/Red_LED.c **** **         switching to the output mode (using <tt>SetDir(TRUE)</tt>;
 156:../Generated_Code/Red_LED.c **** **         see <a href="BitIOProperties.html#SafeMode">Safe mode</a>
 157:../Generated_Code/Red_LED.c **** **         property for limitations). If the direction is <b>output</b>,
 158:../Generated_Code/Red_LED.c **** **         it writes the value to the pin. (Method is available only if
 159:../Generated_Code/Red_LED.c **** **         the direction = <u><tt>output</tt></u> or <u><tt>
 160:../Generated_Code/Red_LED.c **** **         input/output</tt></u>).
 161:../Generated_Code/Red_LED.c **** **     @param
 162:../Generated_Code/Red_LED.c **** **         DeviceDataPtr   - Device data structure
 163:../Generated_Code/Red_LED.c **** **                           pointer returned by <Init> method.
 164:../Generated_Code/Red_LED.c **** **     @param
 165:../Generated_Code/Red_LED.c **** **         Val             - Output value. Possible values:
 166:../Generated_Code/Red_LED.c **** **                           <false> - logical "0" (Low level)
 167:../Generated_Code/Red_LED.c **** **                           <true> - logical "1" (High level)
 168:../Generated_Code/Red_LED.c **** */
 169:../Generated_Code/Red_LED.c **** /* ===================================================================*/
 170:../Generated_Code/Red_LED.c **** void Red_LED_PutVal(LDD_TDeviceData *DeviceDataPtr, bool Val)
 171:../Generated_Code/Red_LED.c **** {
 157              		.loc 1 171 0
 158              		.cfi_startproc
 159 0000 80B5     		push	{r7, lr}
 160              	.LCFI6:
 161              		.cfi_def_cfa_offset 8
 162              		.cfi_offset 7, -8
 163              		.cfi_offset 14, -4
 164 0002 82B0     		sub	sp, sp, #8
 165              	.LCFI7:
 166              		.cfi_def_cfa_offset 16
 167 0004 00AF     		add	r7, sp, #0
 168              	.LCFI8:
 169              		.cfi_def_cfa_register 7
 170 0006 7860     		str	r0, [r7, #4]
 171 0008 0A1C     		mov	r2, r1
 172 000a FB1C     		add	r3, r7, #3
 173 000c 1A70     		strb	r2, [r3]
 172:../Generated_Code/Red_LED.c ****   (void)DeviceDataPtr;                 /* Parameter is not used, suppress unused argument warning *
 173:../Generated_Code/Red_LED.c ****   if (Val) {
 174              		.loc 1 173 0
 175 000e FB1C     		add	r3, r7, #3
 176 0010 1B78     		ldrb	r3, [r3]
 177 0012 002B     		cmp	r3, #0
 178 0014 04D0     		beq	.L9
 174:../Generated_Code/Red_LED.c ****     GPIO_PDD_SetPortDataOutputMask(Red_LED_MODULE_BASE_ADDRESS, Red_LED_PORT_MASK);
 179              		.loc 1 174 0
 180 0016 064B     		ldr	r3, .L11
 181 0018 8022     		mov	r2, #128
 182 001a D202     		lsl	r2, r2, #11
 183 001c 5A60     		str	r2, [r3, #4]
 184 001e 03E0     		b	.L8
 185              	.L9:
 175:../Generated_Code/Red_LED.c ****   } else { /* !Val */
 176:../Generated_Code/Red_LED.c ****     GPIO_PDD_ClearPortDataOutputMask(Red_LED_MODULE_BASE_ADDRESS, Red_LED_PORT_MASK);
 186              		.loc 1 176 0
 187 0020 034B     		ldr	r3, .L11
 188 0022 8022     		mov	r2, #128
 189 0024 D202     		lsl	r2, r2, #11
 190 0026 9A60     		str	r2, [r3, #8]
 191              	.L8:
 177:../Generated_Code/Red_LED.c ****   } /* !Val */
 178:../Generated_Code/Red_LED.c **** }
 192              		.loc 1 178 0
 193 0028 BD46     		mov	sp, r7
 194 002a 02B0     		add	sp, sp, #8
 195              		@ sp needed for prologue
 196 002c 80BD     		pop	{r7, pc}
 197              	.L12:
 198 002e C046     		.align	2
 199              	.L11:
 200 0030 40F00FF8 		.word	-133173184
 201              		.cfi_endproc
 202              	.LFE2:
 204              		.section	.text.Red_LED_ClrVal,"ax",%progbits
 205              		.align	2
 206              		.global	Red_LED_ClrVal
 207              		.code	16
 208              		.thumb_func
 210              	Red_LED_ClrVal:
 211              	.LFB3:
 179:../Generated_Code/Red_LED.c **** 
 180:../Generated_Code/Red_LED.c **** /*
 181:../Generated_Code/Red_LED.c **** ** ===================================================================
 182:../Generated_Code/Red_LED.c **** **     Method      :  Red_LED_ClrVal (component BitIO_LDD)
 183:../Generated_Code/Red_LED.c **** */
 184:../Generated_Code/Red_LED.c **** /*!
 185:../Generated_Code/Red_LED.c **** **     @brief
 186:../Generated_Code/Red_LED.c **** **         Clears (set to zero) the output value. It is equivalent to
 187:../Generated_Code/Red_LED.c **** **         the [PutVal(FALSE)]. This method is available only if the
 188:../Generated_Code/Red_LED.c **** **         direction = _[output]_ or _[input/output]_.
 189:../Generated_Code/Red_LED.c **** **     @param
 190:../Generated_Code/Red_LED.c **** **         DeviceDataPtr   - Pointer to device data
 191:../Generated_Code/Red_LED.c **** **                           structure returned by <Init> method.
 192:../Generated_Code/Red_LED.c **** */
 193:../Generated_Code/Red_LED.c **** /* ===================================================================*/
 194:../Generated_Code/Red_LED.c **** void Red_LED_ClrVal(LDD_TDeviceData *DeviceDataPtr)
 195:../Generated_Code/Red_LED.c **** {
 212              		.loc 1 195 0
 213              		.cfi_startproc
 214 0000 80B5     		push	{r7, lr}
 215              	.LCFI9:
 216              		.cfi_def_cfa_offset 8
 217              		.cfi_offset 7, -8
 218              		.cfi_offset 14, -4
 219 0002 82B0     		sub	sp, sp, #8
 220              	.LCFI10:
 221              		.cfi_def_cfa_offset 16
 222 0004 00AF     		add	r7, sp, #0
 223              	.LCFI11:
 224              		.cfi_def_cfa_register 7
 225 0006 7860     		str	r0, [r7, #4]
 196:../Generated_Code/Red_LED.c ****   (void)DeviceDataPtr;                 /* Parameter is not used, suppress unused argument warning *
 197:../Generated_Code/Red_LED.c ****   GPIO_PDD_ClearPortDataOutputMask(Red_LED_MODULE_BASE_ADDRESS, Red_LED_PORT_MASK);
 226              		.loc 1 197 0
 227 0008 034B     		ldr	r3, .L14
 228 000a 8022     		mov	r2, #128
 229 000c D202     		lsl	r2, r2, #11
 230 000e 9A60     		str	r2, [r3, #8]
 198:../Generated_Code/Red_LED.c **** }
 231              		.loc 1 198 0
 232 0010 BD46     		mov	sp, r7
 233 0012 02B0     		add	sp, sp, #8
 234              		@ sp needed for prologue
 235 0014 80BD     		pop	{r7, pc}
 236              	.L15:
 237 0016 C046     		.align	2
 238              	.L14:
 239 0018 40F00FF8 		.word	-133173184
 240              		.cfi_endproc
 241              	.LFE3:
 243              		.section	.text.Red_LED_SetVal,"ax",%progbits
 244              		.align	2
 245              		.global	Red_LED_SetVal
 246              		.code	16
 247              		.thumb_func
 249              	Red_LED_SetVal:
 250              	.LFB4:
 199:../Generated_Code/Red_LED.c **** 
 200:../Generated_Code/Red_LED.c **** /*
 201:../Generated_Code/Red_LED.c **** ** ===================================================================
 202:../Generated_Code/Red_LED.c **** **     Method      :  Red_LED_SetVal (component BitIO_LDD)
 203:../Generated_Code/Red_LED.c **** */
 204:../Generated_Code/Red_LED.c **** /*!
 205:../Generated_Code/Red_LED.c **** **     @brief
 206:../Generated_Code/Red_LED.c **** **         Sets (to one) the output value. It is equivalent to the
 207:../Generated_Code/Red_LED.c **** **         [PutVal(TRUE)]. This method is available only if the
 208:../Generated_Code/Red_LED.c **** **         direction = _[output]_ or _[input/output]_.
 209:../Generated_Code/Red_LED.c **** **     @param
 210:../Generated_Code/Red_LED.c **** **         DeviceDataPtr   - Pointer to device data
 211:../Generated_Code/Red_LED.c **** **                           structure returned by <Init> method.
 212:../Generated_Code/Red_LED.c **** */
 213:../Generated_Code/Red_LED.c **** /* ===================================================================*/
 214:../Generated_Code/Red_LED.c **** void Red_LED_SetVal(LDD_TDeviceData *DeviceDataPtr)
 215:../Generated_Code/Red_LED.c **** {
 251              		.loc 1 215 0
 252              		.cfi_startproc
 253 0000 80B5     		push	{r7, lr}
 254              	.LCFI12:
 255              		.cfi_def_cfa_offset 8
 256              		.cfi_offset 7, -8
 257              		.cfi_offset 14, -4
 258 0002 82B0     		sub	sp, sp, #8
 259              	.LCFI13:
 260              		.cfi_def_cfa_offset 16
 261 0004 00AF     		add	r7, sp, #0
 262              	.LCFI14:
 263              		.cfi_def_cfa_register 7
 264 0006 7860     		str	r0, [r7, #4]
 216:../Generated_Code/Red_LED.c ****   (void)DeviceDataPtr;                 /* Parameter is not used, suppress unused argument warning *
 217:../Generated_Code/Red_LED.c ****   GPIO_PDD_SetPortDataOutputMask(Red_LED_MODULE_BASE_ADDRESS, Red_LED_PORT_MASK);
 265              		.loc 1 217 0
 266 0008 034B     		ldr	r3, .L17
 267 000a 8022     		mov	r2, #128
 268 000c D202     		lsl	r2, r2, #11
 269 000e 5A60     		str	r2, [r3, #4]
 218:../Generated_Code/Red_LED.c **** }
 270              		.loc 1 218 0
 271 0010 BD46     		mov	sp, r7
 272 0012 02B0     		add	sp, sp, #8
 273              		@ sp needed for prologue
 274 0014 80BD     		pop	{r7, pc}
 275              	.L18:
 276 0016 C046     		.align	2
 277              	.L17:
 278 0018 40F00FF8 		.word	-133173184
 279              		.cfi_endproc
 280              	.LFE4:
 282              		.section	.text.Red_LED_NegVal,"ax",%progbits
 283              		.align	2
 284              		.global	Red_LED_NegVal
 285              		.code	16
 286              		.thumb_func
 288              	Red_LED_NegVal:
 289              	.LFB5:
 219:../Generated_Code/Red_LED.c **** 
 220:../Generated_Code/Red_LED.c **** /*
 221:../Generated_Code/Red_LED.c **** ** ===================================================================
 222:../Generated_Code/Red_LED.c **** **     Method      :  Red_LED_NegVal (component BitIO_LDD)
 223:../Generated_Code/Red_LED.c **** */
 224:../Generated_Code/Red_LED.c **** /*!
 225:../Generated_Code/Red_LED.c **** **     @brief
 226:../Generated_Code/Red_LED.c **** **         Negates (inverts) the output value. It is equivalent to the
 227:../Generated_Code/Red_LED.c **** **         [PutVal(!GetVal())]. This method is available only if the
 228:../Generated_Code/Red_LED.c **** **         direction = _[output]_ or _[input/output]_.
 229:../Generated_Code/Red_LED.c **** **     @param
 230:../Generated_Code/Red_LED.c **** **         DeviceDataPtr   - Pointer to device data
 231:../Generated_Code/Red_LED.c **** **                           structure returned by <Init> method.
 232:../Generated_Code/Red_LED.c **** */
 233:../Generated_Code/Red_LED.c **** /* ===================================================================*/
 234:../Generated_Code/Red_LED.c **** void Red_LED_NegVal(LDD_TDeviceData *DeviceDataPtr)
 235:../Generated_Code/Red_LED.c **** {
 290              		.loc 1 235 0
 291              		.cfi_startproc
 292 0000 80B5     		push	{r7, lr}
 293              	.LCFI15:
 294              		.cfi_def_cfa_offset 8
 295              		.cfi_offset 7, -8
 296              		.cfi_offset 14, -4
 297 0002 82B0     		sub	sp, sp, #8
 298              	.LCFI16:
 299              		.cfi_def_cfa_offset 16
 300 0004 00AF     		add	r7, sp, #0
 301              	.LCFI17:
 302              		.cfi_def_cfa_register 7
 303 0006 7860     		str	r0, [r7, #4]
 236:../Generated_Code/Red_LED.c ****   (void)DeviceDataPtr;                 /* Parameter is not used, suppress unused argument warning *
 237:../Generated_Code/Red_LED.c ****   GPIO_PDD_TogglePortDataOutputMask(Red_LED_MODULE_BASE_ADDRESS, Red_LED_PORT_MASK);
 304              		.loc 1 237 0
 305 0008 034B     		ldr	r3, .L20
 306 000a 8022     		mov	r2, #128
 307 000c D202     		lsl	r2, r2, #11
 308 000e DA60     		str	r2, [r3, #12]
 238:../Generated_Code/Red_LED.c **** }
 309              		.loc 1 238 0
 310 0010 BD46     		mov	sp, r7
 311 0012 02B0     		add	sp, sp, #8
 312              		@ sp needed for prologue
 313 0014 80BD     		pop	{r7, pc}
 314              	.L21:
 315 0016 C046     		.align	2
 316              	.L20:
 317 0018 40F00FF8 		.word	-133173184
 318              		.cfi_endproc
 319              	.LFE5:
 321              		.text
 322              	.Letext0:
 323              		.file 2 "E:/Freescale/CW MCU v10.5/MCU/ARM_GCC_Support/ewl/EWL_C/include/cstdint"
 324              		.file 3 "../Generated_Code/PE_Types.h"
 325              		.file 4 "../Generated_Code/IO_Map.h"