   1              		.cpu cortex-m0
   2              		.fpu softvfp
   3              		.eabi_attribute 20, 1
   4              		.eabi_attribute 21, 1
   5              		.eabi_attribute 23, 3
   6              		.eabi_attribute 24, 1
   7              		.eabi_attribute 25, 1
   8              		.eabi_attribute 26, 1
   9              		.eabi_attribute 30, 6
  10              		.eabi_attribute 34, 0
  11              		.eabi_attribute 18, 4
  12              		.code	16
  13              		.file	"TI1.c"
  14              		.text
  15              	.Ltext0:
  16              		.cfi_sections	.debug_frame
  17              		.section	.text.TimerIntLdd1_OnInterrupt,"ax",%progbits
  18              		.align	2
  19              		.global	TimerIntLdd1_OnInterrupt
  20              		.code	16
  21              		.thumb_func
  23              	TimerIntLdd1_OnInterrupt:
  24              	.LFB0:
  25              		.file 1 "../Generated_Code/TI1.c"
   1:../Generated_Code/TI1.c **** /* ###################################################################
   2:../Generated_Code/TI1.c **** **     THIS COMPONENT MODULE IS GENERATED BY THE TOOL. DO NOT MODIFY IT.
   3:../Generated_Code/TI1.c **** **     Filename    : TI1.c
   4:../Generated_Code/TI1.c **** **     Project     : ProcessorExpert
   5:../Generated_Code/TI1.c **** **     Processor   : MKL25Z128VLK4
   6:../Generated_Code/TI1.c **** **     Component   : TimerInt
   7:../Generated_Code/TI1.c **** **     Version     : Component 02.161, Driver 01.02, CPU db: 3.00.000
   8:../Generated_Code/TI1.c **** **     Compiler    : GNU C Compiler
   9:../Generated_Code/TI1.c **** **     Date/Time   : 2015-10-17, 18:37, # CodeGen: 14
  10:../Generated_Code/TI1.c **** **     Abstract    :
  11:../Generated_Code/TI1.c **** **         This component "TimerInt" implements a periodic interrupt.
  12:../Generated_Code/TI1.c **** **         When the component and its events are enabled, the "OnInterrupt"
  13:../Generated_Code/TI1.c **** **         event is called periodically with the period that you specify.
  14:../Generated_Code/TI1.c **** **         TimerInt supports also changing the period in runtime.
  15:../Generated_Code/TI1.c **** **         The source of periodic interrupt can be timer compare or reload
  16:../Generated_Code/TI1.c **** **         register or timer-overflow interrupt (of free running counter).
  17:../Generated_Code/TI1.c **** **     Settings    :
  18:../Generated_Code/TI1.c **** **         Timer name                  : TPM0_CNT (16-bit)
  19:../Generated_Code/TI1.c **** **         Compare name                : TPM0_MOD
  20:../Generated_Code/TI1.c **** **         Counter shared              : No
  21:../Generated_Code/TI1.c **** **
  22:../Generated_Code/TI1.c **** **         High speed mode
  23:../Generated_Code/TI1.c **** **             Prescaler               : divide-by-[driven by slave component]
  24:../Generated_Code/TI1.c **** **             Clock                   : [driven by slave component] Hz
  25:../Generated_Code/TI1.c **** **           Initial period/frequency
  26:../Generated_Code/TI1.c **** **             Xtal ticks              : ---
  27:../Generated_Code/TI1.c **** **             microseconds            : ---
  28:../Generated_Code/TI1.c **** **             milliseconds            : 100
  29:../Generated_Code/TI1.c **** **             seconds                 : ---
  30:../Generated_Code/TI1.c **** **             seconds (real)          : 100
  31:../Generated_Code/TI1.c **** **             Hz                      : ---
  32:../Generated_Code/TI1.c **** **             kHz                     : ---
  33:../Generated_Code/TI1.c **** **             MHz                     : ---
  34:../Generated_Code/TI1.c **** **
  35:../Generated_Code/TI1.c **** **         Runtime setting             : none
  36:../Generated_Code/TI1.c **** **
  37:../Generated_Code/TI1.c **** **         Initialization:
  38:../Generated_Code/TI1.c **** **              Timer                  : Enabled
  39:../Generated_Code/TI1.c **** **              Events                 : Enabled
  40:../Generated_Code/TI1.c **** **
  41:../Generated_Code/TI1.c **** **         Timer registers
  42:../Generated_Code/TI1.c **** **              Counter                : TPM0_CNT  [0x40038004]
  43:../Generated_Code/TI1.c **** **              Mode                   : TPM0_SC   [0x40038000]
  44:../Generated_Code/TI1.c **** **              Run                    : TPM0_SC   [0x40038000]
  45:../Generated_Code/TI1.c **** **              Prescaler              : TPM0_SC   [0x40038000]
  46:../Generated_Code/TI1.c **** **
  47:../Generated_Code/TI1.c **** **         Compare registers
  48:../Generated_Code/TI1.c **** **              Compare                : TPM0_MOD  [0x40038008]
  49:../Generated_Code/TI1.c **** **
  50:../Generated_Code/TI1.c **** **         Flip-flop registers
  51:../Generated_Code/TI1.c **** **              Mode                   : TPM0_SC   [0x40038000]
  52:../Generated_Code/TI1.c **** **     Contents    :
  53:../Generated_Code/TI1.c **** **         No public methods
  54:../Generated_Code/TI1.c **** **
  55:../Generated_Code/TI1.c **** **     Copyright : 1997 - 2013 Freescale Semiconductor, Inc. All Rights Reserved.
  56:../Generated_Code/TI1.c **** **     SOURCE DISTRIBUTION PERMISSIBLE as directed in End User License Agreement.
  57:../Generated_Code/TI1.c **** **     
  58:../Generated_Code/TI1.c **** **     http      : www.freescale.com
  59:../Generated_Code/TI1.c **** **     mail      : support@freescale.com
  60:../Generated_Code/TI1.c **** ** ###################################################################*/
  61:../Generated_Code/TI1.c **** /*!
  62:../Generated_Code/TI1.c **** ** @file TI1.c
  63:../Generated_Code/TI1.c **** ** @version 01.02
  64:../Generated_Code/TI1.c **** ** @brief
  65:../Generated_Code/TI1.c **** **         This component "TimerInt" implements a periodic interrupt.
  66:../Generated_Code/TI1.c **** **         When the component and its events are enabled, the "OnInterrupt"
  67:../Generated_Code/TI1.c **** **         event is called periodically with the period that you specify.
  68:../Generated_Code/TI1.c **** **         TimerInt supports also changing the period in runtime.
  69:../Generated_Code/TI1.c **** **         The source of periodic interrupt can be timer compare or reload
  70:../Generated_Code/TI1.c **** **         register or timer-overflow interrupt (of free running counter).
  71:../Generated_Code/TI1.c **** */         
  72:../Generated_Code/TI1.c **** /*!
  73:../Generated_Code/TI1.c **** **  @addtogroup TI1_module TI1 module documentation
  74:../Generated_Code/TI1.c **** **  @{
  75:../Generated_Code/TI1.c **** */         
  76:../Generated_Code/TI1.c **** 
  77:../Generated_Code/TI1.c **** /* MODULE TI1. */
  78:../Generated_Code/TI1.c **** 
  79:../Generated_Code/TI1.c **** #include "Events.h"
  80:../Generated_Code/TI1.c **** #include "TI1.h"
  81:../Generated_Code/TI1.c **** 
  82:../Generated_Code/TI1.c **** #ifdef __cplusplus
  83:../Generated_Code/TI1.c **** extern "C" {
  84:../Generated_Code/TI1.c **** #endif 
  85:../Generated_Code/TI1.c **** 
  86:../Generated_Code/TI1.c **** /*
  87:../Generated_Code/TI1.c **** ** ===================================================================
  88:../Generated_Code/TI1.c **** **     Method      :  TI1_OnInterrupt (component TimerInt)
  89:../Generated_Code/TI1.c **** **
  90:../Generated_Code/TI1.c **** **     Description :
  91:../Generated_Code/TI1.c **** **         This method is internal. It is used by Processor Expert only.
  92:../Generated_Code/TI1.c **** ** ===================================================================
  93:../Generated_Code/TI1.c **** */
  94:../Generated_Code/TI1.c **** void TimerIntLdd1_OnInterrupt(LDD_TUserData *UserDataPtr)
  95:../Generated_Code/TI1.c **** {
  26              		.loc 1 95 0
  27              		.cfi_startproc
  28 0000 80B5     		push	{r7, lr}
  29              	.LCFI0:
  30              		.cfi_def_cfa_offset 8
  31              		.cfi_offset 7, -8
  32              		.cfi_offset 14, -4
  33 0002 82B0     		sub	sp, sp, #8
  34              	.LCFI1:
  35              		.cfi_def_cfa_offset 16
  36 0004 00AF     		add	r7, sp, #0
  37              	.LCFI2:
  38              		.cfi_def_cfa_register 7
  39 0006 7860     		str	r0, [r7, #4]
  96:../Generated_Code/TI1.c ****   (void)UserDataPtr;                   /* Parameter is not used, suppress unused argument warning *
  97:../Generated_Code/TI1.c ****   TI1_OnInterrupt();                   /* Invoke OnInterrupt event */
  40              		.loc 1 97 0
  41 0008 FFF7FEFF 		bl	TI1_OnInterrupt
  98:../Generated_Code/TI1.c **** }
  42              		.loc 1 98 0
  43 000c BD46     		mov	sp, r7
  44 000e 02B0     		add	sp, sp, #8
  45              		@ sp needed for prologue
  46 0010 80BD     		pop	{r7, pc}
  47              		.cfi_endproc
  48              	.LFE0:
  50 0012 C046     		.text
  51              	.Letext0:
  52              		.file 2 "D:/kuaipan/SEMG/FRDM_KL25Z_SPI/spi_demo_master/Generated_Code/PE_Types.h"