   1              		.cpu cortex-m0
   2              		.fpu softvfp
   3              		.eabi_attribute 20, 1
   4              		.eabi_attribute 21, 1
   5              		.eabi_attribute 23, 3
   6              		.eabi_attribute 24, 1
   7              		.eabi_attribute 25, 1
   8              		.eabi_attribute 26, 1
   9              		.eabi_attribute 30, 6
  10              		.eabi_attribute 34, 0
  11              		.eabi_attribute 18, 4
  12              		.code	16
  13              		.file	"PCS.c"
  14              		.text
  15              	.Ltext0:
  16              		.cfi_sections	.debug_frame
  17              		.section	.bss.DeviceDataPrv__DEFAULT_RTOS_ALLOC,"aw",%nobits
  18              		.align	2
  21              	DeviceDataPrv__DEFAULT_RTOS_ALLOC:
  22 0000 00000000 		.space	4
  23              		.section	.text.PCS_Init,"ax",%progbits
  24              		.align	2
  25              		.global	PCS_Init
  26              		.code	16
  27              		.thumb_func
  29              	PCS_Init:
  30              	.LFB0:
  31              		.file 1 "../Generated_Code/PCS.c"
   1:../Generated_Code/PCS.c **** /* ###################################################################
   2:../Generated_Code/PCS.c **** **     THIS COMPONENT MODULE IS GENERATED BY THE TOOL. DO NOT MODIFY IT.
   3:../Generated_Code/PCS.c **** **     Filename    : PCS.c
   4:../Generated_Code/PCS.c **** **     Project     : ProcessorExpert
   5:../Generated_Code/PCS.c **** **     Processor   : MKL25Z128VLK4
   6:../Generated_Code/PCS.c **** **     Component   : BitIO_LDD
   7:../Generated_Code/PCS.c **** **     Version     : Component 01.033, Driver 01.03, CPU db: 3.00.000
   8:../Generated_Code/PCS.c **** **     Compiler    : GNU C Compiler
   9:../Generated_Code/PCS.c **** **     Date/Time   : 2015-10-17, 20:46, # CodeGen: 18
  10:../Generated_Code/PCS.c **** **     Abstract    :
  11:../Generated_Code/PCS.c **** **         The HAL BitIO component provides a low level API for unified
  12:../Generated_Code/PCS.c **** **         access to general purpose digital input/output pins across
  13:../Generated_Code/PCS.c **** **         various device designs.
  14:../Generated_Code/PCS.c **** **
  15:../Generated_Code/PCS.c **** **         RTOS drivers using HAL BitIO API are simpler and more
  16:../Generated_Code/PCS.c **** **         portable to various microprocessors.
  17:../Generated_Code/PCS.c **** **     Settings    :
  18:../Generated_Code/PCS.c **** **          Component name                                 : PCS
  19:../Generated_Code/PCS.c **** **          Pin for I/O                                    : PTC4/LLWU_P8/SPI0_PCS0/UART1_TX/TPM0_C
  20:../Generated_Code/PCS.c **** **          Pin signal                                     : 
  21:../Generated_Code/PCS.c **** **          Direction                                      : Output
  22:../Generated_Code/PCS.c **** **          Initialization                                 : 
  23:../Generated_Code/PCS.c **** **            Init. direction                              : Output
  24:../Generated_Code/PCS.c **** **            Init. value                                  : 1
  25:../Generated_Code/PCS.c **** **            Auto initialization                          : yes
  26:../Generated_Code/PCS.c **** **          Safe mode                                      : no
  27:../Generated_Code/PCS.c **** **     Contents    :
  28:../Generated_Code/PCS.c **** **         Init   - LDD_TDeviceData* PCS_Init(LDD_TUserData *UserDataPtr);
  29:../Generated_Code/PCS.c **** **         GetVal - bool PCS_GetVal(LDD_TDeviceData *DeviceDataPtr);
  30:../Generated_Code/PCS.c **** **         PutVal - void PCS_PutVal(LDD_TDeviceData *DeviceDataPtr, bool Val);
  31:../Generated_Code/PCS.c **** **         ClrVal - void PCS_ClrVal(LDD_TDeviceData *DeviceDataPtr);
  32:../Generated_Code/PCS.c **** **         SetVal - void PCS_SetVal(LDD_TDeviceData *DeviceDataPtr);
  33:../Generated_Code/PCS.c **** **
  34:../Generated_Code/PCS.c **** **     Copyright : 1997 - 2013 Freescale Semiconductor, Inc. All Rights Reserved.
  35:../Generated_Code/PCS.c **** **     SOURCE DISTRIBUTION PERMISSIBLE as directed in End User License Agreement.
  36:../Generated_Code/PCS.c **** **     
  37:../Generated_Code/PCS.c **** **     http      : www.freescale.com
  38:../Generated_Code/PCS.c **** **     mail      : support@freescale.com
  39:../Generated_Code/PCS.c **** ** ###################################################################*/
  40:../Generated_Code/PCS.c **** /*!
  41:../Generated_Code/PCS.c **** ** @file PCS.c
  42:../Generated_Code/PCS.c **** ** @version 01.03
  43:../Generated_Code/PCS.c **** ** @brief
  44:../Generated_Code/PCS.c **** **         The HAL BitIO component provides a low level API for unified
  45:../Generated_Code/PCS.c **** **         access to general purpose digital input/output pins across
  46:../Generated_Code/PCS.c **** **         various device designs.
  47:../Generated_Code/PCS.c **** **
  48:../Generated_Code/PCS.c **** **         RTOS drivers using HAL BitIO API are simpler and more
  49:../Generated_Code/PCS.c **** **         portable to various microprocessors.
  50:../Generated_Code/PCS.c **** */         
  51:../Generated_Code/PCS.c **** /*!
  52:../Generated_Code/PCS.c **** **  @addtogroup PCS_module PCS module documentation
  53:../Generated_Code/PCS.c **** **  @{
  54:../Generated_Code/PCS.c **** */         
  55:../Generated_Code/PCS.c **** 
  56:../Generated_Code/PCS.c **** /* MODULE PCS. */
  57:../Generated_Code/PCS.c **** 
  58:../Generated_Code/PCS.c **** /* {Default RTOS Adapter} No RTOS includes */
  59:../Generated_Code/PCS.c **** #include "PCS.h"
  60:../Generated_Code/PCS.c **** 
  61:../Generated_Code/PCS.c **** #ifdef __cplusplus
  62:../Generated_Code/PCS.c **** extern "C" {
  63:../Generated_Code/PCS.c **** #endif 
  64:../Generated_Code/PCS.c **** 
  65:../Generated_Code/PCS.c **** typedef struct {
  66:../Generated_Code/PCS.c ****   LDD_TUserData *UserDataPtr;          /* Pointer to user data */
  67:../Generated_Code/PCS.c **** } PCS_TDeviceData;                     /* Device data structure type */
  68:../Generated_Code/PCS.c **** 
  69:../Generated_Code/PCS.c **** typedef PCS_TDeviceData *PCS_TDeviceDataPtr ; /* Pointer to the device data structure. */
  70:../Generated_Code/PCS.c **** 
  71:../Generated_Code/PCS.c **** /* {Default RTOS Adapter} Static object used for simulation of dynamic driver memory allocation */
  72:../Generated_Code/PCS.c **** static PCS_TDeviceData DeviceDataPrv__DEFAULT_RTOS_ALLOC;
  73:../Generated_Code/PCS.c **** /*
  74:../Generated_Code/PCS.c **** ** ===================================================================
  75:../Generated_Code/PCS.c **** **     Method      :  PCS_Init (component BitIO_LDD)
  76:../Generated_Code/PCS.c **** */
  77:../Generated_Code/PCS.c **** /*!
  78:../Generated_Code/PCS.c **** **     @brief
  79:../Generated_Code/PCS.c **** **         Initializes the device. Allocates memory for the device data
  80:../Generated_Code/PCS.c **** **         structure, allocates interrupt vectors and sets interrupt
  81:../Generated_Code/PCS.c **** **         priority, sets pin routing, sets timing, etc. If the "Enable
  82:../Generated_Code/PCS.c **** **         in init. code" is set to "yes" value then the device is also
  83:../Generated_Code/PCS.c **** **         enabled(see the description of the Enable() method). In this
  84:../Generated_Code/PCS.c **** **         case the Enable() method is not necessary and needn't to be
  85:../Generated_Code/PCS.c **** **         generated. 
  86:../Generated_Code/PCS.c **** **     @param
  87:../Generated_Code/PCS.c **** **         UserDataPtr     - Pointer to the user or
  88:../Generated_Code/PCS.c **** **                           RTOS specific data. This pointer will be
  89:../Generated_Code/PCS.c **** **                           passed as an event or callback parameter.
  90:../Generated_Code/PCS.c **** **     @return
  91:../Generated_Code/PCS.c **** **                         - Pointer to the dynamically allocated private
  92:../Generated_Code/PCS.c **** **                           structure or NULL if there was an error.
  93:../Generated_Code/PCS.c **** */
  94:../Generated_Code/PCS.c **** /* ===================================================================*/
  95:../Generated_Code/PCS.c **** LDD_TDeviceData* PCS_Init(LDD_TUserData *UserDataPtr)
  96:../Generated_Code/PCS.c **** {
  32              		.loc 1 96 0
  33              		.cfi_startproc
  34 0000 80B5     		push	{r7, lr}
  35              	.LCFI0:
  36              		.cfi_def_cfa_offset 8
  37              		.cfi_offset 7, -8
  38              		.cfi_offset 14, -4
  39 0002 84B0     		sub	sp, sp, #16
  40              	.LCFI1:
  41              		.cfi_def_cfa_offset 24
  42 0004 00AF     		add	r7, sp, #0
  43              	.LCFI2:
  44              		.cfi_def_cfa_register 7
  45 0006 7860     		str	r0, [r7, #4]
  97:../Generated_Code/PCS.c ****   /* Allocate device structure */
  98:../Generated_Code/PCS.c ****   PCS_TDeviceDataPtr DeviceDataPrv;
  99:../Generated_Code/PCS.c **** 
 100:../Generated_Code/PCS.c ****   /* {Default RTOS Adapter} Driver memory allocation: Dynamic allocation is simulated by a pointer 
 101:../Generated_Code/PCS.c ****   DeviceDataPrv = &DeviceDataPrv__DEFAULT_RTOS_ALLOC;
  46              		.loc 1 101 0
  47 0008 104B     		ldr	r3, .L3
  48 000a FB60     		str	r3, [r7, #12]
 102:../Generated_Code/PCS.c ****   DeviceDataPrv->UserDataPtr = UserDataPtr; /* Store the RTOS device structure */
  49              		.loc 1 102 0
  50 000c FB68     		ldr	r3, [r7, #12]
  51 000e 7A68     		ldr	r2, [r7, #4]
  52 0010 1A60     		str	r2, [r3]
 103:../Generated_Code/PCS.c ****   /* Configure pin as output */
 104:../Generated_Code/PCS.c ****   /* GPIOC_PDDR: PDD|=0x10 */
 105:../Generated_Code/PCS.c ****   GPIOC_PDDR |= GPIO_PDDR_PDD(0x10);                                   
  53              		.loc 1 105 0
  54 0012 0F4B     		ldr	r3, .L3+4
  55 0014 0E4A     		ldr	r2, .L3+4
  56 0016 5269     		ldr	r2, [r2, #20]
  57 0018 1021     		mov	r1, #16
  58 001a 0A43     		orr	r2, r1
  59 001c 5A61     		str	r2, [r3, #20]
 106:../Generated_Code/PCS.c ****   /* Set initialization value */
 107:../Generated_Code/PCS.c ****   /* GPIOC_PDOR: PDO|=0x10 */
 108:../Generated_Code/PCS.c ****   GPIOC_PDOR |= GPIO_PDOR_PDO(0x10);                                   
  60              		.loc 1 108 0
  61 001e 0C4B     		ldr	r3, .L3+4
  62 0020 0B4A     		ldr	r2, .L3+4
  63 0022 1268     		ldr	r2, [r2]
  64 0024 1021     		mov	r1, #16
  65 0026 0A43     		orr	r2, r1
  66 0028 1A60     		str	r2, [r3]
 109:../Generated_Code/PCS.c ****   /* Initialization of Port Control register */
 110:../Generated_Code/PCS.c ****   /* PORTC_PCR4: ISF=0,MUX=1 */
 111:../Generated_Code/PCS.c ****   PORTC_PCR4 = (uint32_t)((PORTC_PCR4 & (uint32_t)~(uint32_t)(
  67              		.loc 1 111 0
  68 002a 0A4B     		ldr	r3, .L3+8
  69 002c 094A     		ldr	r2, .L3+8
  70 002e 1169     		ldr	r1, [r2, #16]
  71 0030 094A     		ldr	r2, .L3+12
  72 0032 0A40     		and	r2, r1
  73 0034 8021     		mov	r1, #128
  74 0036 4900     		lsl	r1, r1, #1
  75 0038 0A43     		orr	r2, r1
  76 003a 1A61     		str	r2, [r3, #16]
 112:../Generated_Code/PCS.c ****                 PORT_PCR_ISF_MASK |
 113:../Generated_Code/PCS.c ****                 PORT_PCR_MUX(0x06)
 114:../Generated_Code/PCS.c ****                )) | (uint32_t)(
 115:../Generated_Code/PCS.c ****                 PORT_PCR_MUX(0x01)
 116:../Generated_Code/PCS.c ****                ));                                  
 117:../Generated_Code/PCS.c ****   /* Registration of the device structure */
 118:../Generated_Code/PCS.c ****   PE_LDD_RegisterDeviceStructure(PE_LDD_COMPONENT_PCS_ID,DeviceDataPrv);
  77              		.loc 1 118 0
  78 003c 074B     		ldr	r3, .L3+16
  79 003e FA68     		ldr	r2, [r7, #12]
  80 0040 1A61     		str	r2, [r3, #16]
 119:../Generated_Code/PCS.c ****   return ((LDD_TDeviceData *)DeviceDataPrv);
  81              		.loc 1 119 0
  82 0042 FB68     		ldr	r3, [r7, #12]
 120:../Generated_Code/PCS.c **** }
  83              		.loc 1 120 0
  84 0044 181C     		mov	r0, r3
  85 0046 BD46     		mov	sp, r7
  86 0048 04B0     		add	sp, sp, #16
  87              		@ sp needed for prologue
  88 004a 80BD     		pop	{r7, pc}
  89              	.L4:
  90              		.align	2
  91              	.L3:
  92 004c 00000000 		.word	DeviceDataPrv__DEFAULT_RTOS_ALLOC
  93 0050 80F00F40 		.word	1074786432
  94 0054 00B00440 		.word	1074049024
  95 0058 FFF8FFFE 		.word	-16779009
  96 005c 00000000 		.word	PE_LDD_DeviceDataList
  97              		.cfi_endproc
  98              	.LFE0:
 100              		.section	.text.PCS_GetVal,"ax",%progbits
 101              		.align	2
 102              		.global	PCS_GetVal
 103              		.code	16
 104              		.thumb_func
 106              	PCS_GetVal:
 107              	.LFB1:
 121:../Generated_Code/PCS.c **** /*
 122:../Generated_Code/PCS.c **** ** ===================================================================
 123:../Generated_Code/PCS.c **** **     Method      :  PCS_GetVal (component BitIO_LDD)
 124:../Generated_Code/PCS.c **** */
 125:../Generated_Code/PCS.c **** /*!
 126:../Generated_Code/PCS.c **** **     @brief
 127:../Generated_Code/PCS.c **** **         Returns the input/output value. If the direction is [input]
 128:../Generated_Code/PCS.c **** **         then the input value of the pin is read and returned. If the
 129:../Generated_Code/PCS.c **** **         direction is [output] then the last written value is read
 130:../Generated_Code/PCS.c **** **         and returned (see <Safe mode> property for limitations).
 131:../Generated_Code/PCS.c **** **         This method cannot be disabled if direction is [input].
 132:../Generated_Code/PCS.c **** **     @param
 133:../Generated_Code/PCS.c **** **         DeviceDataPtr   - Device data structure
 134:../Generated_Code/PCS.c **** **                           pointer returned by <Init> method.
 135:../Generated_Code/PCS.c **** **     @return
 136:../Generated_Code/PCS.c **** **                         - Input or output value. Possible values:
 137:../Generated_Code/PCS.c **** **                           <false> - logical "0" (Low level)
 138:../Generated_Code/PCS.c **** **                           <true> - logical "1" (High level)
 139:../Generated_Code/PCS.c **** */
 140:../Generated_Code/PCS.c **** /* ===================================================================*/
 141:../Generated_Code/PCS.c **** bool PCS_GetVal(LDD_TDeviceData *DeviceDataPtr)
 142:../Generated_Code/PCS.c **** {
 108              		.loc 1 142 0
 109              		.cfi_startproc
 110 0000 80B5     		push	{r7, lr}
 111              	.LCFI3:
 112              		.cfi_def_cfa_offset 8
 113              		.cfi_offset 7, -8
 114              		.cfi_offset 14, -4
 115 0002 84B0     		sub	sp, sp, #16
 116              	.LCFI4:
 117              		.cfi_def_cfa_offset 24
 118 0004 00AF     		add	r7, sp, #0
 119              	.LCFI5:
 120              		.cfi_def_cfa_register 7
 121 0006 7860     		str	r0, [r7, #4]
 143:../Generated_Code/PCS.c ****   uint32_t PortData;                   /* Port data masked according to the bit used */
 144:../Generated_Code/PCS.c **** 
 145:../Generated_Code/PCS.c ****   (void)DeviceDataPtr;                 /* Parameter is not used, suppress unused argument warning *
 146:../Generated_Code/PCS.c ****   PortData = GPIO_PDD_GetPortDataOutput(PCS_MODULE_BASE_ADDRESS) & PCS_PORT_MASK;
 122              		.loc 1 146 0
 123 0008 064B     		ldr	r3, .L7
 124 000a 1A68     		ldr	r2, [r3]
 125 000c 1023     		mov	r3, #16
 126 000e 1340     		and	r3, r2
 127 0010 FB60     		str	r3, [r7, #12]
 147:../Generated_Code/PCS.c ****   return (PortData != 0U) ? (bool)TRUE : (bool)FALSE;
 128              		.loc 1 147 0
 129 0012 FB68     		ldr	r3, [r7, #12]
 130 0014 5A1E     		sub	r2, r3, #1
 131 0016 9341     		sbc	r3, r3, r2
 132 0018 DBB2     		uxtb	r3, r3
 148:../Generated_Code/PCS.c **** }
 133              		.loc 1 148 0
 134 001a 181C     		mov	r0, r3
 135 001c BD46     		mov	sp, r7
 136 001e 04B0     		add	sp, sp, #16
 137              		@ sp needed for prologue
 138 0020 80BD     		pop	{r7, pc}
 139              	.L8:
 140 0022 C046     		.align	2
 141              	.L7:
 142 0024 80F00FF8 		.word	-133173120
 143              		.cfi_endproc
 144              	.LFE1:
 146              		.section	.text.PCS_PutVal,"ax",%progbits
 147              		.align	2
 148              		.global	PCS_PutVal
 149              		.code	16
 150              		.thumb_func
 152              	PCS_PutVal:
 153              	.LFB2:
 149:../Generated_Code/PCS.c **** 
 150:../Generated_Code/PCS.c **** /*
 151:../Generated_Code/PCS.c **** ** ===================================================================
 152:../Generated_Code/PCS.c **** **     Method      :  PCS_PutVal (component BitIO_LDD)
 153:../Generated_Code/PCS.c **** */
 154:../Generated_Code/PCS.c **** /*!
 155:../Generated_Code/PCS.c **** **     @brief
 156:../Generated_Code/PCS.c **** **         The specified output value is set. If the direction is <b>
 157:../Generated_Code/PCS.c **** **         input</b>, the component saves the value to a memory or a
 158:../Generated_Code/PCS.c **** **         register and this value will be written to the pin after
 159:../Generated_Code/PCS.c **** **         switching to the output mode (using <tt>SetDir(TRUE)</tt>;
 160:../Generated_Code/PCS.c **** **         see <a href="BitIOProperties.html#SafeMode">Safe mode</a>
 161:../Generated_Code/PCS.c **** **         property for limitations). If the direction is <b>output</b>,
 162:../Generated_Code/PCS.c **** **         it writes the value to the pin. (Method is available only if
 163:../Generated_Code/PCS.c **** **         the direction = <u><tt>output</tt></u> or <u><tt>
 164:../Generated_Code/PCS.c **** **         input/output</tt></u>).
 165:../Generated_Code/PCS.c **** **     @param
 166:../Generated_Code/PCS.c **** **         DeviceDataPtr   - Device data structure
 167:../Generated_Code/PCS.c **** **                           pointer returned by <Init> method.
 168:../Generated_Code/PCS.c **** **     @param
 169:../Generated_Code/PCS.c **** **         Val             - Output value. Possible values:
 170:../Generated_Code/PCS.c **** **                           <false> - logical "0" (Low level)
 171:../Generated_Code/PCS.c **** **                           <true> - logical "1" (High level)
 172:../Generated_Code/PCS.c **** */
 173:../Generated_Code/PCS.c **** /* ===================================================================*/
 174:../Generated_Code/PCS.c **** void PCS_PutVal(LDD_TDeviceData *DeviceDataPtr, bool Val)
 175:../Generated_Code/PCS.c **** {
 154              		.loc 1 175 0
 155              		.cfi_startproc
 156 0000 80B5     		push	{r7, lr}
 157              	.LCFI6:
 158              		.cfi_def_cfa_offset 8
 159              		.cfi_offset 7, -8
 160              		.cfi_offset 14, -4
 161 0002 82B0     		sub	sp, sp, #8
 162              	.LCFI7:
 163              		.cfi_def_cfa_offset 16
 164 0004 00AF     		add	r7, sp, #0
 165              	.LCFI8:
 166              		.cfi_def_cfa_register 7
 167 0006 7860     		str	r0, [r7, #4]
 168 0008 0A1C     		mov	r2, r1
 169 000a FB1C     		add	r3, r7, #3
 170 000c 1A70     		strb	r2, [r3]
 176:../Generated_Code/PCS.c ****   (void)DeviceDataPtr;                 /* Parameter is not used, suppress unused argument warning *
 177:../Generated_Code/PCS.c ****   if (Val) {
 171              		.loc 1 177 0
 172 000e FB1C     		add	r3, r7, #3
 173 0010 1B78     		ldrb	r3, [r3]
 174 0012 002B     		cmp	r3, #0
 175 0014 03D0     		beq	.L10
 178:../Generated_Code/PCS.c ****     GPIO_PDD_SetPortDataOutputMask(PCS_MODULE_BASE_ADDRESS, PCS_PORT_MASK);
 176              		.loc 1 178 0
 177 0016 054B     		ldr	r3, .L12
 178 0018 1022     		mov	r2, #16
 179 001a 5A60     		str	r2, [r3, #4]
 180 001c 02E0     		b	.L9
 181              	.L10:
 179:../Generated_Code/PCS.c ****   } else { /* !Val */
 180:../Generated_Code/PCS.c ****     GPIO_PDD_ClearPortDataOutputMask(PCS_MODULE_BASE_ADDRESS, PCS_PORT_MASK);
 182              		.loc 1 180 0
 183 001e 034B     		ldr	r3, .L12
 184 0020 1022     		mov	r2, #16
 185 0022 9A60     		str	r2, [r3, #8]
 186              	.L9:
 181:../Generated_Code/PCS.c ****   } /* !Val */
 182:../Generated_Code/PCS.c **** }
 187              		.loc 1 182 0
 188 0024 BD46     		mov	sp, r7
 189 0026 02B0     		add	sp, sp, #8
 190              		@ sp needed for prologue
 191 0028 80BD     		pop	{r7, pc}
 192              	.L13:
 193 002a C046     		.align	2
 194              	.L12:
 195 002c 80F00FF8 		.word	-133173120
 196              		.cfi_endproc
 197              	.LFE2:
 199              		.section	.text.PCS_ClrVal,"ax",%progbits
 200              		.align	2
 201              		.global	PCS_ClrVal
 202              		.code	16
 203              		.thumb_func
 205              	PCS_ClrVal:
 206              	.LFB3:
 183:../Generated_Code/PCS.c **** 
 184:../Generated_Code/PCS.c **** /*
 185:../Generated_Code/PCS.c **** ** ===================================================================
 186:../Generated_Code/PCS.c **** **     Method      :  PCS_ClrVal (component BitIO_LDD)
 187:../Generated_Code/PCS.c **** */
 188:../Generated_Code/PCS.c **** /*!
 189:../Generated_Code/PCS.c **** **     @brief
 190:../Generated_Code/PCS.c **** **         Clears (set to zero) the output value. It is equivalent to
 191:../Generated_Code/PCS.c **** **         the [PutVal(FALSE)]. This method is available only if the
 192:../Generated_Code/PCS.c **** **         direction = _[output]_ or _[input/output]_.
 193:../Generated_Code/PCS.c **** **     @param
 194:../Generated_Code/PCS.c **** **         DeviceDataPtr   - Pointer to device data
 195:../Generated_Code/PCS.c **** **                           structure returned by <Init> method.
 196:../Generated_Code/PCS.c **** */
 197:../Generated_Code/PCS.c **** /* ===================================================================*/
 198:../Generated_Code/PCS.c **** void PCS_ClrVal(LDD_TDeviceData *DeviceDataPtr)
 199:../Generated_Code/PCS.c **** {
 207              		.loc 1 199 0
 208              		.cfi_startproc
 209 0000 80B5     		push	{r7, lr}
 210              	.LCFI9:
 211              		.cfi_def_cfa_offset 8
 212              		.cfi_offset 7, -8
 213              		.cfi_offset 14, -4
 214 0002 82B0     		sub	sp, sp, #8
 215              	.LCFI10:
 216              		.cfi_def_cfa_offset 16
 217 0004 00AF     		add	r7, sp, #0
 218              	.LCFI11:
 219              		.cfi_def_cfa_register 7
 220 0006 7860     		str	r0, [r7, #4]
 200:../Generated_Code/PCS.c ****   (void)DeviceDataPtr;                 /* Parameter is not used, suppress unused argument warning *
 201:../Generated_Code/PCS.c ****   GPIO_PDD_ClearPortDataOutputMask(PCS_MODULE_BASE_ADDRESS, PCS_PORT_MASK);
 221              		.loc 1 201 0
 222 0008 024B     		ldr	r3, .L15
 223 000a 1022     		mov	r2, #16
 224 000c 9A60     		str	r2, [r3, #8]
 202:../Generated_Code/PCS.c **** }
 225              		.loc 1 202 0
 226 000e BD46     		mov	sp, r7
 227 0010 02B0     		add	sp, sp, #8
 228              		@ sp needed for prologue
 229 0012 80BD     		pop	{r7, pc}
 230              	.L16:
 231              		.align	2
 232              	.L15:
 233 0014 80F00FF8 		.word	-133173120
 234              		.cfi_endproc
 235              	.LFE3:
 237              		.section	.text.PCS_SetVal,"ax",%progbits
 238              		.align	2
 239              		.global	PCS_SetVal
 240              		.code	16
 241              		.thumb_func
 243              	PCS_SetVal:
 244              	.LFB4:
 203:../Generated_Code/PCS.c **** 
 204:../Generated_Code/PCS.c **** /*
 205:../Generated_Code/PCS.c **** ** ===================================================================
 206:../Generated_Code/PCS.c **** **     Method      :  PCS_SetVal (component BitIO_LDD)
 207:../Generated_Code/PCS.c **** */
 208:../Generated_Code/PCS.c **** /*!
 209:../Generated_Code/PCS.c **** **     @brief
 210:../Generated_Code/PCS.c **** **         Sets (to one) the output value. It is equivalent to the
 211:../Generated_Code/PCS.c **** **         [PutVal(TRUE)]. This method is available only if the
 212:../Generated_Code/PCS.c **** **         direction = _[output]_ or _[input/output]_.
 213:../Generated_Code/PCS.c **** **     @param
 214:../Generated_Code/PCS.c **** **         DeviceDataPtr   - Pointer to device data
 215:../Generated_Code/PCS.c **** **                           structure returned by <Init> method.
 216:../Generated_Code/PCS.c **** */
 217:../Generated_Code/PCS.c **** /* ===================================================================*/
 218:../Generated_Code/PCS.c **** void PCS_SetVal(LDD_TDeviceData *DeviceDataPtr)
 219:../Generated_Code/PCS.c **** {
 245              		.loc 1 219 0
 246              		.cfi_startproc
 247 0000 80B5     		push	{r7, lr}
 248              	.LCFI12:
 249              		.cfi_def_cfa_offset 8
 250              		.cfi_offset 7, -8
 251              		.cfi_offset 14, -4
 252 0002 82B0     		sub	sp, sp, #8
 253              	.LCFI13:
 254              		.cfi_def_cfa_offset 16
 255 0004 00AF     		add	r7, sp, #0
 256              	.LCFI14:
 257              		.cfi_def_cfa_register 7
 258 0006 7860     		str	r0, [r7, #4]
 220:../Generated_Code/PCS.c ****   (void)DeviceDataPtr;                 /* Parameter is not used, suppress unused argument warning *
 221:../Generated_Code/PCS.c ****   GPIO_PDD_SetPortDataOutputMask(PCS_MODULE_BASE_ADDRESS, PCS_PORT_MASK);
 259              		.loc 1 221 0
 260 0008 024B     		ldr	r3, .L18
 261 000a 1022     		mov	r2, #16
 262 000c 5A60     		str	r2, [r3, #4]
 222:../Generated_Code/PCS.c **** }
 263              		.loc 1 222 0
 264 000e BD46     		mov	sp, r7
 265 0010 02B0     		add	sp, sp, #8
 266              		@ sp needed for prologue
 267 0012 80BD     		pop	{r7, pc}
 268              	.L19:
 269              		.align	2
 270              	.L18:
 271 0014 80F00FF8 		.word	-133173120
 272              		.cfi_endproc
 273              	.LFE4:
 275              		.text
 276              	.Letext0:
 277              		.file 2 "E:/Freescale/CW MCU v10.5/MCU/ARM_GCC_Support/ewl/EWL_C/include/cstdint"
 278              		.file 3 "../Generated_Code/PE_Types.h"
 279              		.file 4 "../Generated_Code/IO_Map.h"